 xerces-c_3_1

 Timestamp is 55d50b8e (Wed Aug 19 16:04:46 2015)

 Preferred load address is 12000000

 Start         Length     Name                   Class
 0001:00000000 0000009cH .text$di                CODE
 0001:000000a0 000af0a6H .text$mn                CODE
 0001:000af146 0000b2e5H .text$x                 CODE
 0001:000ba42b 00000107H .text$yd                CODE
 0002:00000000 000001b4H .idata$5                DATA
 0002:000001b4 00000004H .CRT$XCA                DATA
 0002:000001b8 00000034H .CRT$XCU                DATA
 0002:000001ec 00000004H .CRT$XCZ                DATA
 0002:000001f0 00000004H .CRT$XIA                DATA
 0002:000001f4 00000004H .CRT$XIAA               DATA
 0002:000001f8 00000004H .CRT$XIC                DATA
 0002:000001fc 00000004H .CRT$XIZ                DATA
 0002:00000200 00035420H .rdata                  DATA
 0002:00035620 00000094H .rdata$debug            DATA
 0002:000356b4 0000a5a1H .rdata$r                DATA
 0002:0003fc60 00000cd4H .rdata$sxdata           DATA
 0002:00040934 00000004H .rtc$IAA                DATA
 0002:00040938 00000004H .rtc$IZZ                DATA
 0002:0004093c 00000004H .rtc$TAA                DATA
 0002:00040940 00000004H .rtc$TZZ                DATA
 0002:00040948 0000f344H .xdata$x                DATA
 0002:0004fc90 000829e0H .edata                  DATA
 0002:000d2670 0000003cH .idata$2                DATA
 0002:000d26ac 00000014H .idata$3                DATA
 0002:000d26c0 000001b4H .idata$4                DATA
 0002:000d2874 00000698H .idata$6                DATA
 0003:00000000 00021290H .data                   DATA
 0003:00021290 00006d82H .data$r                 DATA
 0003:00028018 000004b0H .bss                    DATA
 0004:00000000 000009e8H .rsrc$01                DATA
 0004:000009f0 000132c0H .rsrc$02                DATA

  Address         Publics by Value              Rva+Base       Lib:Object

 0000:00000000       ___guard_flags             00000000     <absolute>
 0000:00000000       __except_list              00000000     <absolute>
 0000:00000000       ___guard_fids_count        00000000     <absolute>
 0000:00000000       ___guard_fids_table        00000000     <absolute>
 0000:00000335       ___safe_se_handler_count   00000335     <absolute>
 0000:00009876       __fltused                  00009876     <absolute>
 0000:00009876       __ldused                   00009876     <absolute>
 0000:00000000       ___ImageBase               12000000     <linker-defined>
 0001:000000a0       ??1MemoryManager@xercesc_3_1@@UAE@XZ 120010a0 f i Base64.obj
 0001:000000a0       ??1MemoryManagerImpl@xercesc_3_1@@UAE@XZ 120010a0 f i PlatformUtils.obj
 0001:000000a7       ??0MemoryManager@xercesc_3_1@@IAE@XZ 120010a7 f i Base64.obj
 0001:000000b0       ??_EMemoryManager@xercesc_3_1@@UAEPAXI@Z 120010b0 f i Base64.obj
 0001:000000b0       ??_EMemoryManagerImpl@xercesc_3_1@@UAEPAXI@Z 120010b0 f i PlatformUtils.obj
 0001:000000fd       ??4Base64@xercesc_3_1@@QAEAAV01@ABV01@@Z 120010fd f i Base64.obj
 0001:000000fd       ??4XMLUni@xercesc_3_1@@QAEAAV01@ABV01@@Z 120010fd f i Base64.obj
 0001:000000fd       ??4XPathSymbols@xercesc_3_1@@QAEAAV01@ABV01@@Z 120010fd f i XercesXPath.obj
 0001:000000fd       ??4XSConstants@xercesc_3_1@@QAEAAV01@ABV01@@Z 120010fd f i XMLAttr.obj
 0001:000000fd       ??4XMLChar1_0@xercesc_3_1@@QAEAAV01@ABV01@@Z 120010fd f i Base64.obj
 0001:000000fd       ??4OutOfMemoryException@xercesc_3_1@@QAEAAV01@ABV01@@Z 120010fd f i PlatformUtils.obj
 0001:000000fd       ??4XMLUniCharacter@xercesc_3_1@@QAEAAV01@ABV01@@Z 120010fd f i RangeTokenMap.obj
 0001:000000fd       ??4XMLString@xercesc_3_1@@QAEAAV01@ABV01@@Z 120010fd f i Base64.obj
 0001:000000fd       ??4XMLPlatformUtils@xercesc_3_1@@QAEAAV01@ABV01@@Z 120010fd f i Base64.obj
 0001:000000fd       ??4XMemory@xercesc_3_1@@QAEAAV01@ABV01@@Z 120010fd f i Base64.obj
 0001:000000fd       ??4XercesElementWildcard@xercesc_3_1@@QAEAAV01@ABV01@@Z 120010fd f i AllContentModel.obj
 0001:000000fd       ??4XUtil@xercesc_3_1@@QAEAAV01@ABV01@@Z 120010fd f i SchemaInfo.obj
 0001:000000fd       ??4PSVIUni@xercesc_3_1@@QAEAAV01@ABV01@@Z 120010fd f i PSVIUni.obj
 0001:000000fd       ??4XercesNamespaceResolver@xercesc_3_1@@QAEAAV01@ABV01@@Z 120010fd f i XMLGrammarPoolImpl.obj
 0001:000000fd       ??4XMLChar1_1@xercesc_3_1@@QAEAAV01@ABV01@@Z 120010fd f i Base64.obj
 0001:000000fd       ??4XMLBufferFullHandler@xercesc_3_1@@QAEAAV01@ABV01@@Z 120010fd f i Base64.obj
 0001:000000fd       ??0OutOfMemoryException@xercesc_3_1@@QAE@ABV01@@Z 120010fd f i PlatformUtils.obj
 0001:000000fd       ??4XMLScannerResolver@xercesc_3_1@@QAEAAV01@ABV01@@Z 120010fd f i XMLScannerResolver.obj
 0001:000000fd       ??4PSVIDefs@xercesc_3_1@@QAEAAV01@ABV01@@Z 120010fd f i XMLElementDecl.obj
 0001:000000fd       ??4DOMImplementationRegistry@xercesc_3_1@@QAEAAV01@ABV01@@Z 120010fd f i AbstractDOMParser.obj
 0001:000000fd       ??4SchemaSymbols@xercesc_3_1@@QAEAAV01@ABV01@@Z 120010fd f i XMLAttr.obj
 0001:000000fd       ??4RegxUtil@xercesc_3_1@@QAEAAV01@ABV01@@Z 120010fd f i RegularExpression.obj
 0001:000000fd       ??4XIncludeDOMDocumentProcessor@xercesc_3_1@@QAEAAV01@ABV01@@Z 120010fd f i XIncludeDOMDocumentProcessor.obj
 0001:00000102       ?isPad@Base64@xercesc_3_1@@CA_NABE@Z 12001102 f i Base64.obj
 0001:00000112       ?set1stOctet@Base64@xercesc_3_1@@CAEABE0@Z 12001112 f i Base64.obj
 0001:0000012b       ?set2ndOctet@Base64@xercesc_3_1@@CAEABE0@Z 1200112b f i Base64.obj
 0001:00000144       ?set3rdOctet@Base64@xercesc_3_1@@CAEABE0@Z 12001144 f i Base64.obj
 0001:0000015a       ?split1stOctet@Base64@xercesc_3_1@@CAXABEAAE1@Z 1200115a f i Base64.obj
 0001:00000179       ?split2ndOctet@Base64@xercesc_3_1@@CAXABEAAE1@Z 12001179 f i Base64.obj
 0001:00000198       ?split3rdOctet@Base64@xercesc_3_1@@CAXABEAAE1@Z 12001198 f i Base64.obj
 0001:000001b4       ??0XUtil@xercesc_3_1@@AAE@XZ 120011b4 f i SchemaInfo.obj
 0001:000001b4       ??0XMemory@xercesc_3_1@@IAE@XZ 120011b4 f i Base64.obj
 0001:000001b4       ??0OutOfMemoryException@xercesc_3_1@@QAE@XZ 120011b4 f i PlatformUtils.obj
 0001:000001b4       ?getExceptionMemoryManager@MemoryManagerImpl@xercesc_3_1@@UAEPAVMemoryManager@2@XZ 120011b4 f i MemoryManagerImpl.obj
 0001:000001b7       ??0DOMError@xercesc_3_1@@IAE@XZ 120011b7 f i Base64.obj
 0001:000001c0       ??1DOMError@xercesc_3_1@@UAE@XZ 120011c0 f i Base64.obj
 0001:000001c7       ??_EDOMError@xercesc_3_1@@UAEPAXI@Z 120011c7 f i Base64.obj
 0001:00000214       ??1AnnotationErrorReporter@xercesc_3_1@@UAE@XZ 12001214 f i TraverseSchema.obj
 0001:00000214       ??1XMLErrorReporter@xercesc_3_1@@UAE@XZ 12001214 f i Base64.obj
 0001:0000021b       ??0XMLErrorReporter@xercesc_3_1@@IAE@XZ 1200121b f i Base64.obj
 0001:00000224       ??_EXMLErrorReporter@xercesc_3_1@@UAEPAXI@Z 12001224 f i Base64.obj
 0001:00000271       ?getElementName@XMLElementDecl@xercesc_3_1@@QAEPAVQName@2@XZ 12001271 f i XMLDTDDescription.obj
 0001:00000271       ?getValidationContext@PSVIItem@xercesc_3_1@@QAEPB_WXZ 12001271 f i PSVIAttribute.obj
 0001:00000271       ?getCurrentReader@ReaderMgr@xercesc_3_1@@QAEPAVXMLReader@2@XZ 12001271 f i XMLValidator.obj
 0001:00000271       ?getName@XercesNodeTest@xercesc_3_1@@QBEPAVQName@2@XZ 12001271 f i XMLGrammarPoolImpl.obj
 0001:00000271       ?getFinalDefault@SchemaInfo@xercesc_3_1@@QBEHXZ 12001271 f i IGXMLScanner.obj
 0001:00000271       ?getRefName@XMLRefInfo@xercesc_3_1@@QBEPB_WXZ 12001271 f i XMLGrammarPoolImpl.obj
 0001:00000271       ?getContextType@XMLSchemaDescriptionImpl@xercesc_3_1@@UBE?AW4ContextType@XMLSchemaDescription@2@XZ 12001271 f i XMLSchemaDescriptionImpl.obj
 0001:00000271       ?getScheme@XMLUri@xercesc_3_1@@QBEPB_WXZ 12001271 f i XMLString.obj
 0001:00000271       ?getNodeTest@XercesStep@xercesc_3_1@@QBEPAVXercesNodeTest@2@XZ 12001271 f i XMLGrammarPoolImpl.obj
 0001:00000271       ?getFirstChild@DOMParentNode@xercesc_3_1@@QBEPAVDOMNode@2@XZ 12001271 f i DOMParentNode.obj
 0001:00000271       ?getIdentityConstraint@IC_Selector@xercesc_3_1@@QBEPAVIdentityConstraint@2@XZ 12001271 f i XSIDCDefinition.obj
 0001:00000271       ?getGrammarPool@XSerializeEngine@xercesc_3_1@@QBEPAVXMLGrammarPool@2@XZ 12001271 f i XSerializeEngine.obj
 0001:00000271       ?getEncoding@DOMLSOutputImpl@xercesc_3_1@@UBEPB_WXZ 12001271 f i DOMImplementationImpl.obj
 0001:00000271       ?getErrorHandler@DOMConfigurationImpl@xercesc_3_1@@QBEPAVDOMErrorHandler@2@XZ 12001271 f i DOMConfigurationImpl.obj
 0001:00000271       ?getNamespaceItems@XSModel@xercesc_3_1@@QAEPAV?$RefVectorOf@VXSNamespaceItem@xercesc_3_1@@@2@XZ 12001271 f i XMLGrammarPoolImpl.obj
 0001:00000271       ?getLength@VecAttrListImpl@xercesc_3_1@@UBEKXZ 12001271 f i VecAttrListImpl.obj
 0001:00000271       ?getSeverity@DOMErrorImpl@xercesc_3_1@@UBE?AW4ErrorSeverity@DOMError@2@XZ 12001271 f i DOMLSParserImpl.obj
 0001:00000271       ?getScope@XercesGroupInfo@xercesc_3_1@@QBEIXZ 12001271 f i XMLGrammarPoolImpl.obj
 0001:00000271       ?getRawData@XMLBigInteger@xercesc_3_1@@QBEPA_WXZ 12001271 f i XMLBigDecimal.obj
 0001:00000271       ?getIdRefList@ValidationContextImpl@xercesc_3_1@@UBEPAV?$RefHashTableOf@VXMLRefInfo@xercesc_3_1@@UStringHasher@2@@2@XZ 12001271 f i ValidationContextImpl.obj
 0001:00000271       ?getIdentityConstraint@IC_Field@xercesc_3_1@@QBEPAVIdentityConstraint@2@XZ 12001271 f i XMLElementDecl.obj
 0001:00000271       ?getLength@VecAttributesImpl@xercesc_3_1@@UBEKXZ 12001271 f i VecAttributesImpl.obj
 0001:00000271       ?getMessage@DOMException@xercesc_3_1@@QBEPB_WXZ 12001271 f i AbstractDOMParser.obj
 0001:00000271       ?getNameId@XercesAttGroupInfo@xercesc_3_1@@QBEIXZ 12001271 f i XMLGrammarPoolImpl.obj
 0001:00000271       ?getLength@PSVIAttributeList@xercesc_3_1@@QBEKXZ 12001271 f i PSVIAttributeList.obj
 0001:00000271       ?getElement@ContentSpecNode@xercesc_3_1@@QAEPAVQName@2@XZ 12001271 f i XMLGrammarPoolImpl.obj
 0001:00000271       ?getFragment@XMLURL@xercesc_3_1@@QBEPB_WXZ 12001271 f i PlatformUtils.obj
 0001:00000271       ?getElement@ContentSpecNode@xercesc_3_1@@QBEPBVQName@2@XZ 12001271 f i XMLGrammarPoolImpl.obj
 0001:00000271       ?getType@XMLAttDef@xercesc_3_1@@QBE?AW4AttTypes@12@XZ 12001271 f i XMLAttDef.obj
 0001:00000271       ?getEncoding@InputSource@xercesc_3_1@@UBEPB_WXZ 12001271 f i LocalFileInputSource.obj
 0001:00000271       ?getSystemId@XMLDTDDescriptionImpl@xercesc_3_1@@UBEPB_WXZ 12001271 f i XMLDTDDescriptionImpl.obj
 0001:00000271       ?getSystemId@XMLResourceIdentifier@xercesc_3_1@@QBEPB_WXZ 12001271 f i DGXMLScanner.obj
 0001:00000271       ?getTotalDigit@XMLBigDecimal@xercesc_3_1@@QBEIXZ 12001271 f i XMLAbstractDoubleFloat.obj
 0001:00000271       ?getByteStream@Wrapper4InputSource@xercesc_3_1@@UBEPAVInputSource@2@XZ 12001271 f i Wrapper4InputSource.obj
 0001:00000271       ?getCurrentReader@ReaderMgr@xercesc_3_1@@QBEPBVXMLReader@2@XZ 12001271 f i XMLValidator.obj
 0001:00000271       ?getByteStream@DOMLSInputImpl@xercesc_3_1@@UBEPAVInputSource@2@XZ 12001271 f i DOMImplementationImpl.obj
 0001:00000271       ?getFilter@DOMTreeWalkerImpl@xercesc_3_1@@UAEPAVDOMNodeFilter@2@XZ 12001271 f i DOMTreeWalkerImpl.obj
 0001:00000271       ?getOpType@Op@xercesc_3_1@@QBE?AW4opType@12@XZ 12001271 f i Op.obj
 0001:00000271       ?getElementName@XMLElementDecl@xercesc_3_1@@QBEPBVQName@2@XZ 12001271 f i XMLDTDDescription.obj
 0001:00000271       ?getEncodingName@XMLTranscoder@xercesc_3_1@@QBEPB_WXZ 12001271 f i PlatformUtils.obj
 0001:00000271       ?getValueLen@XMLEntityDecl@xercesc_3_1@@QBEKXZ 12001271 f i XMLDTDDescription.obj
 0001:00000271       ?getExpression@XercesXPath@xercesc_3_1@@QAEPA_WXZ 12001271 f i XMLGrammarPoolImpl.obj
 0001:00000271       ?getSchemaLocation@XMLResourceIdentifier@xercesc_3_1@@QBEPB_WXZ 12001271 f i DGXMLScanner.obj
 0001:00000271       ?getElementName@IdentityConstraint@xercesc_3_1@@QBEPA_WXZ 12001271 f i XMLElementDecl.obj
 0001:00000271       ?getIdentityConstraint@ValueStore@xercesc_3_1@@QBEPAVIdentityConstraint@2@XZ 12001271 f i IGXMLScanner2.obj
 0001:00000271       ?getCode@XMLException@xercesc_3_1@@QBE?AW4Codes@XMLExcepts@2@XZ 12001271 f i Base64.obj
 0001:00000271       ?getLen@CharBuffer@xercesc_3_1@@QBEKXZ 12001271 f i BinHTTPInputStreamCommon.obj
 0001:00000271       ?getNameSpaceId@XMLNotationDecl@xercesc_3_1@@QBEIXZ 12001271 f i XMLDTDDescription.obj
 0001:00000271       ?getCategories@RangeTokenMap@xercesc_3_1@@IBEPAVXMLStringPool@2@XZ 12001271 f i ASCIIRangeFactory.obj
 0001:00000275       ?getDocument@DOMRangeImpl@xercesc_3_1@@QAEPAVDOMDocument@2@XZ 12001275 f i DOMRangeImpl.obj
 0001:00000275       ?getValue@XMLAttDef@xercesc_3_1@@QBEPB_WXZ 12001275 f i XMLAttDef.obj
 0001:00000275       ?getBufSize@XSerializeEngine@xercesc_3_1@@QBEKXZ 12001275 f i KVStringPair.obj
 0001:00000275       ?getMinOccurs@XSParticle@xercesc_3_1@@QBEKXZ 12001275 f i XSComplexTypeDefinition.obj
 0001:00000275       ?getPath@XMLUri@xercesc_3_1@@QBEPB_WXZ 12001275 f i XMLString.obj
 0001:00000275       ?getContentHandler@SAX2XMLFilterImpl@xercesc_3_1@@UBEPAVContentHandler@2@XZ 12001275 f i SAX2XMLFilterImpl.obj
 0001:00000275       ?getSystemId@XSDLocator@xercesc_3_1@@UBEPB_WXZ 12001275 f i IGXMLScanner2.obj
 0001:00000275       ?getConstraintType@XSAttributeUse@xercesc_3_1@@QBE?AW4VALUE_CONSTRAINT@XSConstants@2@XZ 12001275 f i XSAttributeGroupDefinition.obj
 0001:00000275       ?getParticles@XSModelGroup@xercesc_3_1@@QBEPAV?$RefVectorOf@VXSParticle@xercesc_3_1@@@2@XZ 12001275 f i XSModelGroup.obj
 0001:00000275       ?getAnnotationString@XSAnnotation@xercesc_3_1@@QBEPB_WXZ 12001275 f i XMLGrammarPoolImpl.obj
 0001:00000275       ?getPublicId@XMLEntityDecl@xercesc_3_1@@QBEPB_WXZ 12001275 f i XMLDTDDescription.obj
 0001:00000275       ?getBaseURI@DOMLSInputImpl@xercesc_3_1@@UBEPB_WXZ 12001275 f i DOMImplementationImpl.obj
 0001:00000275       ?getTypeDefinition@XSAttributeDeclaration@xercesc_3_1@@QBEPAVXSSimpleTypeDefinition@2@XZ 12001275 f i PSVIAttributeList.obj
 0001:00000275       ?getGrammarPool@GrammarResolver@xercesc_3_1@@QBEPAVXMLGrammarPool@2@XZ 12001275 f i XMLValidator.obj
 0001:00000275       ?getEnclosingElementName@XMLSchemaDescriptionImpl@xercesc_3_1@@UBEPBVQName@2@XZ 12001275 f i XMLSchemaDescriptionImpl.obj
 0001:00000275       ?getParameterNames@DOMLSParserImpl@xercesc_3_1@@UBEPBVDOMStringList@2@XZ 12001275 f i DOMLSParserImpl.obj
 0001:00000275       ?getMessage@XMLException@xercesc_3_1@@QBEPB_WXZ 12001275 f i Base64.obj
 0001:00000275       ?getIntVal@XMLBigDecimal@xercesc_3_1@@QBEPA_WXZ 12001275 f i XMLAbstractDoubleFloat.obj
 0001:00000275       ?getParameterNames@DOMLSSerializerImpl@xercesc_3_1@@UBEPBVDOMStringList@2@XZ 12001275 f i DOMLSSerializerImpl.obj
 0001:00000275       ?getAttributeDeclRegistry@SchemaGrammar@xercesc_3_1@@QBEPAV?$RefHashTableOf@VXMLAttDef@xercesc_3_1@@UStringHasher@2@@2@XZ 12001275 f i XMLGrammarPoolImpl.obj
 0001:00000275       ?getModelType@DTDElementDecl@xercesc_3_1@@QBE?AW4ModelTypes@12@XZ 12001275 f i XMLElementDecl.obj
 0001:00000275       ?getProcessContents@XSWildcard@xercesc_3_1@@QBE?AW4PROCESS_CONTENTS@12@XZ 12001275 f i XSComplexTypeDefinition.obj
 0001:00000275       ?getLocalPart@QName@xercesc_3_1@@QBEPB_WXZ 12001275 f i QName.obj
 0001:00000275       ?getGrammarDescription@DTDGrammar@xercesc_3_1@@UBEPAVXMLGrammarDescription@2@XZ 12001275 f i DTDGrammar.obj
 0001:00000275       ?getScopeDefined@ComplexTypeInfo@xercesc_3_1@@QBEIXZ 12001275 f i XMLElementDecl.obj
 0001:00000275       ?getAnnotationString@XSAnnotation@xercesc_3_1@@QAEPA_WXZ 12001275 f i XMLGrammarPoolImpl.obj
 0001:00000275       ?getCompleteWildCard@XercesAttGroupInfo@xercesc_3_1@@QBEPAVSchemaAttDef@2@XZ 12001275 f i XMLGrammarPoolImpl.obj
 0001:00000275       ?getLocalPart@QName@xercesc_3_1@@QAEPA_WXZ 12001275 f i QName.obj
 0001:00000275       ?getRelatedData@DOMErrorImpl@xercesc_3_1@@UBEPAXXZ 12001275 f i DOMLSParserImpl.obj
 0001:00000275       ?getSign@XMLAbstractDoubleFloat@xercesc_3_1@@UBEHXZ 12001275 f i XMLAbstractDoubleFloat.obj
 0001:00000275       ?getAnnotation@XSNotationDeclaration@xercesc_3_1@@QBEPAVXSAnnotation@2@XZ 12001275 f i XSModel.obj
 0001:00000275       ?getAttDefCount@DTDAttDefList@xercesc_3_1@@UBEKXZ 12001275 f i DTDAttDefList.obj
 0001:00000275       ?getData2@ModifierOp@xercesc_3_1@@UBEHXZ 12001275 f i Op.obj
 0001:00000275       ?getValue@XMLBigDecimal@xercesc_3_1@@QBEPB_WXZ 12001275 f i XMLAbstractDoubleFloat.obj
 0001:00000275       ?getRefKey@XSIDCDefinition@xercesc_3_1@@QBEPAV12@XZ 12001275 f i XSElementDeclaration.obj
 0001:00000275       ?getGrammar@SchemaValidator@xercesc_3_1@@UBEPAVGrammar@2@XZ 12001275 f i IGXMLScanner.obj
 0001:00000275       ?getScope@XSElementDeclaration@xercesc_3_1@@QBE?AW4SCOPE@XSConstants@2@XZ 12001275 f i PSVIElement.obj
 0001:00000275       ?getType@DatatypeValidator@xercesc_3_1@@QBE?AW4ValidatorType@12@XZ 12001275 f i XMLAttr.obj
 0001:00000275       ?getNamespaceURI@IdentityConstraint@xercesc_3_1@@QBEHXZ 12001275 f i XMLElementDecl.obj
 0001:00000275       ?getTargetNSURIString@SchemaInfo@xercesc_3_1@@QBEPB_WXZ 12001275 f i IGXMLScanner.obj
 0001:00000275       ?getAttributeUses@XSAttributeGroupDefinition@xercesc_3_1@@QAEPAV?$RefVectorOf@VXSAttributeUse@xercesc_3_1@@@2@XZ 12001275 f i XSAttributeGroupDefinition.obj
 0001:00000275       ?getValidity@PSVIItem@xercesc_3_1@@QBE?AW4VALIDITY_STATE@12@XZ 12001275 f i PSVIAttribute.obj
 0001:00000275       ?getBaseURI@DOMNotationImpl@xercesc_3_1@@UBEPB_WXZ 12001275 f i DOMNotationImpl.obj
 0001:00000275       ?getType@ContentSpecNode@xercesc_3_1@@QBE?AW4NodeTypes@12@XZ 12001275 f i XMLGrammarPoolImpl.obj
 0001:00000275       ?getBaseURI@XMLNotationDecl@xercesc_3_1@@QBEPB_WXZ 12001275 f i XMLDTDDescription.obj
 0001:00000275       ?getAttDefCount@SchemaAttDefList@xercesc_3_1@@UBEKXZ 12001275 f i SchemaAttDefList.obj
 0001:00000275       ?getParseContext@RegxParser@xercesc_3_1@@QBE?AW4parserStateContext@12@XZ 12001275 f i ParserForXMLSchema.obj
 0001:00000279       ?getSrcFile@XMLException@xercesc_3_1@@QBEPBDXZ 12001279 f i Base64.obj
 0001:00000287       ?getSrcLine@XMLException@xercesc_3_1@@QBE_KXZ 12001287 f i Base64.obj
 0001:00000287       ?getColumnNumber@DOMLocatorImpl@xercesc_3_1@@UBE_KXZ 12001287 f i DOMLSParserImpl.obj
 0001:00000287       ?getColumnNumber@XSDLocator@xercesc_3_1@@UBE_KXZ 12001287 f i IGXMLScanner2.obj
 0001:00000287       ?getColumnNumber@SAXParseException@xercesc_3_1@@QBE_KXZ 12001287 f i SAXParseException.obj
 0001:0000028e       ?getErrorType@XMLException@xercesc_3_1@@QBE?AW4ErrTypes@XMLErrorReporter@2@XZ 1200128e f i Base64.obj
 0001:000002c4       ??0ArrayIndexOutOfBoundsException@xercesc_3_1@@QAE@QBD_KW4Codes@XMLExcepts@1@PAVMemoryManager@1@@Z 120012c4 f i Base64.obj
 0001:00000304       ??0ArrayIndexOutOfBoundsException@xercesc_3_1@@QAE@ABV01@@Z 12001304 f i Base64.obj
 0001:0000031f       ??0ArrayIndexOutOfBoundsException@xercesc_3_1@@QAE@QBD_KW4Codes@XMLExcepts@1@QB_W333PAVMemoryManager@1@@Z 1200131f f i Base64.obj
 0001:0000036b       ??0ArrayIndexOutOfBoundsException@xercesc_3_1@@QAE@QBD_KW4Codes@XMLExcepts@1@0000PAVMemoryManager@1@@Z 1200136b f i Base64.obj
 0001:000003b7       ??1ArrayIndexOutOfBoundsException@xercesc_3_1@@UAE@XZ 120013b7 f i Base64.obj
 0001:000003c2       ??4ArrayIndexOutOfBoundsException@xercesc_3_1@@QAEAAV01@ABV01@@Z 120013c2 f i Base64.obj
 0001:000003c2       ??4NumberFormatException@xercesc_3_1@@QAEAAV01@ABV01@@Z 120013c2 f i XMLAbstractDoubleFloat.obj
 0001:000003c2       ??4MalformedURLException@xercesc_3_1@@QAEAAV01@ABV01@@Z 120013c2 f i PlatformUtils.obj
 0001:000003c2       ??4XMLPlatformUtilsException@xercesc_3_1@@QAEAAV01@ABV01@@Z 120013c2 f i Base64.obj
 0001:000003c2       ??4NoSuchElementException@xercesc_3_1@@QAEAAV01@ABV01@@Z 120013c2 f i EncodingValidator.obj
 0001:000003c2       ??4NetAccessorException@xercesc_3_1@@QAEAAV01@ABV01@@Z 120013c2 f i PlatformUtils.obj
 0001:000003c2       ??4NullPointerException@xercesc_3_1@@QAEAAV01@ABV01@@Z 120013c2 f i EncodingValidator.obj
 0001:000003c2       ??4UTFDataFormatException@xercesc_3_1@@QAEAAV01@ABV01@@Z 120013c2 f i HeaderDummy.obj
 0001:000003c2       ??4EmptyStackException@xercesc_3_1@@QAEAAV01@ABV01@@Z 120013c2 f i HeaderDummy.obj
 0001:000003c2       ??4UnexpectedEOFException@xercesc_3_1@@QAEAAV01@ABV01@@Z 120013c2 f i HeaderDummy.obj
 0001:000003c2       ??4RuntimeException@xercesc_3_1@@QAEAAV01@ABV01@@Z 120013c2 f i EncodingValidator.obj
 0001:000003c2       ??4InvalidCastException@xercesc_3_1@@QAEAAV01@ABV01@@Z 120013c2 f i HeaderDummy.obj
 0001:000003c2       ??4InvalidDatatypeValueException@xercesc_3_1@@QAEAAV01@ABV01@@Z 120013c2 f i ValidationContextImpl.obj
 0001:000003c2       ??4InvalidDatatypeFacetException@xercesc_3_1@@QAEAAV01@ABV01@@Z 120013c2 f i AbstractNumericFacetValidator.obj
 0001:000003c2       ??4IllegalArgumentException@xercesc_3_1@@QAEAAV01@ABV01@@Z 120013c2 f i EncodingValidator.obj
 0001:000003c2       ??4ParseException@xercesc_3_1@@QAEAAV01@ABV01@@Z 120013c2 f i ParserForXMLSchema.obj
 0001:000003c2       ??4XSerializationException@xercesc_3_1@@QAEAAV01@ABV01@@Z 120013c2 f i KVStringPair.obj
 0001:000003c2       ??4SchemaDateTimeException@xercesc_3_1@@QAEAAV01@ABV01@@Z 120013c2 f i XMLDateTime.obj
 0001:000003c2       ??4UnsupportedEncodingException@xercesc_3_1@@QAEAAV01@ABV01@@Z 120013c2 f i HeaderDummy.obj
 0001:000003c2       ??4IOException@xercesc_3_1@@QAEAAV01@ABV01@@Z 120013c2 f i HeaderDummy.obj
 0001:000003c2       ??4XPathException@xercesc_3_1@@QAEAAV01@ABV01@@Z 120013c2 f i TraverseSchema.obj
 0001:000003c2       ??4TranscodingException@xercesc_3_1@@QAEAAV01@ABV01@@Z 120013c2 f i Base64.obj
 0001:000003d7       ?duplicate@ArrayIndexOutOfBoundsException@xercesc_3_1@@UBEPAVXMLException@2@XZ 120013d7 f i Base64.obj
 0001:0000041b       ?getType@ArrayIndexOutOfBoundsException@xercesc_3_1@@UBEPB_WXZ 1200141b f i Base64.obj
 0001:00000421       ??_EArrayIndexOutOfBoundsException@xercesc_3_1@@UAEPAXI@Z 12001421 f i Base64.obj
 0001:00000472       ??0PanicHandler@xercesc_3_1@@IAE@XZ 12001472 f i Base64.obj
 0001:0000047b       ??1PanicHandler@xercesc_3_1@@UAE@XZ 1200147b f i Base64.obj
 0001:0000047b       ??1DefaultPanicHandler@xercesc_3_1@@UAE@XZ 1200147b f i DefaultPanicHandler.obj
 0001:00000482       ??_EPanicHandler@xercesc_3_1@@UAEPAXI@Z 12001482 f i Base64.obj
 0001:000004cf       ??_EXMLDeleter@xercesc_3_1@@UAEPAXI@Z 120014cf f i Base64.obj
 0001:0000051c       ??0XMLPlatformUtilsException@xercesc_3_1@@QAE@QBD_KW4Codes@XMLExcepts@1@PAVMemoryManager@1@@Z 1200151c f i Base64.obj
 0001:0000055c       ??0XMLPlatformUtilsException@xercesc_3_1@@QAE@ABV01@@Z 1200155c f i Base64.obj
 0001:00000577       ??0XMLPlatformUtilsException@xercesc_3_1@@QAE@QBD_KW4Codes@XMLExcepts@1@QB_W333PAVMemoryManager@1@@Z 12001577 f i Base64.obj
 0001:000005c3       ??0XMLPlatformUtilsException@xercesc_3_1@@QAE@QBD_KW4Codes@XMLExcepts@1@0000PAVMemoryManager@1@@Z 120015c3 f i Base64.obj
 0001:0000060f       ??1XMLPlatformUtilsException@xercesc_3_1@@UAE@XZ 1200160f f i Base64.obj
 0001:0000061a       ?duplicate@XMLPlatformUtilsException@xercesc_3_1@@UBEPAVXMLException@2@XZ 1200161a f i Base64.obj
 0001:0000065e       ?getType@XMLPlatformUtilsException@xercesc_3_1@@UBEPB_WXZ 1200165e f i Base64.obj
 0001:00000664       ??_EXMLPlatformUtilsException@xercesc_3_1@@UAEPAXI@Z 12001664 f i Base64.obj
 0001:000006b5       ?alignPointerForNewBlockAllocation@XMLPlatformUtils@xercesc_3_1@@SAKK@Z 120016b5 f i Base64.obj
 0001:000006ce       ??1XMLDeleter@xercesc_3_1@@UAE@XZ 120016ce f i Base64.obj
 0001:000006d5       ??0XMLDeleter@xercesc_3_1@@IAE@XZ 120016d5 f i Base64.obj
 0001:000006de       ??0XMLBuffer@xercesc_3_1@@QAE@KQAVMemoryManager@1@@Z 120016de f i Base64.obj
 0001:0000071c       ??1XMLBuffer@xercesc_3_1@@QAE@XZ 1200171c f i Base64.obj
 0001:0000072a       ?setFullHandler@XMLBuffer@xercesc_3_1@@QAEXPAVXMLBufferFullHandler@2@K@Z 1200172a f i Base64.obj
 0001:0000075e       ?append@XMLBuffer@xercesc_3_1@@QAEX_W@Z 1200175e f i Base64.obj
 0001:00000786       ?append@XMLBuffer@xercesc_3_1@@QAEXQB_WK@Z 12001786 f i Base64.obj
 0001:000007ce       ?append@XMLBuffer@xercesc_3_1@@QAEXQB_W@Z 120017ce f i Base64.obj
 0001:0000081c       ?set@XMLBuffer@xercesc_3_1@@QAEXQB_WK@Z 1200181c f i Base64.obj
 0001:00000828       ?set@XMLBuffer@xercesc_3_1@@QAEXQB_W@Z 12001828 f i Base64.obj
 0001:00000847       ?getRawBuffer@XMLBuffer@xercesc_3_1@@QBEPB_WXZ 12001847 f i Base64.obj
 0001:00000847       ?getRawBuffer@XMLBuffer@xercesc_3_1@@QAEPA_WXZ 12001847 f i Base64.obj
 0001:00000858       ?reset@XMLBuffer@xercesc_3_1@@QAEXXZ 12001858 f i Base64.obj
 0001:0000085c       ?getInUse@XMLBuffer@xercesc_3_1@@QBE_NXZ 1200185c f i Base64.obj
 0001:0000085c       ?hasDefaults@DOMAttrMapImpl@xercesc_3_1@@UAE_NXZ 1200185c f i AbstractDOMParser.obj
 0001:0000085c       ?getStandardUriConformant@XMLScanner@xercesc_3_1@@QBE_NXZ 1200185c f i XMLValidator.obj
 0001:00000860       ?getResourceIdentifierType@XMLResourceIdentifier@xercesc_3_1@@QBE?AW4ResourceIdentifierType@12@XZ 12001860 f i DGXMLScanner.obj
 0001:00000860       ?getEntity@EndOfEntityException@xercesc_3_1@@QBEABVXMLEntityDecl@2@XZ 12001860 f i DGXMLScanner.obj
 0001:00000860       ?getSign@XMLBigInteger@xercesc_3_1@@QBEHXZ 12001860 f i XMLBigDecimal.obj
 0001:00000860       ?str@TranscodeToStr@xercesc_3_1@@QBEPBEXZ 12001860 f i PlatformUtils.obj
 0001:00000860       ?str@TranscodeFromStr@xercesc_3_1@@QBEPB_WXZ 12001860 f i PlatformUtils.obj
 0001:00000860       ?getMatcherCount@XPathMatcherStack@xercesc_3_1@@QBEKXZ 12001860 f i IGXMLScanner.obj
 0001:00000860       ?intValue@XMLInteger@xercesc_3_1@@QBEHXZ 12001860 f i DFAContentModel.obj
 0001:00000860       ?getLocation@XIncludeLocation@xercesc_3_1@@QAEPB_WXZ 12001860 f i AbstractDOMParser.obj
 0001:00000860       ?getCategoryId@RangeTokenElemMap@xercesc_3_1@@QBEIXZ 12001860 f i ASCIIRangeFactory.obj
 0001:00000860       ?getGroup@XMLCanRepGroup@xercesc_3_1@@QBE?AW4CanRepGroup@12@XZ 12001860 f i XMLGrammarPoolImpl.obj
 0001:00000860       ?getLen@XMLBuffer@xercesc_3_1@@QBEKXZ 12001860 f i Base64.obj
 0001:00000860       ?getEntity@EndOfEntityException@xercesc_3_1@@QAEAAVXMLEntityDecl@2@XZ 12001860 f i DGXMLScanner.obj
 0001:00000860       ?getBufferCount@XMLBufferMgr@xercesc_3_1@@QBEKXZ 12001860 f i XMLBufferMgr.obj
 0001:00000860       ?getEscapeFlags@XMLFormatter@xercesc_3_1@@QBE?AW4EscapeFlags@12@XZ 12001860 f i LocalFileFormatTarget.obj
 0001:00000860       ?getEmptyNamespaceId@ElemStack@xercesc_3_1@@QAEIXZ 12001860 f i XMLValidator.obj
 0001:00000860       ?getTokenRegistry@RangeTokenMap@xercesc_3_1@@IBEPAV?$RefHashTableOf@VRangeTokenElemMap@xercesc_3_1@@UStringHasher@2@@2@XZ 12001860 f i ASCIIRangeFactory.obj
 0001:00000863       ?isEmpty@XMLBuffer@xercesc_3_1@@QBE_NXZ 12001863 f i Base64.obj
 0001:0000086b       ?setInUse@XMLBuffer@xercesc_3_1@@QAEX_N@Z 1200186b f i Base64.obj
 0001:0000086b       ?hasDefaults@DOMAttrMapImpl@xercesc_3_1@@UAEX_N@Z 1200186b f i AbstractDOMParser.obj
 0001:00000878       ??_FXMLBuffer@xercesc_3_1@@QAEXXZ 12001878 f i Base64.obj
 0001:00000889       ??1XMLBufferFullHandler@xercesc_3_1@@UAE@XZ 12001889 f i Base64.obj
 0001:00000890       ??0XMLBufferFullHandler@xercesc_3_1@@QAE@XZ 12001890 f i Base64.obj
 0001:00000899       ??0XMLBufferFullHandler@xercesc_3_1@@QAE@ABV01@@Z 12001899 f i Base64.obj
 0001:000008a4       ??_EXMLBufferFullHandler@xercesc_3_1@@UAEPAXI@Z 120018a4 f i Base64.obj
 0001:000008f1       ?moveChars@XMLString@xercesc_3_1@@SAXQA_WQB_WK@Z 120018f1 f i Base64.obj
 0001:0000090b       ?stringLen@XMLString@xercesc_3_1@@SAKQB_W@Z 1200190b f i Base64.obj
 0001:0000092d       ?replicate@XMLString@xercesc_3_1@@SAPA_WQB_WQAVMemoryManager@2@@Z 1200192d f i Base64.obj
 0001:00000968       ?startsWith@XMLString@xercesc_3_1@@SA_NQB_W0@Z 12001968 f i Base64.obj
 0001:00000989       ?startsWithI@XMLString@xercesc_3_1@@SA_NQB_W0@Z 12001989 f i Base64.obj
 0001:000009aa       ?endsWith@XMLString@xercesc_3_1@@SA_NQB_W0@Z 120019aa f i Base64.obj
 0001:000009d9       ?validateRegion@XMLString@xercesc_3_1@@CA_NQB_WH0HK@Z 120019d9 f i Base64.obj
 0001:00000a1b       ?equals@XMLString@xercesc_3_1@@SA_NPB_W0@Z 12001a1b f i Base64.obj
 0001:00000a6f       ?equalsN@XMLString@xercesc_3_1@@SA_NPB_W0K@Z 12001a6f f i Base64.obj
 0001:00000add       ?equals@XMLString@xercesc_3_1@@SA_NPBD0@Z 12001add f i Base64.obj
 0001:00000b29       ?equalsN@XMLString@xercesc_3_1@@SA_NPBD0K@Z 12001b29 f i Base64.obj
 0001:00000b81       ?lastIndexOf@XMLString@xercesc_3_1@@SAHQB_W_W@Z 12001b81 f i Base64.obj
 0001:00000b9d       ?hash@XMLString@xercesc_3_1@@SAKQB_WK@Z 12001b9d f i Base64.obj
 0001:00000bdf       ?hashN@XMLString@xercesc_3_1@@SAKQB_WKK@Z 12001bdf f i Base64.obj
 0001:00000c1a       ?isXMLLetter@XMLChar1_0@xercesc_3_1@@SA_N_W0@Z 12001c1a f i Base64.obj
 0001:00000c4d       ?isFirstNameChar@XMLChar1_0@xercesc_3_1@@SA_N_W0@Z 12001c4d f i Base64.obj
 0001:00000c6f       ?isFirstNCNameChar@XMLChar1_0@xercesc_3_1@@SA_N_W0@Z 12001c6f f i Base64.obj
 0001:00000c9c       ?isNameChar@XMLChar1_0@xercesc_3_1@@SA_N_W0@Z 12001c9c f i Base64.obj
 0001:00000cbf       ?isNCNameChar@XMLChar1_0@xercesc_3_1@@SA_N_W0@Z 12001cbf f i Base64.obj
 0001:00000cdf       ?isPlainContentChar@XMLChar1_0@xercesc_3_1@@SA_N_W0@Z 12001cdf f i Base64.obj
 0001:00000d21       ?isSpecialStartTagChar@XMLChar1_0@xercesc_3_1@@SA_N_W0@Z 12001d21 f i Base64.obj
 0001:00000d44       ?isXMLChar@XMLChar1_0@xercesc_3_1@@SA_N_W0@Z 12001d44 f i Base64.obj
 0001:00000d86       ?isWhitespace@XMLChar1_0@xercesc_3_1@@SA_N_W@Z 12001d86 f i Base64.obj
 0001:00000d9b       ?isWhitespace@XMLChar1_0@xercesc_3_1@@SA_N_W0@Z 12001d9b f i Base64.obj
 0001:00000dbb       ?isControlChar@XMLChar1_0@xercesc_3_1@@SA_N_W0@Z 12001dbb f i Base64.obj
 0001:00000dde       ?isNELRecognized@XMLPlatformUtils@xercesc_3_1@@SA_NXZ 12001dde f i PlatformUtils.obj
 0001:00000dde       ?isNELRecognized@XMLChar1_0@xercesc_3_1@@SA_NXZ 12001dde f i Base64.obj
 0001:00000de4       ?isXMLLetter@XMLChar1_1@xercesc_3_1@@SA_N_W0@Z 12001de4 f i Base64.obj
 0001:00000ded       ?isFirstNameChar@XMLChar1_1@xercesc_3_1@@SA_N_W0@Z 12001ded f i Base64.obj
 0001:00000e33       ?isFirstNCNameChar@XMLChar1_1@xercesc_3_1@@SA_N_W0@Z 12001e33 f i Base64.obj
 0001:00000e86       ?isNameChar@XMLChar1_1@xercesc_3_1@@SA_N_W0@Z 12001e86 f i Base64.obj
 0001:00000ecd       ?isNCNameChar@XMLChar1_1@xercesc_3_1@@SA_N_W0@Z 12001ecd f i Base64.obj
 0001:00000f11       ?isPlainContentChar@XMLChar1_1@xercesc_3_1@@SA_N_W0@Z 12001f11 f i Base64.obj
 0001:00000f53       ?isSpecialStartTagChar@XMLChar1_1@xercesc_3_1@@SA_N_W0@Z 12001f53 f i Base64.obj
 0001:00000f76       ?isXMLChar@XMLChar1_1@xercesc_3_1@@SA_N_W0@Z 12001f76 f i Base64.obj
 0001:00000fb8       ?isWhitespace@XMLChar1_1@xercesc_3_1@@SA_N_W0@Z 12001fb8 f i Base64.obj
 0001:00000fd8       ?isControlChar@XMLChar1_1@xercesc_3_1@@SA_N_W0@Z 12001fd8 f i Base64.obj
 0001:00000ffb       ??0TranscodingException@xercesc_3_1@@QAE@QBD_KW4Codes@XMLExcepts@1@PAVMemoryManager@1@@Z 12001ffb f i Base64.obj
 0001:0000103b       ??0TranscodingException@xercesc_3_1@@QAE@ABV01@@Z 1200203b f i Base64.obj
 0001:00001056       ??0TranscodingException@xercesc_3_1@@QAE@QBD_KW4Codes@XMLExcepts@1@QB_W333PAVMemoryManager@1@@Z 12002056 f i Base64.obj
 0001:000010a2       ??0TranscodingException@xercesc_3_1@@QAE@QBD_KW4Codes@XMLExcepts@1@0000PAVMemoryManager@1@@Z 120020a2 f i Base64.obj
 0001:000010ee       ??1TranscodingException@xercesc_3_1@@UAE@XZ 120020ee f i Base64.obj
 0001:000010f9       ?duplicate@TranscodingException@xercesc_3_1@@UBEPAVXMLException@2@XZ 120020f9 f i Base64.obj
 0001:0000113d       ?getType@TranscodingException@xercesc_3_1@@UBEPB_WXZ 1200213d f i Base64.obj
 0001:00001143       ??_ETranscodingException@xercesc_3_1@@UAEPAXI@Z 12002143 f i Base64.obj
 0001:00001194       ?isNameChar@XMLReader@xercesc_3_1@@QBE_N_W@Z 12002194 f i Base64.obj
 0001:000011b1       ?isNCNameChar@XMLReader@xercesc_3_1@@QBE_N_W@Z 120021b1 f i Base64.obj
 0001:000011cb       ?isPlainContentChar@XMLReader@xercesc_3_1@@QBE_N_W@Z 120021cb f i Base64.obj
 0001:000011e8       ?isFirstNameChar@XMLReader@xercesc_3_1@@QBE_N_W@Z 120021e8 f i Base64.obj
 0001:00001204       ?isFirstNCNameChar@XMLReader@xercesc_3_1@@QBE_N_W@Z 12002204 f i Base64.obj
 0001:0000122d       ?isSpecialStartTagChar@XMLReader@xercesc_3_1@@QBE_N_W@Z 1200222d f i Base64.obj
 0001:0000124a       ?isXMLChar@XMLReader@xercesc_3_1@@QBE_N_W@Z 1200224a f i Base64.obj
 0001:00001267       ?isXMLLetter@XMLReader@xercesc_3_1@@QBE_N_W@Z 12002267 f i Base64.obj
 0001:00001296       ?isWhitespace@XMLReader@xercesc_3_1@@QBE_N_W@Z 12002296 f i Base64.obj
 0001:000012b0       ?isControlChar@XMLReader@xercesc_3_1@@QBE_N_W@Z 120022b0 f i Base64.obj
 0001:000012cd       ?charsLeftInBuffer@XMLReader@xercesc_3_1@@QBEKXZ 120022cd f i Base64.obj
 0001:000012d6       ?getColumnNumber@XMLReader@xercesc_3_1@@QBE_KXZ 120022d6 f i Base64.obj
 0001:000012e3       ?getEncodingStr@XMLReader@xercesc_3_1@@QBEPB_WXZ 120022e3 f i Base64.obj
 0001:000012ea       ?getLineNumber@XMLReader@xercesc_3_1@@QBE_KXZ 120022ea f i Base64.obj
 0001:000012f7       ?getNoMoreFlag@XMLReader@xercesc_3_1@@QBE_NXZ 120022f7 f i Base64.obj
 0001:000012fe       ?getPublicId@XMLReader@xercesc_3_1@@QBEPB_WXZ 120022fe f i Base64.obj
 0001:00001305       ?getReaderNum@XMLReader@xercesc_3_1@@QBEKXZ 12002305 f i Base64.obj
 0001:0000130c       ?getRefFrom@XMLReader@xercesc_3_1@@QBE?AW4RefFrom@12@XZ 1200230c f i Base64.obj
 0001:00001313       ?getSource@XMLReader@xercesc_3_1@@QBE?AW4Sources@12@XZ 12002313 f i Base64.obj
 0001:0000131a       ?getSystemId@XMLReader@xercesc_3_1@@QBEPB_WXZ 1200231a f i Base64.obj
 0001:00001321       ?getThrowAtEnd@XMLReader@xercesc_3_1@@QBE_NXZ 12002321 f i Base64.obj
 0001:00001328       ?getType@XMLReader@xercesc_3_1@@QBE?AW4Types@12@XZ 12002328 f i Base64.obj
 0001:0000132f       ?setReaderNum@XMLReader@xercesc_3_1@@QAEXK@Z 1200232f f i Base64.obj
 0001:0000133f       ?setThrowAtEnd@XMLReader@xercesc_3_1@@QAEX_N@Z 1200233f f i Base64.obj
 0001:0000134f       ?setXMLVersion@XMLReader@xercesc_3_1@@QAEXW4XMLVersion@12@@Z 1200234f f i Base64.obj
 0001:0000138b       ?movePlainContentChars@XMLReader@xercesc_3_1@@QAEXAAVXMLBuffer@2@@Z 1200238b f i Base64.obj
 0001:000013f0       ?getNextCharIfNot@XMLReader@xercesc_3_1@@QAE_N_WAA_W@Z 120023f0 f i Base64.obj
 0001:0000145c       ?getNextChar@XMLReader@xercesc_3_1@@QAE_NAA_W@Z 1200245c f i Base64.obj
 0001:000014c2       ?peekNextChar@XMLReader@xercesc_3_1@@QAE_NAA_W@Z 120024c2 f i Base64.obj
 0001:00001552       ?encode@Base64@xercesc_3_1@@SAPAEQBEKPAKQAVMemoryManager@2@@Z 12002552 f   Base64.obj
 0001:0000171d       ?getDataLength@Base64@xercesc_3_1@@SAHQB_WQAVMemoryManager@2@W4Conformance@12@@Z 1200271d f   Base64.obj
 0001:00001754       ?decode@Base64@xercesc_3_1@@SAPAEQBEPAKQAVMemoryManager@2@W4Conformance@12@@Z 12002754 f   Base64.obj
 0001:0000178d       ?decodeToXMLByte@Base64@xercesc_3_1@@SAPAEQB_WPAKQAVMemoryManager@2@W4Conformance@12@@Z 1200278d f   Base64.obj
 0001:00001817       ?getCanonicalRepresentation@Base64@xercesc_3_1@@SAPA_WQB_WQAVMemoryManager@2@W4Conformance@12@@Z 12002817 f   Base64.obj
 0001:0000190a       ?decode@Base64@xercesc_3_1@@CAPAEQBEPAKAAPAEQAVMemoryManager@2@W4Conformance@12@@Z 1200290a f   Base64.obj
 0001:00001baa       ?isData@Base64@xercesc_3_1@@CA_NABE@Z 12002baa f   Base64.obj
 0001:00001bc1       ??1?$ArrayJanitor@E@xercesc_3_1@@QAE@XZ 12002bc1 f i Base64.obj
 0001:00001be9       ??_EBinFileInputStream@xercesc_3_1@@UAEPAXI@Z 12002be9 f i BinFileInputStream.obj
 0001:00001c34       ?getIsOpen@BinFileInputStream@xercesc_3_1@@QBE_NXZ 12002c34 f i BinFileInputStream.obj
 0001:00001c34       ?getIsOpen@BinFileOutputStream@xercesc_3_1@@QBE_NXZ 12002c34 f i BinFileOutputStream.obj
 0001:00001c3d       ??0BinFileInputStream@xercesc_3_1@@QAE@QB_WQAVMemoryManager@1@@Z 12002c3d f   BinFileInputStream.obj
 0001:00001c76       ??0BinFileInputStream@xercesc_3_1@@QAE@QBDQAVMemoryManager@1@@Z 12002c76 f   BinFileInputStream.obj
 0001:00001caf       ??0BinFileInputStream@xercesc_3_1@@QAE@QAXQAVMemoryManager@1@@Z 12002caf f   BinFileInputStream.obj
 0001:00001cca       ??1BinFileInputStream@xercesc_3_1@@UAE@XZ 12002cca f   BinFileInputStream.obj
 0001:00001d13       ?getSize@BinFileInputStream@xercesc_3_1@@QBE_KXZ 12002d13 f   BinFileInputStream.obj
 0001:00001d13       ?getSize@BinFileOutputStream@xercesc_3_1@@QBE_KXZ 12002d13 f   BinFileOutputStream.obj
 0001:00001d21       ?reset@BinFileOutputStream@xercesc_3_1@@QAEXXZ 12002d21 f   BinFileOutputStream.obj
 0001:00001d21       ?reset@BinFileInputStream@xercesc_3_1@@QAEXXZ 12002d21 f   BinFileInputStream.obj
 0001:00001d2f       ?curPos@BinFileInputStream@xercesc_3_1@@UBE_KXZ 12002d2f f   BinFileInputStream.obj
 0001:00001d2f       ?curPos@BinFileOutputStream@xercesc_3_1@@UBE_KXZ 12002d2f f   BinFileOutputStream.obj
 0001:00001d3d       ?readBytes@BinFileInputStream@xercesc_3_1@@UAEKQAEK@Z 12002d3d f   BinFileInputStream.obj
 0001:00001d58       ?getFirstChild@DOMNotationImpl@xercesc_3_1@@UBEPAVDOMNode@2@XZ 12002d58 f   DOMNotationImpl.obj
 0001:00001d58       ?getLastChild@DOMNodeImpl@xercesc_3_1@@QBEPAVDOMNode@2@XZ 12002d58 f   DOMNodeImpl.obj
 0001:00001d58       ?getPrefix@DOMDocumentTypeImpl@xercesc_3_1@@UBEPB_WXZ 12002d58 f   DOMDocumentTypeImpl.obj
 0001:00001d58       ?getSystemId@XMLDTDDescription@xercesc_3_1@@UBEPB_WXZ 12002d58 f   XMLDTDDescription.obj
 0001:00001d58       ?getParentNode@DOMAttrImpl@xercesc_3_1@@UBEPAVDOMNode@2@XZ 12002d58 f   DOMAttrImpl.obj
 0001:00001d58       ?getPrefix@DOMDocumentFragmentImpl@xercesc_3_1@@UBEPB_WXZ 12002d58 f   DOMDocumentFragmentImpl.obj
 0001:00001d58       ?getPrefix@DOMEntityImpl@xercesc_3_1@@UBEPB_WXZ 12002d58 f   DOMEntityImpl.obj
 0001:00001d58       ?getAttributes@DOMNotationImpl@xercesc_3_1@@UBEPAVDOMNamedNodeMap@2@XZ 12002d58 f   DOMNotationImpl.obj
 0001:00001d58       ?getContentType@BinMemInputStream@xercesc_3_1@@UBEPB_WXZ 12002d58 f   BinMemInputStream.obj
 0001:00001d58       ?getNextSibling@DOMNodeImpl@xercesc_3_1@@QBEPAVDOMNode@2@XZ 12002d58 f   DOMNodeImpl.obj
 0001:00001d58       ?getLocalName@DOMDocumentFragmentImpl@xercesc_3_1@@UBEPB_WXZ 12002d58 f   DOMDocumentFragmentImpl.obj
 0001:00001d58       ?getSign@XMLDateTime@xercesc_3_1@@UBEHXZ 12002d58 f   XMLDateTime.obj
 0001:00001d58       ?getAttributes@DOMTextImpl@xercesc_3_1@@UBEPAVDOMNamedNodeMap@2@XZ 12002d58 f   DOMTextImpl.obj
 0001:00001d58       ?getNamespaceItem@XSObject@xercesc_3_1@@UAEPAVXSNamespaceItem@2@XZ 12002d58 f   XSObject.obj
 0001:00001d58       ?getNodeValue@DOMDocumentImpl@xercesc_3_1@@UBEPB_WXZ 12002d58 f   DOMDocumentImpl.obj
 0001:00001d58       ?getPreviousSibling@DOMDocumentFragmentImpl@xercesc_3_1@@UBEPAVDOMNode@2@XZ 12002d58 f   DOMDocumentFragmentImpl.obj
 0001:00001d58       ?getNamespaceURI@DOMTextImpl@xercesc_3_1@@UBEPB_WXZ 12002d58 f   DOMTextImpl.obj
 0001:00001d58       ?getPreviousSibling@DOMEntityImpl@xercesc_3_1@@UBEPAVDOMNode@2@XZ 12002d58 f   DOMEntityImpl.obj
 0001:00001d58       ?getNodeValue@DOMNodeImpl@xercesc_3_1@@QBEPB_WXZ 12002d58 f   DOMNodeImpl.obj
 0001:00001d58       ?getLocalName@DOMCommentImpl@xercesc_3_1@@UBEPB_WXZ 12002d58 f   DOMCommentImpl.obj
 0001:00001d58       ?getParentNode@DOMNotationImpl@xercesc_3_1@@UBEPAVDOMNode@2@XZ 12002d58 f   DOMNotationImpl.obj
 0001:00001d58       ?getPreviousSibling@DOMNodeImpl@xercesc_3_1@@QBEPAVDOMNode@2@XZ 12002d58 f   DOMNodeImpl.obj
 0001:00001d58       ?getLocalName@DOMNodeImpl@xercesc_3_1@@QBEPB_WXZ 12002d58 f   DOMNodeImpl.obj
 0001:00001d58       ?getRelatedException@DOMErrorImpl@xercesc_3_1@@UBEPAXXZ 12002d58 f   DOMLSParserImpl.obj
 0001:00001d58       ?createObject@XMLDTDDescription@xercesc_3_1@@SAPAVXSerializable@2@PAVMemoryManager@2@@Z 12002d58 f   XMLDTDDescription.obj
 0001:00001d58       ?getReferenceNo@Token@xercesc_3_1@@UBEHXZ 12002d58 f   ASCIIRangeFactory.obj
 0001:00001d58       ?getType@IC_Unique@xercesc_3_1@@UBEFXZ 12002d58 f   TraverseSchema.obj
 0001:00001d58       ?getAttributes@DOMCDATASectionImpl@xercesc_3_1@@UBEPAVDOMNamedNodeMap@2@XZ 12002d58 f   DOMCDATASectionImpl.obj
 0001:00001d58       ?getParentNode@DOMDocumentImpl@xercesc_3_1@@UBEPAVDOMNode@2@XZ 12002d58 f   DOMDocumentImpl.obj
 0001:00001d58       ?getNextSibling@DOMAttrImpl@xercesc_3_1@@UBEPAVDOMNode@2@XZ 12002d58 f   DOMAttrImpl.obj
 0001:00001d58       ?getGrammarType@DTDGrammar@xercesc_3_1@@UBE?AW4GrammarType@Grammar@2@XZ 12002d58 f   XMLGrammarPoolImpl.obj
 0001:00001d58       ?getParentNode@DOMDocumentFragmentImpl@xercesc_3_1@@UBEPAVDOMNode@2@XZ 12002d58 f   DOMDocumentFragmentImpl.obj
 0001:00001d58       ?getNamespaceURI@DOMEntityImpl@xercesc_3_1@@UBEPB_WXZ 12002d58 f   DOMEntityImpl.obj
 0001:00001d58       ?createObject@Grammar@xercesc_3_1@@SAPAVXSerializable@2@PAVMemoryManager@2@@Z 12002d58 f   Grammar.obj
 0001:00001d58       ?getStringData@Wrapper4InputSource@xercesc_3_1@@UBEPB_WXZ 12002d58 f   Wrapper4InputSource.obj
 0001:00001d58       ?getFirstChild@DOMCommentImpl@xercesc_3_1@@UBEPAVDOMNode@2@XZ 12002d58 f   DOMCommentImpl.obj
 0001:00001d58       ?getContentLeafNameTypeVector@AllContentModel@xercesc_3_1@@UBEPAVContentLeafNameTypeVector@2@XZ 12002d58 f   AllContentModel.obj
 0001:00001d58       ?createObject@XMLGrammarDescription@xercesc_3_1@@SAPAVXSerializable@2@PAVMemoryManager@2@@Z 12002d58 f   XMLGrammarDescription.obj
 0001:00001d58       ?getAttributes@DOMEntityReferenceImpl@xercesc_3_1@@UBEPAVDOMNamedNodeMap@2@XZ 12002d58 f   DOMEntityReferenceImpl.obj
 0001:00001d58       ?getContentLeafNameTypeVector@MixedContentModel@xercesc_3_1@@UBEPAVContentLeafNameTypeVector@2@XZ 12002d58 f   MixedContentModel.obj
 0001:00001d58       ?getLastChild@DOMCDATASectionImpl@xercesc_3_1@@UBEPAVDOMNode@2@XZ 12002d58 f   DOMCDATASectionImpl.obj
 0001:00001d58       ?getEntityDeclPool@SGXMLScanner@xercesc_3_1@@UBEPBV?$NameIdPool@VDTDEntityDecl@xercesc_3_1@@@2@XZ 12002d58 f   SGXMLScanner.obj
 0001:00001d58       ?getLocalName@DOMElementImpl@xercesc_3_1@@UBEPB_WXZ 12002d58 f   DOMElementImpl.obj
 0001:00001d58       ?getLexicalHandler@SAX2XMLFilterImpl@xercesc_3_1@@UBEPAVLexicalHandler@2@XZ 12002d58 f   SAX2XMLFilterImpl.obj
 0001:00001d58       ?getPrefix@DOMEntityReferenceImpl@xercesc_3_1@@UBEPB_WXZ 12002d58 f   DOMEntityReferenceImpl.obj
 0001:00001d58       ?getGrammarType@XMLDTDDescription@xercesc_3_1@@UBE?AW4GrammarType@Grammar@2@XZ 12002d58 f   XMLDTDDescription.obj
 0001:00001d58       ?getObjectType@SchemaElementDecl@xercesc_3_1@@UBE?AW4objectType@XMLElementDecl@2@XZ 12002d58 f   SchemaElementDecl.obj
 0001:00001d58       ?getString@Token@xercesc_3_1@@UBEPB_WXZ 12002d58 f   ASCIIRangeFactory.obj
 0001:00001d58       ?getPreviousSibling@DOMNotationImpl@xercesc_3_1@@UBEPAVDOMNode@2@XZ 12002d58 f   DOMNotationImpl.obj
 0001:00001d58       ?getAttributes@DOMDocumentFragmentImpl@xercesc_3_1@@UBEPAVDOMNamedNodeMap@2@XZ 12002d58 f   DOMDocumentFragmentImpl.obj
 0001:00001d58       ?getLocalName@DOMAttrImpl@xercesc_3_1@@UBEPB_WXZ 12002d58 f   DOMAttrImpl.obj
 0001:00001d58       ?getPrefix@DOMCommentImpl@xercesc_3_1@@UBEPB_WXZ 12002d58 f   DOMCommentImpl.obj
 0001:00001d58       ?createObject@XMLAttDef@xercesc_3_1@@SAPAVXSerializable@2@PAVMemoryManager@2@@Z 12002d58 f   XMLAttDef.obj
 0001:00001d58       ?getFirstChild@DOMNodeImpl@xercesc_3_1@@QBEPAVDOMNode@2@XZ 12002d58 f   DOMNodeImpl.obj
 0001:00001d58       ?getEnumString@BooleanDatatypeValidator@xercesc_3_1@@UBEPBV?$RefArrayVectorOf@_W@2@XZ 12002d58 f   BooleanDatatypeValidator.obj
 0001:00001d58       ?getLocalName@DOMProcessingInstructionImpl@xercesc_3_1@@UBEPB_WXZ 12002d58 f   DOMProcessingInstructionImpl.obj
 0001:00001d58       ?getNamespaceURI@DOMCommentImpl@xercesc_3_1@@UBEPB_WXZ 12002d58 f   DOMCommentImpl.obj
 0001:00001d58       ?getNextSibling@DOMEntityImpl@xercesc_3_1@@UBEPAVDOMNode@2@XZ 12002d58 f   DOMEntityImpl.obj
 0001:00001d58       ?getDeclarationHandler@SAX2XMLFilterImpl@xercesc_3_1@@UBEPAVDeclHandler@2@XZ 12002d58 f   SAX2XMLFilterImpl.obj
 0001:00001d58       ?getLastChild@DOMTextImpl@xercesc_3_1@@UBEPAVDOMNode@2@XZ 12002d58 f   DOMTextImpl.obj
 0001:00001d58       ?createObject@XMLEntityDecl@xercesc_3_1@@SAPAVXSerializable@2@PAVMemoryManager@2@@Z 12002d58 f   XMLEntityDecl.obj
 0001:00001d58       ?getNamespaceURI@DOMDocumentFragmentImpl@xercesc_3_1@@UBEPB_WXZ 12002d58 f   DOMDocumentFragmentImpl.obj
 0001:00001d58       ?getOwnerDocument@DOMDocumentImpl@xercesc_3_1@@UBEPAVDOMDocument@2@XZ 12002d58 f   DOMDocumentImpl.obj
 0001:00001d58       ?getPrefix@DOMNotationImpl@xercesc_3_1@@UBEPB_WXZ 12002d58 f   DOMNotationImpl.obj
 0001:00001d58       ?getNodeValue@DOMEntityImpl@xercesc_3_1@@UBEPB_WXZ 12002d58 f   DOMEntityImpl.obj
 0001:00001d58       ?getNextSibling@DOMDocumentFragmentImpl@xercesc_3_1@@UBEPAVDOMNode@2@XZ 12002d58 f   DOMDocumentFragmentImpl.obj
 0001:00001d58       ?getEntityDeclPool@WFXMLScanner@xercesc_3_1@@UAEPAV?$NameIdPool@VDTDEntityDecl@xercesc_3_1@@@2@XZ 12002d58 f   WFXMLScanner.obj
 0001:00001d58       ?getAttributes@DOMCommentImpl@xercesc_3_1@@UBEPAVDOMNamedNodeMap@2@XZ 12002d58 f   DOMCommentImpl.obj
 0001:00001d58       ?getLocalName@DOMDocumentTypeImpl@xercesc_3_1@@UBEPB_WXZ 12002d58 f   DOMDocumentTypeImpl.obj
 0001:00001d58       ?getPrefix@DOMCDATASectionImpl@xercesc_3_1@@UBEPB_WXZ 12002d58 f   DOMCDATASectionImpl.obj
 0001:00001d58       ?getEntityDeclPool@SGXMLScanner@xercesc_3_1@@UAEPAV?$NameIdPool@VDTDEntityDecl@xercesc_3_1@@@2@XZ 12002d58 f   SGXMLScanner.obj
 0001:00001d58       ?getNodeValue@DOMEntityReferenceImpl@xercesc_3_1@@UBEPB_WXZ 12002d58 f   DOMEntityReferenceImpl.obj
 0001:00001d58       ?getAttributes@DOMAttrImpl@xercesc_3_1@@UBEPAVDOMNamedNodeMap@2@XZ 12002d58 f   DOMAttrImpl.obj
 0001:00001d58       ?getPrefix@DOMTextImpl@xercesc_3_1@@UBEPB_WXZ 12002d58 f   DOMTextImpl.obj
 0001:00001d58       ?getLocalName@DOMNotationImpl@xercesc_3_1@@UBEPB_WXZ 12002d58 f   DOMNotationImpl.obj
 0001:00001d58       ?getNamespaceURI@DOMElementImpl@xercesc_3_1@@UBEPB_WXZ 12002d58 f   DOMElementImpl.obj
 0001:00001d58       ?getNamespaceURI@DOMDocumentImpl@xercesc_3_1@@UBEPB_WXZ 12002d58 f   DOMDocumentImpl.obj
 0001:00001d58       ?size@Token@xercesc_3_1@@UBEKXZ 12002d58 f   ASCIIRangeFactory.obj
 0001:00001d58       ?createObject@AbstractNumericFacetValidator@xercesc_3_1@@SAPAVXSerializable@2@PAVMemoryManager@2@@Z 12002d58 f   AbstractNumericFacetValidator.obj
 0001:00001d58       ?getAttributes@DOMDocumentImpl@xercesc_3_1@@UBEPAVDOMNamedNodeMap@2@XZ 12002d58 f   DOMDocumentImpl.obj
 0001:00001d58       ?getNamespaceURI@DOMNodeImpl@xercesc_3_1@@QBEPB_WXZ 12002d58 f   DOMNodeImpl.obj
 0001:00001d58       ?getPrefix@DOMAttrImpl@xercesc_3_1@@UBEPB_WXZ 12002d58 f   DOMAttrImpl.obj
 0001:00001d58       ?getPrefix@DOMElementImpl@xercesc_3_1@@UBEPB_WXZ 12002d58 f   DOMElementImpl.obj
 0001:00001d58       ?getNamespaceURI@DOMNotationImpl@xercesc_3_1@@UBEPB_WXZ 12002d58 f   DOMNotationImpl.obj
 0001:00001d58       ?getNodeValue@DOMDocumentTypeImpl@xercesc_3_1@@UBEPB_WXZ 12002d58 f   DOMDocumentTypeImpl.obj
 0001:00001d58       ?getFirstChild@DOMCDATASectionImpl@xercesc_3_1@@UBEPAVDOMNode@2@XZ 12002d58 f   DOMCDATASectionImpl.obj
 0001:00001d58       ?getLocalName@DOMEntityImpl@xercesc_3_1@@UBEPB_WXZ 12002d58 f   DOMEntityImpl.obj
 0001:00001d58       ?getFirstChild@DOMTextImpl@xercesc_3_1@@UBEPAVDOMNode@2@XZ 12002d58 f   DOMTextImpl.obj
 0001:00001d58       ?createObject@DateTimeValidator@xercesc_3_1@@SAPAVXSerializable@2@PAVMemoryManager@2@@Z 12002d58 f   DateTimeValidator.obj
 0001:00001d58       ?getLastChild@DOMCommentImpl@xercesc_3_1@@UBEPAVDOMNode@2@XZ 12002d58 f   DOMCommentImpl.obj
 0001:00001d58       ?getPrefix@DOMProcessingInstructionImpl@xercesc_3_1@@UBEPB_WXZ 12002d58 f   DOMProcessingInstructionImpl.obj
 0001:00001d58       ?createObject@AbstractNumericValidator@xercesc_3_1@@SAPAVXSerializable@2@PAVMemoryManager@2@@Z 12002d58 f   AbstractNumericValidator.obj
 0001:00001d58       ?getNextSibling@DOMNotationImpl@xercesc_3_1@@UBEPAVDOMNode@2@XZ 12002d58 f   DOMNotationImpl.obj
 0001:00001d58       ?getEnumString@AnySimpleTypeDatatypeValidator@xercesc_3_1@@UBEPBV?$RefArrayVectorOf@_W@2@XZ 12002d58 f   AnySimpleTypeDatatypeValidator.obj
 0001:00001d58       ?getFirstChild@DOMProcessingInstructionImpl@xercesc_3_1@@UBEPAVDOMNode@2@XZ 12002d58 f   DOMProcessingInstructionImpl.obj
 0001:00001d58       ?getPrefix@DOMDocumentImpl@xercesc_3_1@@UBEPB_WXZ 12002d58 f   DOMDocumentImpl.obj
 0001:00001d58       ?getNodeValue@DOMElementImpl@xercesc_3_1@@UBEPB_WXZ 12002d58 f   DOMElementImpl.obj
 0001:00001d58       ?getEntityDeclPool@WFXMLScanner@xercesc_3_1@@UBEPBV?$NameIdPool@VDTDEntityDecl@xercesc_3_1@@@2@XZ 12002d58 f   WFXMLScanner.obj
 0001:00001d58       ?getNodeValue@DOMNotationImpl@xercesc_3_1@@UBEPB_WXZ 12002d58 f   DOMNotationImpl.obj
 0001:00001d58       ?getPreviousSibling@DOMDocumentImpl@xercesc_3_1@@UBEPAVDOMNode@2@XZ 12002d58 f   DOMDocumentImpl.obj
 0001:00001d58       ?getLocalName@DOMTextImpl@xercesc_3_1@@UBEPB_WXZ 12002d58 f   DOMTextImpl.obj
 0001:00001d58       ?getLastChild@DOMProcessingInstructionImpl@xercesc_3_1@@UBEPAVDOMNode@2@XZ 12002d58 f   DOMProcessingInstructionImpl.obj
 0001:00001d58       ?createObject@DatatypeValidator@xercesc_3_1@@SAPAVXSerializable@2@PAVMemoryManager@2@@Z 12002d58 f   DatatypeValidator.obj
 0001:00001d58       ?getAttributes@DOMEntityImpl@xercesc_3_1@@UBEPAVDOMNamedNodeMap@2@XZ 12002d58 f   DOMEntityImpl.obj
 0001:00001d58       ?getParentNode@DOMEntityImpl@xercesc_3_1@@UBEPAVDOMNode@2@XZ 12002d58 f   DOMEntityImpl.obj
 0001:00001d58       ?createObject@AbstractStringValidator@xercesc_3_1@@SAPAVXSerializable@2@PAVMemoryManager@2@@Z 12002d58 f   AbstractStringValidator.obj
 0001:00001d58       ?getParentNode@DOMNodeImpl@xercesc_3_1@@QBEPAVDOMNode@2@XZ 12002d58 f   DOMNodeImpl.obj
 0001:00001d58       ?getAttributes@DOMDocumentTypeImpl@xercesc_3_1@@UBEPAVDOMNamedNodeMap@2@XZ 12002d58 f   DOMDocumentTypeImpl.obj
 0001:00001d58       ?createObject@XMLAbstractDoubleFloat@xercesc_3_1@@SAPAVXSerializable@2@PAVMemoryManager@2@@Z 12002d58 f   XMLAbstractDoubleFloat.obj
 0001:00001d58       ?getNamespaceURI@DOMDocumentTypeImpl@xercesc_3_1@@UBEPB_WXZ 12002d58 f   DOMDocumentTypeImpl.obj
 0001:00001d58       ?getAttributes@DOMProcessingInstructionImpl@xercesc_3_1@@UBEPAVDOMNamedNodeMap@2@XZ 12002d58 f   DOMProcessingInstructionImpl.obj
 0001:00001d58       ?getNamespaceURI@DOMAttrImpl@xercesc_3_1@@UBEPB_WXZ 12002d58 f   DOMAttrImpl.obj
 0001:00001d58       ?getAttributes@DOMNodeImpl@xercesc_3_1@@QBEPAVDOMNamedNodeMap@2@XZ 12002d58 f   DOMNodeImpl.obj
 0001:00001d58       ?getNodeValue@DOMDocumentFragmentImpl@xercesc_3_1@@UBEPB_WXZ 12002d58 f   DOMDocumentFragmentImpl.obj
 0001:00001d58       ?getNamespaceURI@DOMCDATASectionImpl@xercesc_3_1@@UBEPB_WXZ 12002d58 f   DOMCDATASectionImpl.obj
 0001:00001d58       ?getPreviousSibling@DOMAttrImpl@xercesc_3_1@@UBEPAVDOMNode@2@XZ 12002d58 f   DOMAttrImpl.obj
 0001:00001d58       ?getNamespaceURI@DOMEntityReferenceImpl@xercesc_3_1@@UBEPB_WXZ 12002d58 f   DOMEntityReferenceImpl.obj
 0001:00001d58       ?getLastChild@DOMNotationImpl@xercesc_3_1@@UBEPAVDOMNode@2@XZ 12002d58 f   DOMNotationImpl.obj
 0001:00001d58       ?getNamespace@XSObject@xercesc_3_1@@UAEPB_WXZ 12002d58 f   XSObject.obj
 0001:00001d58       ?getLocalName@DOMEntityReferenceImpl@xercesc_3_1@@UBEPB_WXZ 12002d58 f   DOMEntityReferenceImpl.obj
 0001:00001d58       ?getLocalName@DOMCDATASectionImpl@xercesc_3_1@@UBEPB_WXZ 12002d58 f   DOMCDATASectionImpl.obj
 0001:00001d58       ?getName@XSObject@xercesc_3_1@@UBEPB_WXZ 12002d58 f   XSObject.obj
 0001:00001d58       ?createObject@XMLElementDecl@xercesc_3_1@@SAPAVXSerializable@2@PAVMemoryManager@2@@Z 12002d58 f   XMLElementDecl.obj
 0001:00001d58       ?getNamespaceURI@DOMProcessingInstructionImpl@xercesc_3_1@@UBEPB_WXZ 12002d58 f   DOMProcessingInstructionImpl.obj
 0001:00001d58       ?getPrefix@DOMNodeImpl@xercesc_3_1@@QBEPB_WXZ 12002d58 f   DOMNodeImpl.obj
 0001:00001d58       ?getContentLeafNameTypeVector@SimpleContentModel@xercesc_3_1@@UBEPAVContentLeafNameTypeVector@2@XZ 12002d58 f   SimpleContentModel.obj
 0001:00001d58       ?createObject@IdentityConstraint@xercesc_3_1@@SAPAVXSerializable@2@PAVMemoryManager@2@@Z 12002d58 f   IdentityConstraint.obj
 0001:00001d58       ?getCurrentGrammarType@DGXMLScanner@xercesc_3_1@@UBE?AW4GrammarType@Grammar@2@XZ 12002d58 f   DGXMLScanner.obj
 0001:00001d58       ?getNoParen@Token@xercesc_3_1@@UBEHXZ 12002d58 f   ASCIIRangeFactory.obj
 0001:00001d58       ?createObject@XMLNumber@xercesc_3_1@@SAPAVXSerializable@2@PAVMemoryManager@2@@Z 12002d58 f   XMLNumber.obj
 0001:00001d58       ?getNextSibling@DOMDocumentImpl@xercesc_3_1@@UBEPAVDOMNode@2@XZ 12002d58 f   DOMDocumentImpl.obj
 0001:00001d58       ?createObject@XMLSchemaDescription@xercesc_3_1@@SAPAVXSerializable@2@PAVMemoryManager@2@@Z 12002d58 f   XMLSchemaDescription.obj
 0001:00001d58       ?getLocalName@DOMDocumentImpl@xercesc_3_1@@UBEPB_WXZ 12002d58 f   DOMDocumentImpl.obj
 0001:00001d58       ?createObject@XMLAttDefList@xercesc_3_1@@SAPAVXSerializable@2@PAVMemoryManager@2@@Z 12002d58 f   XMLAttDefList.obj
 0001:00001d58       ?getBaseURI@Wrapper4InputSource@xercesc_3_1@@UBEPB_WXZ 12002d58 f   Wrapper4InputSource.obj
 0001:00001d58       ?getContentType@BinFileInputStream@xercesc_3_1@@UBEPB_WXZ 12002d58 f   BinFileInputStream.obj
 0001:00001d5b       ??_EBinInputStream@xercesc_3_1@@UAEPAXI@Z 12002d5b f i BinInputStream.obj
 0001:00001da7       ??1BinInputStream@xercesc_3_1@@UAE@XZ 12002da7 f   BinInputStream.obj
 0001:00001dae       ??0BinInputStream@xercesc_3_1@@IAE@XZ 12002dae f   BinInputStream.obj
 0001:00001db7       ??_EBinMemInputStream@xercesc_3_1@@UAEPAXI@Z 12002db7 f i BinMemInputStream.obj
 0001:00001e02       ?reset@BinMemInputStream@xercesc_3_1@@QAEXXZ 12002e02 f i BinMemInputStream.obj
 0001:00001e07       ?getSize@BinMemOutputStream@xercesc_3_1@@QBE_KXZ 12002e07 f i BinMemOutputStream.obj
 0001:00001e07       ?curPos@BinMemInputStream@xercesc_3_1@@UBE_KXZ 12002e07 f i BinMemInputStream.obj
 0001:00001e0d       ?getValue@XMLAttr@xercesc_3_1@@QBEPB_WXZ 12002e0d f i XMLAttr.obj
 0001:00001e0d       ?getTokenFactory@RangeTokenMap@xercesc_3_1@@QBEPAVTokenFactory@2@XZ 12002e0d f i ASCIIRangeFactory.obj
 0001:00001e0d       ?getFinalSet@DatatypeValidator@xercesc_3_1@@QBEHXZ 12002e0d f i XMLAttr.obj
 0001:00001e0d       ?getCreateReason@XMLElementDecl@xercesc_3_1@@QBE?AW4CreateReasons@12@XZ 12002e0d f i XMLDTDDescription.obj
 0001:00001e0d       ?getElementDecl@ContentSpecNode@xercesc_3_1@@QBEPBVXMLElementDecl@2@XZ 12002e0d f i XMLGrammarPoolImpl.obj
 0001:00001e0d       ?getReaderMgr@XMLValidator@xercesc_3_1@@IBEPBVReaderMgr@2@XZ 12002e0d f i XMLValidator.obj
 0001:00001e0d       ?getSchemaType@DOMConfigurationImpl@xercesc_3_1@@QBEPB_WXZ 12002e0d f i DOMConfigurationImpl.obj
 0001:00001e0d       ?getDocTypeHandler@DTDScanner@xercesc_3_1@@QBEPBVDocTypeHandler@2@XZ 12002e0d f i DGXMLScanner.obj
 0001:00001e0d       ?getReaderMgr@XMLValidator@xercesc_3_1@@IAEPAVReaderMgr@2@XZ 12002e0d f i XMLValidator.obj
 0001:00001e0d       ?getEntityDeclPool@ValidationContextImpl@xercesc_3_1@@UBEPBV?$NameIdPool@VDTDEntityDecl@xercesc_3_1@@@2@XZ 12002e0d f i ValidationContextImpl.obj
 0001:00001e0d       ?getKey@KVStringPair@xercesc_3_1@@QBEPB_WXZ 12002e0d f i KVStringPair.obj
 0001:00001e0d       ?getSelector@IdentityConstraint@xercesc_3_1@@QBEPAVIC_Selector@2@XZ 12002e0d f i XMLElementDecl.obj
 0001:00001e0d       ?getNoParen@ParenToken@xercesc_3_1@@UBEHXZ 12002e0d f i ParenToken.obj
 0001:00001e0d       ?getPublicId@InputSource@xercesc_3_1@@UBEPB_WXZ 12002e0d f i LocalFileInputSource.obj
 0001:00001e0d       ?getSystemId@DOMLSOutputImpl@xercesc_3_1@@UBEPB_WXZ 12002e0d f i DOMImplementationImpl.obj
 0001:00001e0d       ?getReferenceNo@StringToken@xercesc_3_1@@UBEHXZ 12002e0d f i ParserForXMLSchema.obj
 0001:00001e0d       ?getTargetNSURI@SchemaInfo@xercesc_3_1@@QBEHXZ 12002e0d f i IGXMLScanner.obj
 0001:00001e0d       ?getNodeName@DOMNotationImpl@xercesc_3_1@@UBEPB_WXZ 12002e0d f i DOMNotationImpl.obj
 0001:00001e0d       ?getScale@XMLBigDecimal@xercesc_3_1@@QBEIXZ 12002e0d f i XMLAbstractDoubleFloat.obj
 0001:00001e0d       ?getEncoding@DOMLSInputImpl@xercesc_3_1@@UBEPB_WXZ 12002e0d f i DOMImplementationImpl.obj
 0001:00001e0d       ?getCurrentNode@DOMTreeWalkerImpl@xercesc_3_1@@UAEPAVDOMNode@2@XZ 12002e0d f i DOMTreeWalkerImpl.obj
 0001:00001e0d       ?getLocationPaths@XercesXPath@xercesc_3_1@@QBEPAV?$RefVectorOf@VXercesLocationPath@xercesc_3_1@@@2@XZ 12002e0d f i XMLGrammarPoolImpl.obj
 0001:00001e0d       ?getNamespaceId@XercesAttGroupInfo@xercesc_3_1@@QBEIXZ 12002e0d f i XMLGrammarPoolImpl.obj
 0001:00001e0d       ?getBaseURI@XMLResourceIdentifier@xercesc_3_1@@QBEPB_WXZ 12002e0d f i DGXMLScanner.obj
 0001:00001e0d       ?getName@XMLNotationDecl@xercesc_3_1@@QBEPB_WXZ 12002e0d f i XMLDTDDescription.obj
 0001:00001e0d       ?getNextOp@Op@xercesc_3_1@@QBEPBV12@XZ 12002e0d f i Op.obj
 0001:00001e0d       ?getKey@XMLNotationDecl@xercesc_3_1@@QBEPB_WXZ 12002e0d f i XMLDTDDescription.obj
 0001:00001e0d       ?getCreateReason@XMLAttDef@xercesc_3_1@@QBE?AW4CreateReasons@12@XZ 12002e0d f i XMLAttDef.obj
 0001:00001e0d       ?getMessage@DOMErrorImpl@xercesc_3_1@@UBEPB_WXZ 12002e0d f i DOMLSParserImpl.obj
 0001:00001e0d       ?getElementDecl@ContentSpecNode@xercesc_3_1@@QAEPAVXMLElementDecl@2@XZ 12002e0d f i XMLGrammarPoolImpl.obj
 0001:00001e0d       ?getUnRepFlags@XMLFormatter@xercesc_3_1@@QBE?AW4UnRepFlags@12@XZ 12002e0d f i LocalFileFormatTarget.obj
 0001:00001e0d       ?getSize@BinMemInputStream@xercesc_3_1@@QBEKXZ 12002e0d f i BinMemInputStream.obj
 0001:00001e0d       ?getLen@MemBufFormatTarget@xercesc_3_1@@QBEKXZ 12002e0d f i MemBufFormatTarget.obj
 0001:00001e0d       ?getSchemaNormalizedValue@PSVIItem@xercesc_3_1@@QAEPB_WXZ 12002e0d f i PSVIAttribute.obj
 0001:00001e0d       ?getDocTypeHandler@DTDScanner@xercesc_3_1@@QAEPAVDocTypeHandler@2@XZ 12002e0d f i DGXMLScanner.obj
 0001:00001e0d       ?getUserInfo@XMLUri@xercesc_3_1@@QBEPB_WXZ 12002e0d f i XMLString.obj
 0001:00001e0d       ?getWhatToShow@DOMNodeIteratorImpl@xercesc_3_1@@UAEKXZ 12002e0d f i DOMNodeIteratorImpl.obj
 0001:00001e0d       ?getKey@KVStringPair@xercesc_3_1@@QAEPA_WXZ 12002e0d f i KVStringPair.obj
 0001:00001e0d       ?getNameId@XercesGroupInfo@xercesc_3_1@@QBEIXZ 12002e0d f i XMLGrammarPoolImpl.obj
 0001:00001e0d       ?getLeafCount@ContentLeafNameTypeVector@xercesc_3_1@@QBEKXZ 12002e0d f i ContentLeafNameTypeVector.obj
 0001:00001e0d       ?getChar@CharToken@xercesc_3_1@@UBEHXZ 12002e0d f i CharToken.obj
 0001:00001e0d       ?getTargetNamespace@XMLSchemaDescriptionImpl@xercesc_3_1@@UBEPB_WXZ 12002e0d f i XMLSchemaDescriptionImpl.obj
 0001:00001e0d       ?getMemoryManager@XMLTranscoder@xercesc_3_1@@QBEPAVMemoryManager@2@XZ 12002e0d f i PlatformUtils.obj
 0001:00001e0d       ?getHost@XMLURL@xercesc_3_1@@QBEPB_WXZ 12002e0d f i PlatformUtils.obj
 0001:00001e0d       ?getDerivedBy@ComplexTypeInfo@xercesc_3_1@@QBEHXZ 12002e0d f i XMLElementDecl.obj
 0001:00001e0d       ?getValue@XMLEntityDecl@xercesc_3_1@@QBEPB_WXZ 12002e0d f i XMLDTDDescription.obj
 0001:00001e0d       ?getNewLine@DOMLSSerializerImpl@xercesc_3_1@@UBEPB_WXZ 12002e0d f i DOMLSSerializerImpl.obj
 0001:00001e0d       ?getRootName@XMLDTDDescriptionImpl@xercesc_3_1@@UBEPB_WXZ 12002e0d f i XMLDTDDescriptionImpl.obj
 0001:00001e0d       ?getMin@ClosureToken@xercesc_3_1@@UBEHXZ 12002e0d f i ClosureToken.obj
 0001:00001e0d       ?getOptions@RegxParser@xercesc_3_1@@QBEHXZ 12002e0d f i ParserForXMLSchema.obj
 0001:00001e11       ??0BinMemInputStream@xercesc_3_1@@QAE@QBEKW4BufOpts@01@QAVMemoryManager@1@@Z 12002e11 f   BinMemInputStream.obj
 0001:00001e75       ??1BinMemInputStream@xercesc_3_1@@UAE@XZ 12002e75 f   BinMemInputStream.obj
 0001:00001eb3       ?readBytes@BinMemInputStream@xercesc_3_1@@UAEKQAEK@Z 12002eb3 f   BinMemInputStream.obj
 0001:00001ee9       ??0BitSet@xercesc_3_1@@QAE@KQAVMemoryManager@1@@Z 12002ee9 f   BitSet.obj
 0001:00001f0b       ??0BitSet@xercesc_3_1@@QAE@ABV01@@Z 12002f0b f   BitSet.obj
 0001:00001f53       ??1BitSet@xercesc_3_1@@QAE@XZ 12002f53 f   BitSet.obj
 0001:00001f60       ?equals@BitSet@xercesc_3_1@@QBE_NABV12@@Z 12002f60 f   BitSet.obj
 0001:00001fa7       ?get@BitSet@xercesc_3_1@@QBE_NK@Z 12002fa7 f   BitSet.obj
 0001:00001fdb       ?size@BitSet@xercesc_3_1@@QBEKXZ 12002fdb f   BitSet.obj
 0001:00001fe2       ?allAreCleared@BitSet@xercesc_3_1@@QBE_NXZ 12002fe2 f   BitSet.obj
 0001:00002000       ?allAreSet@BitSet@xercesc_3_1@@QBE_NXZ 12003000 f   BitSet.obj
 0001:00002020       ?clearAll@BitSet@xercesc_3_1@@QAEXXZ 12003020 f   BitSet.obj
 0001:00002035       ?clear@BitSet@xercesc_3_1@@QAEXK@Z 12003035 f   BitSet.obj
 0001:00002067       ?set@BitSet@xercesc_3_1@@QAEXK@Z 12003067 f   BitSet.obj
 0001:00002097       ?andWith@BitSet@xercesc_3_1@@QAEXABV12@@Z 12003097 f   BitSet.obj
 0001:000020d1       ?orWith@BitSet@xercesc_3_1@@QAEXABV12@@Z 120030d1 f   BitSet.obj
 0001:0000210b       ?xorWith@BitSet@xercesc_3_1@@QAEXABV12@@Z 1200310b f   BitSet.obj
 0001:00002145       ?hash@BitSet@xercesc_3_1@@QBEKK@Z 12003145 f   BitSet.obj
 0001:00002172       ?ensureCapacity@BitSet@xercesc_3_1@@AAEXK@Z 12003172 f   BitSet.obj
 0001:000021ed       ??0DefaultPanicHandler@xercesc_3_1@@QAE@XZ 120031ed f i DefaultPanicHandler.obj
 0001:000021f6       ??_EDefaultPanicHandler@xercesc_3_1@@UAEPAXI@Z 120031f6 f i DefaultPanicHandler.obj
 0001:00002242       ?panic@DefaultPanicHandler@xercesc_3_1@@UAEXW4PanicReasons@PanicHandler@2@@Z 12003242 f   DefaultPanicHandler.obj
 0001:00002270       ??0IllegalArgumentException@xercesc_3_1@@QAE@QBD_KW4Codes@XMLExcepts@1@PAVMemoryManager@1@@Z 12003270 f i EncodingValidator.obj
 0001:000022b0       ??0IllegalArgumentException@xercesc_3_1@@QAE@ABV01@@Z 120032b0 f i EncodingValidator.obj
 0001:000022cb       ??0IllegalArgumentException@xercesc_3_1@@QAE@QBD_KW4Codes@XMLExcepts@1@QB_W333PAVMemoryManager@1@@Z 120032cb f i EncodingValidator.obj
 0001:00002317       ??0IllegalArgumentException@xercesc_3_1@@QAE@QBD_KW4Codes@XMLExcepts@1@0000PAVMemoryManager@1@@Z 12003317 f i EncodingValidator.obj
 0001:00002363       ??1IllegalArgumentException@xercesc_3_1@@UAE@XZ 12003363 f i EncodingValidator.obj
 0001:0000236e       ?duplicate@IllegalArgumentException@xercesc_3_1@@UBEPAVXMLException@2@XZ 1200336e f i EncodingValidator.obj
 0001:000023b2       ?getType@IllegalArgumentException@xercesc_3_1@@UBEPB_WXZ 120033b2 f i EncodingValidator.obj
 0001:000023b8       ??_EIllegalArgumentException@xercesc_3_1@@UAEPAXI@Z 120033b8 f i EncodingValidator.obj
 0001:00002409       ??0NoSuchElementException@xercesc_3_1@@QAE@QBD_KW4Codes@XMLExcepts@1@PAVMemoryManager@1@@Z 12003409 f i EncodingValidator.obj
 0001:00002449       ??0NoSuchElementException@xercesc_3_1@@QAE@ABV01@@Z 12003449 f i EncodingValidator.obj
 0001:00002464       ??0NoSuchElementException@xercesc_3_1@@QAE@QBD_KW4Codes@XMLExcepts@1@QB_W333PAVMemoryManager@1@@Z 12003464 f i EncodingValidator.obj
 0001:000024b0       ??0NoSuchElementException@xercesc_3_1@@QAE@QBD_KW4Codes@XMLExcepts@1@0000PAVMemoryManager@1@@Z 120034b0 f i EncodingValidator.obj
 0001:000024fc       ??1NoSuchElementException@xercesc_3_1@@UAE@XZ 120034fc f i EncodingValidator.obj
 0001:00002507       ?duplicate@NoSuchElementException@xercesc_3_1@@UBEPAVXMLException@2@XZ 12003507 f i EncodingValidator.obj
 0001:0000254b       ?getType@NoSuchElementException@xercesc_3_1@@UBEPB_WXZ 1200354b f i EncodingValidator.obj
 0001:00002551       ??_ENoSuchElementException@xercesc_3_1@@UAEPAXI@Z 12003551 f i EncodingValidator.obj
 0001:000025a2       ??0RuntimeException@xercesc_3_1@@QAE@QBD_KW4Codes@XMLExcepts@1@PAVMemoryManager@1@@Z 120035a2 f i EncodingValidator.obj
 0001:000025e2       ??0RuntimeException@xercesc_3_1@@QAE@ABV01@@Z 120035e2 f i EncodingValidator.obj
 0001:000025fd       ??0RuntimeException@xercesc_3_1@@QAE@QBD_KW4Codes@XMLExcepts@1@QB_W333PAVMemoryManager@1@@Z 120035fd f i EncodingValidator.obj
 0001:00002649       ??0RuntimeException@xercesc_3_1@@QAE@QBD_KW4Codes@XMLExcepts@1@0000PAVMemoryManager@1@@Z 12003649 f i EncodingValidator.obj
 0001:00002695       ??1RuntimeException@xercesc_3_1@@UAE@XZ 12003695 f i EncodingValidator.obj
 0001:000026a0       ?duplicate@RuntimeException@xercesc_3_1@@UBEPAVXMLException@2@XZ 120036a0 f i EncodingValidator.obj
 0001:000026e4       ?getType@RuntimeException@xercesc_3_1@@UBEPB_WXZ 120036e4 f i EncodingValidator.obj
 0001:000026ea       ??_ERuntimeException@xercesc_3_1@@UAEPAXI@Z 120036ea f i EncodingValidator.obj
 0001:0000273b       ??0NullPointerException@xercesc_3_1@@QAE@QBD_KW4Codes@XMLExcepts@1@PAVMemoryManager@1@@Z 1200373b f i EncodingValidator.obj
 0001:0000277b       ??0NullPointerException@xercesc_3_1@@QAE@ABV01@@Z 1200377b f i EncodingValidator.obj
 0001:00002796       ??0NullPointerException@xercesc_3_1@@QAE@QBD_KW4Codes@XMLExcepts@1@QB_W333PAVMemoryManager@1@@Z 12003796 f i EncodingValidator.obj
 0001:000027e2       ??0NullPointerException@xercesc_3_1@@QAE@QBD_KW4Codes@XMLExcepts@1@0000PAVMemoryManager@1@@Z 120037e2 f i EncodingValidator.obj
 0001:0000282e       ??1NullPointerException@xercesc_3_1@@UAE@XZ 1200382e f i EncodingValidator.obj
 0001:00002839       ?duplicate@NullPointerException@xercesc_3_1@@UBEPAVXMLException@2@XZ 12003839 f i EncodingValidator.obj
 0001:0000287d       ?getType@NullPointerException@xercesc_3_1@@UBEPB_WXZ 1200387d f i EncodingValidator.obj
 0001:00002883       ??_ENullPointerException@xercesc_3_1@@UAEPAXI@Z 12003883 f i EncodingValidator.obj
 0001:000028d4       ??4XIncludeLocation@xercesc_3_1@@QAEAAV01@ABV01@@Z 120038d4 f i AbstractDOMParser.obj
 0001:000028d4       ??4EncodingValidator@xercesc_3_1@@QAEAAV01@ABV01@@Z 120038d4 f i EncodingValidator.obj
 0001:000028e4       ?initializeEncodingValidator@XMLInitializer@xercesc_3_1@@CAXXZ 120038e4 f   EncodingValidator.obj
 0001:00002920       ?terminateEncodingValidator@XMLInitializer@xercesc_3_1@@CAXXZ 12003920 f   EncodingValidator.obj
 0001:00002943       ??0EncodingValidator@xercesc_3_1@@AAE@XZ 12003943 f   EncodingValidator.obj
 0001:00002952       ??1EncodingValidator@xercesc_3_1@@AAE@XZ 12003952 f   EncodingValidator.obj
 0001:00002966       ??_G?$ValueHashTableOf@W4DataType@XSValue@xercesc_3_1@@UStringHasher@3@@xercesc_3_1@@QAEPAXI@Z 12003966 f i XSValue.obj
 0001:00002966       ??_G?$ValueHashTableOf@_WUStringHasher@xercesc_3_1@@@xercesc_3_1@@QAEPAXI@Z 12003966 f i SGXMLScanner.obj
 0001:00002966       ??_G?$ValueHashTableOf@GUStringHasher@xercesc_3_1@@@xercesc_3_1@@QAEPAXI@Z 12003966 f i GeneralAttributeCheck.obj
 0001:00002966       ??_G?$ValueHashTableOf@_NUStringHasher@xercesc_3_1@@@xercesc_3_1@@QAEPAXI@Z 12003966 f i EncodingValidator.obj
 0001:000029bd       ?isValidEncoding@EncodingValidator@xercesc_3_1@@QAE_NQB_W@Z 120039bd f   EncodingValidator.obj
 0001:000029fa       ?initializeRegistry@EncodingValidator@xercesc_3_1@@AAEXXZ 120039fa f   EncodingValidator.obj
 0001:00002a51       ?instance@EncodingValidator@xercesc_3_1@@SAPAV12@XZ 12003a51 f   EncodingValidator.obj
 0001:00002a57       ??0?$ValueHashTableOf@_NUStringHasher@xercesc_3_1@@@xercesc_3_1@@QAE@KQAVMemoryManager@1@@Z 12003a57 f i EncodingValidator.obj
 0001:00002aa0       ?put@?$ValueHashTableOf@_NUStringHasher@xercesc_3_1@@@xercesc_3_1@@QAEXPAXAB_N@Z 12003aa0 f i EncodingValidator.obj
 0001:00002b34       ?rehash@?$ValueHashTableOf@_NUStringHasher@xercesc_3_1@@@xercesc_3_1@@AAEXXZ 12003b34 f i EncodingValidator.obj
 0001:00002bef       ??1?$ArrayJanitor@PAU?$RefHashTableBucketElem@VXMLCanRepGroup@xercesc_3_1@@@xercesc_3_1@@@xercesc_3_1@@QAE@XZ 12003bef f i DatatypeValidatorFactory.obj
 0001:00002bef       ??1?$ArrayJanitor@PAU?$RefHash2KeysTableBucketElem@VXSObject@xercesc_3_1@@@xercesc_3_1@@@xercesc_3_1@@QAE@XZ 12003bef f i XSModel.obj
 0001:00002bef       ??1?$ArrayJanitor@_W@xercesc_3_1@@QAE@XZ 12003bef f i PlatformUtils.obj
 0001:00002bef       ??1?$ArrayJanitor@PAU?$RefHash2KeysTableBucketElem@_W@xercesc_3_1@@@xercesc_3_1@@QAE@XZ 12003bef f i TraverseSchema.obj
 0001:00002bef       ??1?$ArrayJanitor@PAU?$RefHashTableBucketElem@VDatatypeValidator@xercesc_3_1@@@xercesc_3_1@@@xercesc_3_1@@QAE@XZ 12003bef f i XTemplateSerializer.obj
 0001:00002bef       ??1?$ArrayJanitor@_N@xercesc_3_1@@QAE@XZ 12003bef f i AllContentModel.obj
 0001:00002bef       ??1?$ArrayJanitor@PAU?$RefHashTableBucketElem@VXercesAttGroupInfo@xercesc_3_1@@@xercesc_3_1@@@xercesc_3_1@@QAE@XZ 12003bef f i XTemplateSerializer.obj
 0001:00002bef       ??1?$ArrayJanitor@PAU?$RefHashTableBucketElem@VXSerializedObjectId@xercesc_3_1@@@xercesc_3_1@@@xercesc_3_1@@QAE@XZ 12003bef f i XSerializeEngine.obj
 0001:00002bef       ??1?$ArrayJanitor@PAU?$ValueHashTableBucketElem@_N@xercesc_3_1@@@xercesc_3_1@@QAE@XZ 12003bef f i EncodingValidator.obj
 0001:00002bef       ??1?$ArrayJanitor@PAU?$RefHashTableBucketElem@VENameMap@xercesc_3_1@@@xercesc_3_1@@@xercesc_3_1@@QAE@XZ 12003bef f i TransService.obj
 0001:00002bef       ??1?$ArrayJanitor@PAU?$RefHashTableBucketElem@_W@xercesc_3_1@@@xercesc_3_1@@QAE@XZ 12003bef f i DOMLSSerializerImpl.obj
 0001:00002bef       ??1?$ArrayJanitor@PAU?$RefHashTableBucketElem@VDTDElementDecl@xercesc_3_1@@@xercesc_3_1@@@xercesc_3_1@@QAE@XZ 12003bef f i XMLGrammarPoolImpl.obj
 0001:00002bef       ??1?$ArrayJanitor@PAU?$RefHashTableBucketElem@VValueStore@xercesc_3_1@@@xercesc_3_1@@@xercesc_3_1@@QAE@XZ 12003bef f i ValueStoreCache.obj
 0001:00002bef       ??1?$ArrayJanitor@PAUHash2KeysSetBucketElem@xercesc_3_1@@@xercesc_3_1@@QAE@XZ 12003bef f i DGXMLScanner.obj
 0001:00002bef       ??1?$ArrayJanitor@PAU?$RefHashTableBucketElem@VFieldValueMap@xercesc_3_1@@@xercesc_3_1@@@xercesc_3_1@@QAE@XZ 12003bef f i ValueStore.obj
 0001:00002bef       ??1?$ArrayJanitor@PAU?$ValueHashTableBucketElem@I@xercesc_3_1@@@xercesc_3_1@@QAE@XZ 12003bef f i DOMLSParserImpl.obj
 0001:00002bef       ??1?$ArrayJanitor@PAU?$RefHash2KeysTableBucketElem@V?$ValueVectorOf@PAVSchemaElementDecl@xercesc_3_1@@@xercesc_3_1@@@xercesc_3_1@@@xercesc_3_1@@QAE@XZ 12003bef f i XTemplateSerializer.obj
 0001:00002bef       ??1?$ArrayJanitor@PAU?$RefHashTableBucketElem@VDTDEntityDecl@xercesc_3_1@@@xercesc_3_1@@@xercesc_3_1@@QAE@XZ 12003bef f i XMLGrammarPoolImpl.obj
 0001:00002bef       ??1?$ArrayJanitor@PAU?$RefHashTableBucketElem@UPoolElem@XMLStringPool@xercesc_3_1@@@xercesc_3_1@@@xercesc_3_1@@QAE@XZ 12003bef f i StringPool.obj
 0001:00002bef       ??1?$ArrayJanitor@PAU?$RefHashTableBucketElem@I@xercesc_3_1@@@xercesc_3_1@@QAE@XZ 12003bef f i DGXMLScanner.obj
 0001:00002bef       ??1?$ArrayJanitor@PAU?$RefHash2KeysTableBucketElem@VXMLAttr@xercesc_3_1@@@xercesc_3_1@@@xercesc_3_1@@QAE@XZ 12003bef f i DGXMLScanner.obj
 0001:00002bef       ??1?$ArrayJanitor@PAU?$RefHashTableBucketElem@V?$ValueVectorOf@PAVSchemaElementDecl@xercesc_3_1@@@xercesc_3_1@@@xercesc_3_1@@@xercesc_3_1@@QAE@XZ 12003bef f i TraverseSchema.obj
 0001:00002bef       ??1?$ArrayJanitor@PAU?$RefHash2KeysTableBucketElem@VValueStore@xercesc_3_1@@@xercesc_3_1@@@xercesc_3_1@@QAE@XZ 12003bef f i ValueStoreCache.obj
 0001:00002bef       ??1?$ArrayJanitor@PAU?$RefHashTableBucketElem@VXSNamespaceItem@xercesc_3_1@@@xercesc_3_1@@@xercesc_3_1@@QAE@XZ 12003bef f i XSModel.obj
 0001:00002bef       ??1?$ArrayJanitor@PAU?$RefHashTableBucketElem@VRangeFactory@xercesc_3_1@@@xercesc_3_1@@@xercesc_3_1@@QAE@XZ 12003bef f i RangeTokenMap.obj
 0001:00002bef       ??1?$ArrayJanitor@PAU?$RefHash2KeysTableBucketElem@VXSIDCDefinition@xercesc_3_1@@@xercesc_3_1@@@xercesc_3_1@@QAE@XZ 12003bef f i XSObjectFactory.obj
 0001:00002bef       ??1?$ArrayJanitor@PAU?$RefHashTableBucketElem@VXSObject@xercesc_3_1@@@xercesc_3_1@@@xercesc_3_1@@QAE@XZ 12003bef f i XSModel.obj
 0001:00002bef       ??1?$ArrayJanitor@PAU?$RefHashTableBucketElem@VComplexTypeInfo@xercesc_3_1@@@xercesc_3_1@@@xercesc_3_1@@QAE@XZ 12003bef f i XTemplateSerializer.obj
 0001:00002bef       ??1?$ArrayJanitor@D@xercesc_3_1@@QAE@XZ 12003bef f i XMLAbstractDoubleFloat.obj
 0001:00002bef       ??1?$ArrayJanitor@PAU?$RefHashTableBucketElem@VDOMElement@xercesc_3_1@@@xercesc_3_1@@@xercesc_3_1@@QAE@XZ 12003bef f i SchemaInfo.obj
 0001:00002bef       ??1?$ArrayJanitor@PAU?$RefHashTableBucketElem@VXercesGroupInfo@xercesc_3_1@@@xercesc_3_1@@@xercesc_3_1@@QAE@XZ 12003bef f i XTemplateSerializer.obj
 0001:00002bef       ??1?$ArrayJanitor@PAU?$RefHashTableBucketElem@VGrammar@xercesc_3_1@@@xercesc_3_1@@@xercesc_3_1@@QAE@XZ 12003bef f i XMLGrammarPoolImpl.obj
 0001:00002bef       ??1?$ArrayJanitor@PAU?$RefHash2KeysTableBucketElem@VSchemaAttDef@xercesc_3_1@@@xercesc_3_1@@@xercesc_3_1@@QAE@XZ 12003bef f i XTemplateSerializer.obj
 0001:00002bef       ??1?$ArrayJanitor@PAU?$RefHashTableBucketElem@VCPMapEntry@xercesc_3_1@@@xercesc_3_1@@@xercesc_3_1@@QAE@XZ 12003bef f i Win32TransService.obj
 0001:00002bef       ??1?$ArrayJanitor@PAU?$RefHashTableBucketElem@VRangeTokenElemMap@xercesc_3_1@@@xercesc_3_1@@@xercesc_3_1@@QAE@XZ 12003bef f i RangeTokenMap.obj
 0001:00002bef       ??1?$ArrayJanitor@PAU?$RefHash2KeysTableBucketElem@V?$KeyRefPair@XVDOMUserDataHandler@xercesc_3_1@@@xercesc_3_1@@@xercesc_3_1@@@xercesc_3_1@@QAE@XZ 12003bef f i DOMDocumentImpl.obj
 0001:00002bef       ??1?$ArrayJanitor@PAU?$ValueHashTableBucketElem@_W@xercesc_3_1@@@xercesc_3_1@@QAE@XZ 12003bef f i SGXMLScanner.obj
 0001:00002bef       ??1?$ArrayJanitor@PAU?$RefHash2KeysTableBucketElem@VIdentityConstraint@xercesc_3_1@@@xercesc_3_1@@@xercesc_3_1@@QAE@XZ 12003bef f i TraverseSchema.obj
 0001:00002bef       ??1?$ArrayJanitor@PAU?$RefHash2KeysTableBucketElem@VSchemaInfo@xercesc_3_1@@@xercesc_3_1@@@xercesc_3_1@@QAE@XZ 12003bef f i TraverseSchema.obj
 0001:00002bef       ??1?$ArrayJanitor@PAU?$RefHashTableBucketElem@VXMLRefInfo@xercesc_3_1@@@xercesc_3_1@@@xercesc_3_1@@QAE@XZ 12003bef f i ValidationContextImpl.obj
 0001:00002bef       ??1?$ArrayJanitor@PAU?$ValueHashTableBucketElem@W4FilterAction@DOMLSParserFilter@xercesc_3_1@@@xercesc_3_1@@@xercesc_3_1@@QAE@XZ 12003bef f i DOMLSParserImpl.obj
 0001:00002bef       ??1?$ArrayJanitor@PAU?$RefHashTableBucketElem@VXMLInteger@xercesc_3_1@@@xercesc_3_1@@@xercesc_3_1@@QAE@XZ 12003bef f i DFAContentModel.obj
 0001:00002bef       ??1?$ArrayJanitor@PAU?$ValueHashTableBucketElem@W4DataType@XSValue@xercesc_3_1@@@xercesc_3_1@@@xercesc_3_1@@QAE@XZ 12003bef f i XSValue.obj
 0001:00002bef       ??1?$ArrayJanitor@PAU?$RefHashTableBucketElem@VXSAnnotation@xercesc_3_1@@@xercesc_3_1@@@xercesc_3_1@@QAE@XZ 12003bef f i XTemplateSerializer.obj
 0001:00002bef       ??1?$ArrayJanitor@PAU?$RefHashTableBucketElem@V?$ValueVectorOf@PAVDOMElement@xercesc_3_1@@@xercesc_3_1@@@xercesc_3_1@@@xercesc_3_1@@QAE@XZ 12003bef f i TraverseSchema.obj
 0001:00002bef       ??1?$ArrayJanitor@PAU?$RefHashTableBucketElem@VXMLAttDef@xercesc_3_1@@@xercesc_3_1@@@xercesc_3_1@@QAE@XZ 12003bef f i XTemplateSerializer.obj
 0001:00002bef       ??1?$ArrayJanitor@PAU?$ValueHashTableBucketElem@G@xercesc_3_1@@@xercesc_3_1@@QAE@XZ 12003bef f i GeneralAttributeCheck.obj
 0001:00002bef       ??1?$ArrayJanitor@PAU?$RefHashTableBucketElem@VSchemaInfo@xercesc_3_1@@@xercesc_3_1@@@xercesc_3_1@@QAE@XZ 12003bef f i TraverseSchema.obj
 0001:00002bef       ??1?$ArrayJanitor@PAU?$RefHashTableBucketElem@VXMLNotationDecl@xercesc_3_1@@@xercesc_3_1@@@xercesc_3_1@@QAE@XZ 12003bef f i XMLGrammarPoolImpl.obj
 0001:00002bef       ??1?$ArrayJanitor@H@xercesc_3_1@@QAE@XZ 12003bef f i XMLRangeFactory.obj
 0001:00002bef       ??1?$ArrayJanitor@PAU?$RefHashTableBucketElem@VDTDAttDef@xercesc_3_1@@@xercesc_3_1@@@xercesc_3_1@@QAE@XZ 12003bef f i XTemplateSerializer.obj
 0001:00002bef       ??1?$ArrayJanitor@PAU?$RefHashTableBucketElem@VKVStringPair@xercesc_3_1@@@xercesc_3_1@@@xercesc_3_1@@QAE@XZ 12003bef f i XTemplateSerializer.obj
 0001:00002bef       ??1?$ArrayJanitor@PAU?$RefHashTableBucketElem@VXMLElementDecl@xercesc_3_1@@@xercesc_3_1@@@xercesc_3_1@@QAE@XZ 12003bef f i WFXMLScanner.obj
 0001:00002c17       ?swapBytes@BitOps@xercesc_3_1@@SA_WG@Z 12003c17 f i HeaderDummy.obj
 0001:00002c2c       ?swapBytes@BitOps@xercesc_3_1@@SAII@Z 12003c2c f i HeaderDummy.obj
 0001:00002c57       ??0EmptyStackException@xercesc_3_1@@QAE@QBD_KW4Codes@XMLExcepts@1@PAVMemoryManager@1@@Z 12003c57 f i HeaderDummy.obj
 0001:00002c97       ??0EmptyStackException@xercesc_3_1@@QAE@ABV01@@Z 12003c97 f i HeaderDummy.obj
 0001:00002cb2       ??0EmptyStackException@xercesc_3_1@@QAE@QBD_KW4Codes@XMLExcepts@1@QB_W333PAVMemoryManager@1@@Z 12003cb2 f i HeaderDummy.obj
 0001:00002cfe       ??0EmptyStackException@xercesc_3_1@@QAE@QBD_KW4Codes@XMLExcepts@1@0000PAVMemoryManager@1@@Z 12003cfe f i HeaderDummy.obj
 0001:00002d4a       ??1EmptyStackException@xercesc_3_1@@UAE@XZ 12003d4a f i HeaderDummy.obj
 0001:00002d55       ?duplicate@EmptyStackException@xercesc_3_1@@UBEPAVXMLException@2@XZ 12003d55 f i HeaderDummy.obj
 0001:00002d99       ?getType@EmptyStackException@xercesc_3_1@@UBEPB_WXZ 12003d99 f i HeaderDummy.obj
 0001:00002d9f       ??_EEmptyStackException@xercesc_3_1@@UAEPAXI@Z 12003d9f f i HeaderDummy.obj
 0001:00002df0       ??0InvalidCastException@xercesc_3_1@@QAE@QBD_KW4Codes@XMLExcepts@1@PAVMemoryManager@1@@Z 12003df0 f i HeaderDummy.obj
 0001:00002e30       ??0InvalidCastException@xercesc_3_1@@QAE@ABV01@@Z 12003e30 f i HeaderDummy.obj
 0001:00002e4b       ??0InvalidCastException@xercesc_3_1@@QAE@QBD_KW4Codes@XMLExcepts@1@QB_W333PAVMemoryManager@1@@Z 12003e4b f i HeaderDummy.obj
 0001:00002e97       ??0InvalidCastException@xercesc_3_1@@QAE@QBD_KW4Codes@XMLExcepts@1@0000PAVMemoryManager@1@@Z 12003e97 f i HeaderDummy.obj
 0001:00002ee3       ??1InvalidCastException@xercesc_3_1@@UAE@XZ 12003ee3 f i HeaderDummy.obj
 0001:00002eee       ?duplicate@InvalidCastException@xercesc_3_1@@UBEPAVXMLException@2@XZ 12003eee f i HeaderDummy.obj
 0001:00002f32       ?getType@InvalidCastException@xercesc_3_1@@UBEPB_WXZ 12003f32 f i HeaderDummy.obj
 0001:00002f38       ??_EInvalidCastException@xercesc_3_1@@UAEPAXI@Z 12003f38 f i HeaderDummy.obj
 0001:00002f89       ??0IOException@xercesc_3_1@@QAE@QBD_KW4Codes@XMLExcepts@1@PAVMemoryManager@1@@Z 12003f89 f i HeaderDummy.obj
 0001:00002fc9       ??0IOException@xercesc_3_1@@QAE@ABV01@@Z 12003fc9 f i HeaderDummy.obj
 0001:00002fe4       ??0IOException@xercesc_3_1@@QAE@QBD_KW4Codes@XMLExcepts@1@QB_W333PAVMemoryManager@1@@Z 12003fe4 f i HeaderDummy.obj
 0001:00003030       ??0IOException@xercesc_3_1@@QAE@QBD_KW4Codes@XMLExcepts@1@0000PAVMemoryManager@1@@Z 12004030 f i HeaderDummy.obj
 0001:0000307c       ??1IOException@xercesc_3_1@@UAE@XZ 1200407c f i HeaderDummy.obj
 0001:00003087       ?duplicate@IOException@xercesc_3_1@@UBEPAVXMLException@2@XZ 12004087 f i HeaderDummy.obj
 0001:000030cb       ?getType@IOException@xercesc_3_1@@UBEPB_WXZ 120040cb f i HeaderDummy.obj
 0001:000030d1       ??_EIOException@xercesc_3_1@@UAEPAXI@Z 120040d1 f i HeaderDummy.obj
 0001:00003122       ??0UnexpectedEOFException@xercesc_3_1@@QAE@QBD_KW4Codes@XMLExcepts@1@PAVMemoryManager@1@@Z 12004122 f i HeaderDummy.obj
 0001:00003162       ??0UnexpectedEOFException@xercesc_3_1@@QAE@ABV01@@Z 12004162 f i HeaderDummy.obj
 0001:0000317d       ??0UnexpectedEOFException@xercesc_3_1@@QAE@QBD_KW4Codes@XMLExcepts@1@QB_W333PAVMemoryManager@1@@Z 1200417d f i HeaderDummy.obj
 0001:000031c9       ??0UnexpectedEOFException@xercesc_3_1@@QAE@QBD_KW4Codes@XMLExcepts@1@0000PAVMemoryManager@1@@Z 120041c9 f i HeaderDummy.obj
 0001:00003215       ??1UnexpectedEOFException@xercesc_3_1@@UAE@XZ 12004215 f i HeaderDummy.obj
 0001:00003220       ?duplicate@UnexpectedEOFException@xercesc_3_1@@UBEPAVXMLException@2@XZ 12004220 f i HeaderDummy.obj
 0001:00003264       ?getType@UnexpectedEOFException@xercesc_3_1@@UBEPB_WXZ 12004264 f i HeaderDummy.obj
 0001:0000326a       ??_EUnexpectedEOFException@xercesc_3_1@@UAEPAXI@Z 1200426a f i HeaderDummy.obj
 0001:000032bb       ??0UnsupportedEncodingException@xercesc_3_1@@QAE@QBD_KW4Codes@XMLExcepts@1@PAVMemoryManager@1@@Z 120042bb f i HeaderDummy.obj
 0001:000032fb       ??0UnsupportedEncodingException@xercesc_3_1@@QAE@ABV01@@Z 120042fb f i HeaderDummy.obj
 0001:00003316       ??0UnsupportedEncodingException@xercesc_3_1@@QAE@QBD_KW4Codes@XMLExcepts@1@QB_W333PAVMemoryManager@1@@Z 12004316 f i HeaderDummy.obj
 0001:00003362       ??0UnsupportedEncodingException@xercesc_3_1@@QAE@QBD_KW4Codes@XMLExcepts@1@0000PAVMemoryManager@1@@Z 12004362 f i HeaderDummy.obj
 0001:000033ae       ??1UnsupportedEncodingException@xercesc_3_1@@UAE@XZ 120043ae f i HeaderDummy.obj
 0001:000033b9       ?duplicate@UnsupportedEncodingException@xercesc_3_1@@UBEPAVXMLException@2@XZ 120043b9 f i HeaderDummy.obj
 0001:000033fd       ?getType@UnsupportedEncodingException@xercesc_3_1@@UBEPB_WXZ 120043fd f i HeaderDummy.obj
 0001:00003403       ??_EUnsupportedEncodingException@xercesc_3_1@@UAEPAXI@Z 12004403 f i HeaderDummy.obj
 0001:00003454       ??0UTFDataFormatException@xercesc_3_1@@QAE@QBD_KW4Codes@XMLExcepts@1@PAVMemoryManager@1@@Z 12004454 f i HeaderDummy.obj
 0001:00003494       ??0UTFDataFormatException@xercesc_3_1@@QAE@ABV01@@Z 12004494 f i HeaderDummy.obj
 0001:000034af       ??0UTFDataFormatException@xercesc_3_1@@QAE@QBD_KW4Codes@XMLExcepts@1@QB_W333PAVMemoryManager@1@@Z 120044af f i HeaderDummy.obj
 0001:000034fb       ??0UTFDataFormatException@xercesc_3_1@@QAE@QBD_KW4Codes@XMLExcepts@1@0000PAVMemoryManager@1@@Z 120044fb f i HeaderDummy.obj
 0001:00003547       ??1UTFDataFormatException@xercesc_3_1@@UAE@XZ 12004547 f i HeaderDummy.obj
 0001:00003552       ?duplicate@UTFDataFormatException@xercesc_3_1@@UBEPAVXMLException@2@XZ 12004552 f i HeaderDummy.obj
 0001:00003596       ?getType@UTFDataFormatException@xercesc_3_1@@UBEPB_WXZ 12004596 f i HeaderDummy.obj
 0001:0000359c       ??_EUTFDataFormatException@xercesc_3_1@@UAEPAXI@Z 1200459c f i HeaderDummy.obj
 0001:000035ed       ?getDataLength@HexBin@xercesc_3_1@@SAHQB_W@Z 120045ed f   HexBin.obj
 0001:00003612       ?isArrayByteHex@HexBin@xercesc_3_1@@SA_NQB_W@Z 12004612 f   HexBin.obj
 0001:00003656       ?getCanonicalRepresentation@HexBin@xercesc_3_1@@SAPA_WQB_WQAVMemoryManager@2@@Z 12004656 f   HexBin.obj
 0001:00003687       ?decodeToXMLByte@HexBin@xercesc_3_1@@SAPAEQB_WQAVMemoryManager@2@@Z 12004687 f   HexBin.obj
 0001:00003726       ?isHex@HexBin@xercesc_3_1@@CA_NAB_W@Z 12004726 f   HexBin.obj
 0001:0000374c       ??0XSerializationException@xercesc_3_1@@QAE@QBD_KW4Codes@XMLExcepts@1@PAVMemoryManager@1@@Z 1200474c f i KVStringPair.obj
 0001:0000378c       ??0XSerializationException@xercesc_3_1@@QAE@ABV01@@Z 1200478c f i KVStringPair.obj
 0001:000037a7       ??0XSerializationException@xercesc_3_1@@QAE@QBD_KW4Codes@XMLExcepts@1@QB_W333PAVMemoryManager@1@@Z 120047a7 f i KVStringPair.obj
 0001:000037f3       ??0XSerializationException@xercesc_3_1@@QAE@QBD_KW4Codes@XMLExcepts@1@0000PAVMemoryManager@1@@Z 120047f3 f i KVStringPair.obj
 0001:0000383f       ??1XSerializationException@xercesc_3_1@@UAE@XZ 1200483f f i KVStringPair.obj
 0001:0000384a       ?duplicate@XSerializationException@xercesc_3_1@@UBEPAVXMLException@2@XZ 1200484a f i KVStringPair.obj
 0001:0000388e       ?getType@XSerializationException@xercesc_3_1@@UBEPB_WXZ 1200488e f i KVStringPair.obj
 0001:00003894       ??_EXSerializationException@xercesc_3_1@@UAEPAXI@Z 12004894 f i KVStringPair.obj
 0001:000038e5       ?isStoring@XSerializeEngine@xercesc_3_1@@QBE_NXZ 120048e5 f i KVStringPair.obj
 0001:000038ee       ?isLoading@XSerializeEngine@xercesc_3_1@@QBE_NXZ 120048ee f i KVStringPair.obj
 0001:000038f8       ?ensureStoring@XSerializeEngine@xercesc_3_1@@ABEXXZ 120048f8 f i KVStringPair.obj
 0001:00003910       ?ensureLoading@XSerializeEngine@xercesc_3_1@@ABEXXZ 12004910 f i KVStringPair.obj
 0001:00003928       ?Assert@XSerializeEngine@xercesc_3_1@@ABEX_NW4Codes@XMLExcepts@2@@Z 12004928 f i KVStringPair.obj
 0001:00003966       ?readString@XSerializeEngine@xercesc_3_1@@QAEXAAPA_WAAK@Z 12004966 f i KVStringPair.obj
 0001:00003981       ?readString@XSerializeEngine@xercesc_3_1@@QAEXAAPA_W@Z 12004981 f i KVStringPair.obj
 0001:0000399f       ?readString@XSerializeEngine@xercesc_3_1@@QAEXAAPAEAAK@Z 1200499f f i KVStringPair.obj
 0001:000039ba       ?readString@XSerializeEngine@xercesc_3_1@@QAEXAAPAE@Z 120049ba f i KVStringPair.obj
 0001:000039d7       ?getBufCur@XSerializeEngine@xercesc_3_1@@QBEKXZ 120049d7 f i KVStringPair.obj
 0001:000039de       ?getBufCurAccumulated@XSerializeEngine@xercesc_3_1@@QBEKXZ 120049de f i KVStringPair.obj
 0001:000039f6       ?getFacetKind@XSMultiValueFacet@xercesc_3_1@@QBE?AW4FACET@XSSimpleTypeDefinition@2@XZ 120049f6 f i XSMultiValueFacet.obj
 0001:000039f6       ?getType@DOMErrorImpl@xercesc_3_1@@UBEPB_WXZ 120049f6 f i DOMLSParserImpl.obj
 0001:000039f6       ?getParent@SAX2XMLFilterImpl@xercesc_3_1@@UBEPAVSAX2XMLReader@2@XZ 120049f6 f i SAX2XMLFilterImpl.obj
 0001:000039f6       ?getParameterNames@DOMConfigurationImpl@xercesc_3_1@@UBEPBVDOMStringList@2@XZ 120049f6 f i DOMConfigurationImpl.obj
 0001:000039f6       ?getFinalSet@ComplexTypeInfo@xercesc_3_1@@QBEHXZ 120049f6 f i XMLElementDecl.obj
 0001:000039f6       ?getFilter@DOMLSSerializerImpl@xercesc_3_1@@UBEPAVDOMLSSerializerFilter@2@XZ 120049f6 f i DOMLSSerializerImpl.obj
 0001:000039f6       ?getConstraintType@XSWildcard@xercesc_3_1@@QBE?AW4NAMESPACE_CONSTRAINT@12@XZ 120049f6 f i XSComplexTypeDefinition.obj
 0001:000039f6       ?getBufCount@XSerializeEngine@xercesc_3_1@@QBEKXZ 120049f6 f i KVStringPair.obj
 0001:000039f6       ?getFilter@DOMLSParserImpl@xercesc_3_1@@UBEPBVDOMLSParserFilter@2@XZ 120049f6 f i DOMLSParserImpl.obj
 0001:000039f6       ?getSecond@ContentSpecNode@xercesc_3_1@@QBEPBV12@XZ 120049f6 f i XMLGrammarPoolImpl.obj
 0001:000039f6       ?getFirstChild@DOMDocumentFragmentImpl@xercesc_3_1@@UBEPAVDOMNode@2@XZ 120049f6 f i DOMDocumentFragmentImpl.obj
 0001:000039f6       ?getContentSpec@XercesGroupInfo@xercesc_3_1@@QBEPAVContentSpecNode@2@XZ 120049f6 f i XMLGrammarPoolImpl.obj
 0001:000039f6       ?getFirstChild@DOMDocumentImpl@xercesc_3_1@@UBEPAVDOMNode@2@XZ 120049f6 f i DOMDocumentImpl.obj
 0001:000039f6       ?getFirstChild@DOMElementImpl@xercesc_3_1@@UBEPAVDOMNode@2@XZ 120049f6 f i DOMElementImpl.obj
 0001:000039f6       ?getSystemId@DOMNotationImpl@xercesc_3_1@@UBEPB_WXZ 120049f6 f i DOMNotationImpl.obj
 0001:000039f6       ?getFacetKind@XSFacet@xercesc_3_1@@QBE?AW4FACET@XSSimpleTypeDefinition@2@XZ 120049f6 f i XSFacet.obj
 0001:000039f6       ?getFixed@DatatypeValidator@xercesc_3_1@@IBEHXZ 120049f6 f i XMLAttr.obj
 0001:000039f6       ?getSystemId@XMLNotationDecl@xercesc_3_1@@QBEPB_WXZ 120049f6 f i XMLDTDDescription.obj
 0001:000039f6       ?getGrammar@DTDValidator@xercesc_3_1@@UBEPAVGrammar@2@XZ 120049f6 f i DGXMLScanner.obj
 0001:000039f6       ?getTypeCategory@XSTypeDefinition@xercesc_3_1@@QBE?AW4TYPE_CATEGORY@12@XZ 120049f6 f i XMLAttr.obj
 0001:000039f6       ?getPath@XMLURL@xercesc_3_1@@QBEPB_WXZ 120049f6 f i PlatformUtils.obj
 0001:000039f6       ?getPrefix@QName@xercesc_3_1@@QAEPA_WXZ 120049f6 f i QName.obj
 0001:000039f6       ?getSecond@ContentSpecNode@xercesc_3_1@@QAEPAV12@XZ 120049f6 f i XMLGrammarPoolImpl.obj
 0001:000039f6       ?getValidatingMemberType@ValidationContextImpl@xercesc_3_1@@UBEPAVDatatypeValidator@2@XZ 120049f6 f i ValidationContextImpl.obj
 0001:000039f6       ?getCanonicalRepresentation@PSVIItem@xercesc_3_1@@QBEPB_WXZ 120049f6 f i PSVIAttribute.obj
 0001:000039f6       ?getTermType@XSParticle@xercesc_3_1@@QBE?AW4TERM_TYPE@12@XZ 120049f6 f i XSComplexTypeDefinition.obj
 0001:000039f6       ?getNotationName@XMLEntityDecl@xercesc_3_1@@QBEPB_WXZ 120049f6 f i XMLDTDDescription.obj
 0001:000039f6       ?getFirstChild@DOMAttrImpl@xercesc_3_1@@UBEPAVDOMNode@2@XZ 120049f6 f i DOMAttrImpl.obj
 0001:000039f6       ?getNoParen@RegxParser@xercesc_3_1@@QBEHXZ 120049f6 f i ParserForXMLSchema.obj
 0001:000039f6       ?getPrefix@QName@xercesc_3_1@@QBEPB_WXZ 120049f6 f i QName.obj
 0001:000039f6       ?getId@XMLAttDef@xercesc_3_1@@QBEKXZ 120049f6 f i XMLAttDef.obj
 0001:000039f6       ?getRawData@XMLBigDecimal@xercesc_3_1@@UBEPA_WXZ 120049f6 f i XMLAbstractDoubleFloat.obj
 0001:000039f6       ?getFormattedString@XMLBigDecimal@xercesc_3_1@@UBEPB_WXZ 120049f6 f i XMLAbstractDoubleFloat.obj
 0001:000039f6       ?getFirstChild@DOMDocumentTypeImpl@xercesc_3_1@@UBEPAVDOMNode@2@XZ 120049f6 f i DOMDocumentTypeImpl.obj
 0001:000039f6       ?getFirstChild@DOMEntityReferenceImpl@xercesc_3_1@@UBEPAVDOMNode@2@XZ 120049f6 f i DOMEntityReferenceImpl.obj
 0001:000039f6       ?getLocator@XMLResourceIdentifier@xercesc_3_1@@QBEPBVLocator@2@XZ 120049f6 f i DGXMLScanner.obj
 0001:000039f6       ?getCurrentSchemaURL@SchemaInfo@xercesc_3_1@@QBEPA_WXZ 120049f6 f i IGXMLScanner.obj
 0001:000039f6       ?getMemoryManager@TokenFactory@xercesc_3_1@@QBEPAVMemoryManager@2@XZ 120049f6 f i ASCIIRangeFactory.obj
 0001:000039f6       ?getData@ModifierOp@xercesc_3_1@@UBEHXZ 120049f6 f i Op.obj
 0001:000039f6       ?getTriggeringComponent@XMLSchemaDescriptionImpl@xercesc_3_1@@UBEPBVQName@2@XZ 120049f6 f i XMLSchemaDescriptionImpl.obj
 0001:000039f6       ?getRegBasedAuthority@XMLUri@xercesc_3_1@@QBEPB_WXZ 120049f6 f i XMLString.obj
 0001:000039f6       ?getSystemId@DOMLSInputImpl@xercesc_3_1@@UBEPB_WXZ 120049f6 f i DOMImplementationImpl.obj
 0001:000039f6       ?getCompositor@XSModelGroup@xercesc_3_1@@QBE?AW4COMPOSITOR_TYPE@12@XZ 120049f6 f i XSModelGroup.obj
 0001:000039fa       ?getBlockDefault@SchemaInfo@xercesc_3_1@@QBEHXZ 120049fa f i IGXMLScanner.obj
 0001:000039fa       ?getMemoryManager@XMLURL@xercesc_3_1@@QBEPAVMemoryManager@2@XZ 120049fa f i PlatformUtils.obj
 0001:000039fa       ?getTokenType@Token@xercesc_3_1@@QBE?AW4tokType@12@XZ 120049fa f i ASCIIRangeFactory.obj
 0001:000039fa       ?getPublicId@XMLResourceIdentifier@xercesc_3_1@@QBEPB_WXZ 120049fa f i DGXMLScanner.obj
 0001:000039fa       ?getMemoryManager@RegxParser@xercesc_3_1@@IBEPAVMemoryManager@2@XZ 120049fa f i ParserForXMLSchema.obj
 0001:000039fa       ?getResultType@DOMXPathResultImpl@xercesc_3_1@@UBE?AW4ResultType@DOMXPathResult@2@XZ 120049fa f i DOMXPathResultImpl.obj
 0001:000039fa       ?getByteStream@DOMLSOutputImpl@xercesc_3_1@@UBEPAVXMLFormatTarget@2@XZ 120049fa f i DOMImplementationImpl.obj
 0001:000039fa       ?getEntityExpansionLimit@SecurityManager@xercesc_3_1@@UBEKXZ 120049fa f i XMLValidator.obj
 0001:000039fa       ?getEmptyNamespaceId@NamespaceScope@xercesc_3_1@@QBEIXZ 120049fa f i XMLGrammarPoolImpl.obj
 0001:000039fa       ?getXPath@IC_Selector@xercesc_3_1@@QBEPAVXercesXPath@2@XZ 120049fa f i XSIDCDefinition.obj
 0001:000039fa       ?getMemoryManager@XMLElementDecl@xercesc_3_1@@QBEPAVMemoryManager@2@XZ 120049fa f i XMLDTDDescription.obj
 0001:000039fa       ?getRoot@DOMNodeIteratorImpl@xercesc_3_1@@UAEPAVDOMNode@2@XZ 120049fa f i DOMNodeIteratorImpl.obj
 0001:000039fa       ?getUserDefinedRegistry@DatatypeValidatorFactory@xercesc_3_1@@QBEPAV?$RefHashTableOf@VDatatypeValidator@xercesc_3_1@@UStringHasher@2@@2@XZ 120049fa f i XMLGrammarPoolImpl.obj
 0001:000039fa       ?length@TranscodeFromStr@xercesc_3_1@@QBEKXZ 120049fa f i PlatformUtils.obj
 0001:000039fa       ?getMemoryManager@XMLGrammarPool@xercesc_3_1@@QAEPAVMemoryManager@2@XZ 120049fa f i XMLGrammarPoolImpl.obj
 0001:000039fa       ?getId@XMLNotationDecl@xercesc_3_1@@QBEKXZ 120049fa f i XMLDTDDescription.obj
 0001:000039fa       ?getNamespaces@XSModel@xercesc_3_1@@QAEPAV?$RefArrayVectorOf@_W@2@XZ 120049fa f i XMLGrammarPoolImpl.obj
 0001:000039fa       ?getTargetNamespace@SchemaGrammar@xercesc_3_1@@UBEPB_WXZ 120049fa f i XMLGrammarPoolImpl.obj
 0001:000039fa       ?getStringPool@GrammarResolver@xercesc_3_1@@QAEPAVXMLStringPool@2@XZ 120049fa f i XMLValidator.obj
 0001:000039fa       ?getEncodingName@XMLFormatter@xercesc_3_1@@QBEPB_WXZ 120049fa f i LocalFileFormatTarget.obj
 0001:000039fa       ?getCurrentEntity@ReaderMgr@xercesc_3_1@@QAEPAVXMLEntityDecl@2@XZ 120049fa f i ReaderMgr.obj
 0001:000039fa       ?getPort@XMLUri@xercesc_3_1@@QBEHXZ 120049fa f i XMLString.obj
 0001:000039fa       ?getMemoryManager@InputSource@xercesc_3_1@@QBEPAVMemoryManager@2@XZ 120049fa f i LocalFileInputSource.obj
 0001:000039fa       ?getDocument@DOMParentNode@xercesc_3_1@@QBEPAVDOMDocument@2@XZ 120049fa f i DOMParentNode.obj
 0001:000039fa       ?getId@XMLEntityDecl@xercesc_3_1@@QBEKXZ 120049fa f i XMLDTDDescription.obj
 0001:000039fa       ?getMemoryManager@XMLGrammarDescription@xercesc_3_1@@QBEPAVMemoryManager@2@XZ 120049fa f i XMLDTDDescription.obj
 0001:000039fa       ?getDefaultType@XMLAttDef@xercesc_3_1@@QBE?AW4DefAttTypes@12@XZ 120049fa f i XMLAttDef.obj
 0001:000039fa       ?getOwnerDocument@DOMParentNode@xercesc_3_1@@QBEPAVDOMDocument@2@XZ 120049fa f i DOMParentNode.obj
 0001:000039fa       ?getNextSibling@DOMChildNode@xercesc_3_1@@QBEPAVDOMNode@2@XZ 120049fa f i DOMChildNode.obj
 0001:000039fa       ?getRangeMap@RangeTokenMap@xercesc_3_1@@IBEPAV?$RefHashTableOf@VRangeFactory@xercesc_3_1@@UStringHasher@2@@2@XZ 120049fa f i ASCIIRangeFactory.obj
 0001:000039fa       ?getMessage@SAXException@xercesc_3_1@@UBEPB_WXZ 120049fa f i XSAnnotation.obj
 0001:000039fa       ?getStringData@DOMLSInputImpl@xercesc_3_1@@UBEPB_WXZ 120049fa f i DOMImplementationImpl.obj
 0001:000039fa       ?getBufMgr@XMLValidator@xercesc_3_1@@IBEPBVXMLBufferMgr@2@XZ 120049fa f i XMLValidator.obj
 0001:000039fa       ?getCurrentEntity@ReaderMgr@xercesc_3_1@@QBEPBVXMLEntityDecl@2@XZ 120049fa f i ReaderMgr.obj
 0001:000039fa       ?getType@XMLAttr@xercesc_3_1@@QBE?AW4AttTypes@XMLAttDef@2@XZ 120049fa f i XMLAttr.obj
 0001:000039fa       ?getSign@XMLBigDecimal@xercesc_3_1@@UBEHXZ 120049fa f i XMLAbstractDoubleFloat.obj
 0001:000039fa       ?getBufMgr@XMLValidator@xercesc_3_1@@IAEPAVXMLBufferMgr@2@XZ 120049fa f i XMLValidator.obj
 0001:000039fa       ?getMemoryManager@XMLAttDefList@xercesc_3_1@@QBEPAVMemoryManager@2@XZ 120049fa f i XMLAttDefList.obj
 0001:000039fa       ?getBlockSize@XMLTranscoder@xercesc_3_1@@QBEKXZ 120049fa f i PlatformUtils.obj
 0001:000039fa       ?getStorerLevel@XSerializeEngine@xercesc_3_1@@QBEIXZ 120049fa f i KVStringPair.obj
 0001:000039fa       ?getType@XSObject@xercesc_3_1@@QBE?AW4COMPONENT_TYPE@XSConstants@2@XZ 120049fa f i XMLAttr.obj
 0001:000039fa       ?getXPath@IC_Field@xercesc_3_1@@QBEPAVXercesXPath@2@XZ 120049fa f i XMLElementDecl.obj
 0001:000039fa       ?getReaderNum@EndOfEntityException@xercesc_3_1@@QBEKXZ 120049fa f i DGXMLScanner.obj
 0001:000039fa       ?getIdentityConstraintName@IdentityConstraint@xercesc_3_1@@QBEPA_WXZ 120049fa f i XMLElementDecl.obj
 0001:000039fa       ?length@TranscodeToStr@xercesc_3_1@@QBEKXZ 120049fa f i PlatformUtils.obj
 0001:000039fa       ?getWhatToShow@DOMTreeWalkerImpl@xercesc_3_1@@UAEKXZ 120049fa f i DOMTreeWalkerImpl.obj
 0001:000039fe       ??0EndOfEntityException@xercesc_3_1@@QAE@ABV01@@Z 120049fe f i DGXMLScanner.obj
 0001:000039fe       ??4DOMNodeImpl@xercesc_3_1@@QAEAAV01@ABV01@@Z 120049fe f i AbstractDOMParser.obj
 0001:000039fe       ??0XMLPScanToken@xercesc_3_1@@QAE@ABV01@@Z 120049fe f i XSAnnotation.obj
 0001:000039fe       ??4XProtoType@xercesc_3_1@@QAEAAV01@ABV01@@Z 120049fe f i KVStringPair.obj
 0001:00003a14       ??1XMLDTDDescription@xercesc_3_1@@UAE@XZ 12004a14 f i XMLDTDDescription.obj
 0001:00003a14       ??1XSerializable@xercesc_3_1@@UAE@XZ 12004a14 f i KVStringPair.obj
 0001:00003a14       ??1XMLAttDefList@xercesc_3_1@@UAE@XZ 12004a14 f i XMLAttDefList.obj
 0001:00003a14       ??1XMLGrammarDescription@xercesc_3_1@@UAE@XZ 12004a14 f i XMLGrammarDescription.obj
 0001:00003a14       ??1XMLSchemaDescription@xercesc_3_1@@UAE@XZ 12004a14 f i XMLSchemaDescription.obj
 0001:00003a14       ??1Grammar@xercesc_3_1@@UAE@XZ 12004a14 f i XMLDTDDescription.obj
 0001:00003a14       ??1XMLNumber@xercesc_3_1@@UAE@XZ 12004a14 f i XMLNumber.obj
 0001:00003a1b       ??0XSerializable@xercesc_3_1@@IAE@XZ 12004a1b f i KVStringPair.obj
 0001:00003a24       ??0XSerializable@xercesc_3_1@@IAE@ABV01@@Z 12004a24 f i KVStringPair.obj
 0001:00003a2f       ??_EXSerializable@xercesc_3_1@@UAEPAXI@Z 12004a2f f i KVStringPair.obj
 0001:00003a7c       ?setNodeValue@DOMEntityImpl@xercesc_3_1@@UAEXPB_W@Z 12004a7c f i DOMEntityImpl.obj
 0001:00003a7c       ?endAttList@SAXParser@xercesc_3_1@@UAEXABVDTDElementDecl@2@@Z 12004a7c f i SAXParser.obj
 0001:00003a7c       ?serialize@Grammar@xercesc_3_1@@UAEXAAVXSerializeEngine@2@@Z 12004a7c f i Grammar.obj
 0001:00003a7c       ?setMax@Token@xercesc_3_1@@UAEXH@Z 12004a7c f i ASCIIRangeFactory.obj
 0001:00003a7c       ?setNodeValue@DOMDocumentTypeImpl@xercesc_3_1@@UAEXPB_W@Z 12004a7c f i DOMDocumentTypeImpl.obj
 0001:00003a7c       ?setContentModel@SchemaElementDecl@xercesc_3_1@@UAEXQAVXMLContentModel@2@@Z 12004a7c f i XMLElementDecl.obj
 0001:00003a7c       ?setNamespaceScope@ValidationContext@xercesc_3_1@@UAEXPAVNamespaceScope@2@@Z 12004a7c f i XMLAttr.obj
 0001:00003a7c       ?setSystemId@XMLDTDDescription@xercesc_3_1@@UAEXQB_W@Z 12004a7c f i XMLDTDDescription.obj
 0001:00003a7c       ?error@DefaultHandler@xercesc_3_1@@UAEXABVSAXParseException@2@@Z 12004a7c f i sax2Dummy.obj
 0001:00003a7c       ?setDocumentLocator@HandlerBase@xercesc_3_1@@UAEXQBVLocator@2@@Z 12004a7c f i Dummy.obj
 0001:00003a7c       ?endEntityReference@XSDDOMParser@xercesc_3_1@@UAEXABVXMLEntityDecl@2@@Z 12004a7c f i XSDDOMParser.obj
 0001:00003a7c       ?warning@HandlerBase@xercesc_3_1@@UAEXABVSAXParseException@2@@Z 12004a7c f i Dummy.obj
 0001:00003a7c       ?checkAdditionalFacetConstraintsBase@AbstractNumericFacetValidator@xercesc_3_1@@MBEXQAVMemoryManager@2@@Z 12004a7c f i AbstractNumericFacetValidator.obj
 0001:00003a7c       ?serialize@XMLGrammarDescription@xercesc_3_1@@UAEXAAVXSerializeEngine@2@@Z 12004a7c f i XMLGrammarDescription.obj
 0001:00003a7c       ?setElemStack@ValidationContext@xercesc_3_1@@UAEXPAVElemStack@2@@Z 12004a7c f i XMLAttr.obj
 0001:00003a7c       ?serialize@XMLNumber@xercesc_3_1@@UAEXAAVXSerializeEngine@2@@Z 12004a7c f i XMLNumber.obj
 0001:00003a7c       ?trace@XSerializeEngine@xercesc_3_1@@QBEXPAD@Z 12004a7c f i XSerializeEngine.obj
 0001:00003a7c       ?setNodeValue@DOMDocumentImpl@xercesc_3_1@@UAEXPB_W@Z 12004a7c f i DOMDocumentImpl.obj
 0001:00003a7c       ?setScanner@ValidationContext@xercesc_3_1@@UAEXPAVXMLScanner@2@@Z 12004a7c f i XMLAttr.obj
 0001:00003a7c       ?setLexicalHandler@SAX2XMLFilterImpl@xercesc_3_1@@UAEXQAVLexicalHandler@2@@Z 12004a7c f i SAX2XMLFilterImpl.obj
 0001:00003a7c       ?serialize@XMLDTDDescription@xercesc_3_1@@UAEXAAVXSerializeEngine@2@@Z 12004a7c f i XMLDTDDescription.obj
 0001:00003a7c       ?validateElement@DTDValidator@xercesc_3_1@@UAEXPBVXMLElementDecl@2@@Z 12004a7c f i DGXMLScanner.obj
 0001:00003a7c       ?serialize@XMLAttDefList@xercesc_3_1@@UAEXAAVXSerializeEngine@2@@Z 12004a7c f i XMLAttDefList.obj
 0001:00003a7c       ?setBaseURI@Wrapper4InputSource@xercesc_3_1@@UAEXQB_W@Z 12004a7c f i Wrapper4InputSource.obj
 0001:00003a7c       ?doctypeComment@SAXParser@xercesc_3_1@@UAEXQB_W@Z 12004a7c f i SAXParser.obj
 0001:00003a7c       ?skippedEntity@DefaultHandler@xercesc_3_1@@UAEXQB_W@Z 12004a7c f i sax2Dummy.obj
 0001:00003a7c       ?setEnclosingCT@SchemaAttDef@xercesc_3_1@@QAEXPAVComplexTypeInfo@2@@Z 12004a7c f i XMLElementDecl.obj
 0001:00003a7c       ?checkAdditionalFacetConstraints@AbstractNumericFacetValidator@xercesc_3_1@@MBEXQAVMemoryManager@2@@Z 12004a7c f i AbstractNumericFacetValidator.obj
 0001:00003a7c       ?setDeclarationHandler@SAX2XMLFilterImpl@xercesc_3_1@@UAEXQAVDeclHandler@2@@Z 12004a7c f i SAX2XMLFilterImpl.obj
 0001:00003a7c       ?endInputSource@XercesDOMParser@xercesc_3_1@@UAEXABVInputSource@2@@Z 12004a7c f i XSAnnotation.obj
 0001:00003a7c       ?setNodeValue@DOMEntityReferenceImpl@xercesc_3_1@@UAEXPB_W@Z 12004a7c f i DOMEntityReferenceImpl.obj
 0001:00003a7c       ?endEntity@DefaultHandler@xercesc_3_1@@UAEXQB_W@Z 12004a7c f i sax2Dummy.obj
 0001:00003a7c       ?warning@DefaultHandler@xercesc_3_1@@UAEXABVSAXParseException@2@@Z 12004a7c f i sax2Dummy.obj
 0001:00003a7c       ?endAttList@SAX2XMLReaderImpl@xercesc_3_1@@UAEXABVDTDElementDecl@2@@Z 12004a7c f i SAX2XMLReaderImpl.obj
 0001:00003a7c       ?startInputSource@SAXParser@xercesc_3_1@@UAEXABVInputSource@2@@Z 12004a7c f i SAXParser.obj
 0001:00003a7c       ?startEntityReference@XSDDOMParser@xercesc_3_1@@UAEXABVXMLEntityDecl@2@@Z 12004a7c f i XSDDOMParser.obj
 0001:00003a7c       ?setNodeValue@DOMDocumentFragmentImpl@xercesc_3_1@@UAEXPB_W@Z 12004a7c f i DOMDocumentFragmentImpl.obj
 0001:00003a7c       ?setNodeValue@DOMNodeImpl@xercesc_3_1@@QAEXPB_W@Z 12004a7c f i DOMNodeImpl.obj
 0001:00003a7c       ?checkAdditionalFacetConstraints@AbstractStringValidator@xercesc_3_1@@MBEXQAVMemoryManager@2@@Z 12004a7c f i AbstractStringValidator.obj
 0001:00003a7c       ?serialize@XSerializable@xercesc_3_1@@UAEXAAVXSerializeEngine@2@@Z 12004a7c f i KVStringPair.obj
 0001:00003a7c       ?startInputSource@DOMLSParserImpl@xercesc_3_1@@UAEXABVInputSource@2@@Z 12004a7c f i DOMLSParserImpl.obj
 0001:00003a7c       ?endElement@HandlerBase@xercesc_3_1@@UAEXQB_W@Z 12004a7c f i Dummy.obj
 0001:00003a7c       ?setNodeValue@DOMElementImpl@xercesc_3_1@@UAEXPB_W@Z 12004a7c f i DOMElementImpl.obj
 0001:00003a7c       ?startInputSource@XercesDOMParser@xercesc_3_1@@UAEXABVInputSource@2@@Z 12004a7c f i XSAnnotation.obj
 0001:00003a7c       ?error@HandlerBase@xercesc_3_1@@UAEXABVSAXParseException@2@@Z 12004a7c f i Dummy.obj
 0001:00003a7c       ?startAttList@SAX2XMLReaderImpl@xercesc_3_1@@UAEXABVDTDElementDecl@2@@Z 12004a7c f i SAX2XMLReaderImpl.obj
 0001:00003a7c       ?startEntity@DefaultHandler@xercesc_3_1@@UAEXQB_W@Z 12004a7c f i sax2Dummy.obj
 0001:00003a7c       ?endInputSource@SAXParser@xercesc_3_1@@UAEXABVInputSource@2@@Z 12004a7c f i SAXParser.obj
 0001:00003a7c       ?serialize@XMLSchemaDescription@xercesc_3_1@@UAEXAAVXSerializeEngine@2@@Z 12004a7c f i XMLSchemaDescription.obj
 0001:00003a7c       ?setStringData@Wrapper4InputSource@xercesc_3_1@@UAEXPB_W@Z 12004a7c f i Wrapper4InputSource.obj
 0001:00003a7c       ?setMin@Token@xercesc_3_1@@UAEXH@Z 12004a7c f i ASCIIRangeFactory.obj
 0001:00003a7c       ?setByteStream@Wrapper4InputSource@xercesc_3_1@@UAEXPAVInputSource@2@@Z 12004a7c f i Wrapper4InputSource.obj
 0001:00003a7c       ?setDocumentLocator@DefaultHandler@xercesc_3_1@@UAEXQBVLocator@2@@Z 12004a7c f i sax2Dummy.obj
 0001:00003a7c       ?endPrefixMapping@DefaultHandler@xercesc_3_1@@UAEXQB_W@Z 12004a7c f i sax2Dummy.obj
 0001:00003a7c       ?setNodeValue@DOMNotationImpl@xercesc_3_1@@UAEXPB_W@Z 12004a7c f i DOMNotationImpl.obj
 0001:00003a7c       ?endInputSource@SAX2XMLReaderImpl@xercesc_3_1@@UAEXABVInputSource@2@@Z 12004a7c f i SAX2XMLReaderImpl.obj
 0001:00003a7c       ?setInputBufferSize@SAX2XMLReader@xercesc_3_1@@UAEXK@Z 12004a7c f i XSAnnotation.obj
 0001:00003a7c       ?setContentSpec@SchemaElementDecl@xercesc_3_1@@UAEXPAVContentSpecNode@2@@Z 12004a7c f i XMLElementDecl.obj
 0001:00003a7c       ?startInputSource@SAX2XMLReaderImpl@xercesc_3_1@@UAEXABVInputSource@2@@Z 12004a7c f i SAX2XMLReaderImpl.obj
 0001:00003a7c       ?installAdvDocHandler@SAX2XMLFilterImpl@xercesc_3_1@@UAEXQAVXMLDocumentHandler@2@@Z 12004a7c f i SAX2XMLFilterImpl.obj
 0001:00003a7c       ?endInputSource@DOMLSParserImpl@xercesc_3_1@@UAEXABVInputSource@2@@Z 12004a7c f i DOMLSParserImpl.obj
 0001:00003a7c       ?startAttList@SAXParser@xercesc_3_1@@UAEXABVDTDElementDecl@2@@Z 12004a7c f i SAXParser.obj
 0001:00003a7f       ??_FKVStringPair@xercesc_3_1@@QAEXXZ 12004a7f f i KVStringPair.obj
 0001:00003a8b       ??_EKVStringPair@xercesc_3_1@@UAEPAXI@Z 12004a8b f i KVStringPair.obj
 0001:00003ad6       ?getString@StringToken@xercesc_3_1@@UBEPB_WXZ 12004ad6 f i ParserForXMLSchema.obj
 0001:00003ad6       ?getPassword@XMLURL@xercesc_3_1@@QBEPB_WXZ 12004ad6 f i PlatformUtils.obj
 0001:00003ad6       ?getAttName@XMLAttr@xercesc_3_1@@QBEPAVQName@2@XZ 12004ad6 f i XMLAttr.obj
 0001:00003ad6       ?getPublicId@DOMLSInputImpl@xercesc_3_1@@UBEPB_WXZ 12004ad6 f i DOMImplementationImpl.obj
 0001:00003ad6       ?getOwnerDocument@DOMDocumentTypeImpl@xercesc_3_1@@UBEPAVDOMDocument@2@XZ 12004ad6 f i DOMDocumentTypeImpl.obj
 0001:00003ad6       ?getType@XMLAbstractDoubleFloat@xercesc_3_1@@QBE?AW4LiteralType@12@XZ 12004ad6 f i XMLAbstractDoubleFloat.obj
 0001:00003ad6       ?getNextSibling@DOMCDATASectionImpl@xercesc_3_1@@UBEPAVDOMNode@2@XZ 12004ad6 f i DOMCDATASectionImpl.obj
 0001:00003ad6       ?getName@XMLEntityDecl@xercesc_3_1@@QBEPB_WXZ 12004ad6 f i XMLDTDDescription.obj
 0001:00003ad6       ?getNextSibling@DOMProcessingInstructionImpl@xercesc_3_1@@UBEPAVDOMNode@2@XZ 12004ad6 f i DOMProcessingInstructionImpl.obj
 0001:00003ad6       ?getURI@QName@xercesc_3_1@@QBEIXZ 12004ad6 f i QName.obj
 0001:00003ad6       ?getSchemaLocation@DOMConfigurationImpl@xercesc_3_1@@QBEPB_WXZ 12004ad6 f i DOMConfigurationImpl.obj
 0001:00003ad6       ?getPublicId@DOMNotationImpl@xercesc_3_1@@UBEPB_WXZ 12004ad6 f i DOMNotationImpl.obj
 0001:00003ad6       ?getKey@XMLEntityDecl@xercesc_3_1@@QBEPB_WXZ 12004ad6 f i XMLDTDDescription.obj
 0001:00003ad6       ?getFacetsDefined@DatatypeValidator@xercesc_3_1@@IBEHXZ 12004ad6 f i XMLAttr.obj
 0001:00003ad6       ?getOwnerDocument@DOMDocumentFragmentImpl@xercesc_3_1@@UBEPAVDOMDocument@2@XZ 12004ad6 f i DOMDocumentFragmentImpl.obj
 0001:00003ad6       ?getBuiltinDatatypeValidatorFactory@GrammarResolver@xercesc_3_1@@QAEPAVDatatypeValidatorFactory@2@XZ 12004ad6 f i XMLValidator.obj
 0001:00003ad6       ?getLocation@DOMErrorImpl@xercesc_3_1@@UBEPAVDOMLocator@2@XZ 12004ad6 f i DOMLSParserImpl.obj
 0001:00003ad6       ?getFilter@DOMNodeIteratorImpl@xercesc_3_1@@UAEPAVDOMNodeFilter@2@XZ 12004ad6 f i DOMNodeIteratorImpl.obj
 0001:00003ad6       ?getLiteral@StringOp@xercesc_3_1@@UBEPB_WXZ 12004ad6 f i Op.obj
 0001:00003ad6       ?getOwnerDocument@DOMEntityReferenceImpl@xercesc_3_1@@UBEPAVDOMDocument@2@XZ 12004ad6 f i DOMEntityReferenceImpl.obj
 0001:00003ad6       ?getOwnerDocument@DOMEntityImpl@xercesc_3_1@@UBEPAVDOMDocument@2@XZ 12004ad6 f i DOMEntityImpl.obj
 0001:00003ad6       ?getRoot@DOMTreeWalkerImpl@xercesc_3_1@@UAEPAVDOMNode@2@XZ 12004ad6 f i DOMTreeWalkerImpl.obj
 0001:00003ad6       ?getEntityDeclPool@DTDGrammar@xercesc_3_1@@QBEPBV?$NameIdPool@VDTDEntityDecl@xercesc_3_1@@@2@XZ 12004ad6 f i XMLGrammarPoolImpl.obj
 0001:00003ad6       ?getScanner@XMLValidator@xercesc_3_1@@IBEPBVXMLScanner@2@XZ 12004ad6 f i XMLValidator.obj
 0001:00003ad6       ?getNamespaceId@XercesGroupInfo@xercesc_3_1@@QBEIXZ 12004ad6 f i XMLGrammarPoolImpl.obj
 0001:00003ad6       ?getOwnerDocument@DOMAttrImpl@xercesc_3_1@@UBEPAVDOMDocument@2@XZ 12004ad6 f i DOMAttrImpl.obj
 0001:00003ad6       ?getOwnerDocument@DOMElementImpl@xercesc_3_1@@UBEPAVDOMDocument@2@XZ 12004ad6 f i DOMElementImpl.obj
 0001:00003ad6       ?getNextSibling@DOMCommentImpl@xercesc_3_1@@UBEPAVDOMNode@2@XZ 12004ad6 f i DOMCommentImpl.obj
 0001:00003ad6       ?getToken@RangeOp@xercesc_3_1@@UBEPBVToken@2@XZ 12004ad6 f i Op.obj
 0001:00003ad6       ?getFirst@ContentSpecNode@xercesc_3_1@@QBEPBV12@XZ 12004ad6 f i XMLGrammarPoolImpl.obj
 0001:00003ad6       ?getFirst@ContentSpecNode@xercesc_3_1@@QAEPAV12@XZ 12004ad6 f i XMLGrammarPoolImpl.obj
 0001:00003ad6       ?getId@XMLElementDecl@xercesc_3_1@@QBEKXZ 12004ad6 f i XMLDTDDescription.obj
 0001:00003ad6       ?getTranscoder@XMLFormatter@xercesc_3_1@@QAEPAVXMLTranscoder@2@XZ 12004ad6 f i LocalFileFormatTarget.obj
 0001:00003ad6       ?getPublicId@XMLNotationDecl@xercesc_3_1@@QBEPB_WXZ 12004ad6 f i XMLDTDDescription.obj
 0001:00003ad6       ?getMax@ClosureToken@xercesc_3_1@@UBEHXZ 12004ad6 f i ClosureToken.obj
 0001:00003ad6       ?getTranscoder@XMLFormatter@xercesc_3_1@@QBEPBVXMLTranscoder@2@XZ 12004ad6 f i LocalFileFormatTarget.obj
 0001:00003ad6       ?getLocationHints@XMLSchemaDescriptionImpl@xercesc_3_1@@UBEPBV?$RefArrayVectorOf@_W@2@XZ 12004ad6 f i XMLSchemaDescriptionImpl.obj
 0001:00003ad6       ?getValue@KVStringPair@xercesc_3_1@@QBEPB_WXZ 12004ad6 f i KVStringPair.obj
 0001:00003ad6       ?getNextSibling@DOMTextImpl@xercesc_3_1@@UBEPAVDOMNode@2@XZ 12004ad6 f i DOMTextImpl.obj
 0001:00003ad6       ?getNameSpace@XMLResourceIdentifier@xercesc_3_1@@QBEPB_WXZ 12004ad6 f i DGXMLScanner.obj
 0001:00003ad6       ?getBlockSet@ComplexTypeInfo@xercesc_3_1@@QBEHXZ 12004ad6 f i XMLElementDecl.obj
 0001:00003ad6       ?getSystemId@InputSource@xercesc_3_1@@UBEPB_WXZ 12004ad6 f i LocalFileInputSource.obj
 0001:00003ad6       ?getScanner@XMLValidator@xercesc_3_1@@IAEPAVXMLScanner@2@XZ 12004ad6 f i XMLValidator.obj
 0001:00003ad6       ?getValue@KVStringPair@xercesc_3_1@@QAEPA_WXZ 12004ad6 f i KVStringPair.obj
 0001:00003ad6       ?getId@XSObject@xercesc_3_1@@UBEKXZ 12004ad6 f i XSObject.obj
 0001:00003ad6       ?getEntityDeclPool@DTDGrammar@xercesc_3_1@@QAEPAV?$NameIdPool@VDTDEntityDecl@xercesc_3_1@@@2@XZ 12004ad6 f i XMLGrammarPoolImpl.obj
 0001:00003ad6       ?getNamespaceScope@SchemaInfo@xercesc_3_1@@QBEPAVNamespaceScope@2@XZ 12004ad6 f i IGXMLScanner.obj
 0001:00003ad6       ?getOffset@RegxParser@xercesc_3_1@@QBEKXZ 12004ad6 f i ParserForXMLSchema.obj
 0001:00003ad6       ?getData@CharOp@xercesc_3_1@@UBEHXZ 12004ad6 f i Op.obj
 0001:00003ad6       ?getHost@XMLUri@xercesc_3_1@@QBEPB_WXZ 12004ad6 f i XMLString.obj
 0001:00003ad6       ?getChild@ChildOp@xercesc_3_1@@UBEPBVOp@2@XZ 12004ad6 f i Op.obj
 0001:00003ad6       ?getSchemaDefault@PSVIItem@xercesc_3_1@@QAEPB_WXZ 12004ad6 f i PSVIAttribute.obj
 0001:00003ada       ?setKey@KVStringPair@xercesc_3_1@@QAEXQB_W@Z 12004ada f i KVStringPair.obj
 0001:00003af9       ?setValue@KVStringPair@xercesc_3_1@@QAEXQB_W@Z 12004af9 f i KVStringPair.obj
 0001:00003b18       ?setKey@KVStringPair@xercesc_3_1@@QAEXQB_WK@Z 12004b18 f i KVStringPair.obj
 0001:00003b67       ?setValue@KVStringPair@xercesc_3_1@@QAEXQB_WK@Z 12004b67 f i KVStringPair.obj
 0001:00003bb6       ?set@KVStringPair@xercesc_3_1@@QAEXQB_W0@Z 12004bb6 f i KVStringPair.obj
 0001:00003be9       ?set@KVStringPair@xercesc_3_1@@QAEXQB_WK0K@Z 12004be9 f i KVStringPair.obj
 0001:00003c0c       ??0KVStringPair@xercesc_3_1@@QAE@QAVMemoryManager@1@@Z 12004c0c f   KVStringPair.obj
 0001:00003c2f       ??0KVStringPair@xercesc_3_1@@QAE@QB_W0QAVMemoryManager@1@@Z 12004c2f f   KVStringPair.obj
 0001:00003c72       ??0KVStringPair@xercesc_3_1@@QAE@QB_W0KQAVMemoryManager@1@@Z 12004c72 f   KVStringPair.obj
 0001:00003ccb       ??0KVStringPair@xercesc_3_1@@QAE@QB_WK0KQAVMemoryManager@1@@Z 12004ccb f   KVStringPair.obj
 0001:00003d1b       ??0KVStringPair@xercesc_3_1@@QAE@ABV01@@Z 12004d1b f   KVStringPair.obj
 0001:00003d63       ??1KVStringPair@xercesc_3_1@@UAE@XZ 12004d63 f   KVStringPair.obj
 0001:00003da0       ?createObject@KVStringPair@xercesc_3_1@@SAPAVXSerializable@2@PAVMemoryManager@2@@Z 12004da0 f   KVStringPair.obj
 0001:00003dc3       ?isRepeatableLeaf@CMRepeatingLeaf@xercesc_3_1@@UBE_NXZ 12004dc3 f   DFAContentModel.obj
 0001:00003dc3       ?isSerializable@IDDatatypeValidator@xercesc_3_1@@UBE_NXZ 12004dc3 f   IDDatatypeValidator.obj
 0001:00003dc3       ?isSerializable@StringDatatypeValidator@xercesc_3_1@@UBE_NXZ 12004dc3 f   StringDatatypeValidator.obj
 0001:00003dc3       ?isSerializable@DTDAttDefList@xercesc_3_1@@UBE_NXZ 12004dc3 f   DTDAttDefList.obj
 0001:00003dc3       ?isSerializable@NOTATIONDatatypeValidator@xercesc_3_1@@UBE_NXZ 12004dc3 f   NOTATIONDatatypeValidator.obj
 0001:00003dc3       ?isSerializable@YearMonthDatatypeValidator@xercesc_3_1@@UBE_NXZ 12004dc3 f   YearMonthDatatypeValidator.obj
 0001:00003dc3       ?isSerializable@IC_Key@xercesc_3_1@@UBE_NXZ 12004dc3 f   IC_Key.obj
 0001:00003dc3       ?isSerializable@QName@xercesc_3_1@@UBE_NXZ 12004dc3 f   QName.obj
 0001:00003dc3       ?isSerializable@XMLStringPool@xercesc_3_1@@UBE_NXZ 12004dc3 f   StringPool.obj
 0001:00003dc3       ?isSerializable@XMLNumber@xercesc_3_1@@UBE_NXZ 12004dc3 f   XMLNumber.obj
 0001:00003dc3       ?isSerializable@XercesAttGroupInfo@xercesc_3_1@@UBE_NXZ 12004dc3 f   XercesAttGroupInfo.obj
 0001:00003dc3       ?isSerializable@ENTITYDatatypeValidator@xercesc_3_1@@UBE_NXZ 12004dc3 f   ENTITYDatatypeValidator.obj
 0001:00003dc3       ?isSerializable@AnyURIDatatypeValidator@xercesc_3_1@@UBE_NXZ 12004dc3 f   AnyURIDatatypeValidator.obj
 0001:00003dc3       ?isSerializable@DatatypeValidatorFactory@xercesc_3_1@@UBE_NXZ 12004dc3 f   DatatypeValidatorFactory.obj
 0001:00003dc3       ?requiresNamespaces@SchemaValidator@xercesc_3_1@@UBE_NXZ 12004dc3 f   SchemaValidator.obj
 0001:00003dc3       ?isSerializable@XMLDTDDescriptionImpl@xercesc_3_1@@UBE_NXZ 12004dc3 f   XMLDTDDescriptionImpl.obj
 0001:00003dc3       ?isSerializable@NameDatatypeValidator@xercesc_3_1@@UBE_NXZ 12004dc3 f   NameDatatypeValidator.obj
 0001:00003dc3       ?isSerializable@UnionDatatypeValidator@xercesc_3_1@@UBE_NXZ 12004dc3 f   UnionDatatypeValidator.obj
 0001:00003dc3       ?supportsSrcOfs@Win32TransService@xercesc_3_1@@UBE_NXZ 12004dc3 f   Win32TransService.obj
 0001:00003dc3       ?isSerializable@BooleanDatatypeValidator@xercesc_3_1@@UBE_NXZ 12004dc3 f   BooleanDatatypeValidator.obj
 0001:00003dc3       ?isSerializable@XMLUri@xercesc_3_1@@UBE_NXZ 12004dc3 f   XMLUri.obj
 0001:00003dc3       ?isSerializable@XercesXPath@xercesc_3_1@@UBE_NXZ 12004dc3 f   XercesXPath.obj
 0001:00003dc3       ?isSerializable@SchemaAttDef@xercesc_3_1@@UBE_NXZ 12004dc3 f   SchemaAttDef.obj
 0001:00003dc3       ?isSerializable@ListDatatypeValidator@xercesc_3_1@@UBE_NXZ 12004dc3 f   ListDatatypeValidator.obj
 0001:00003dc3       ?isSerializable@YearDatatypeValidator@xercesc_3_1@@UBE_NXZ 12004dc3 f   YearDatatypeValidator.obj
 0001:00003dc3       ?isSerializable@XMLDTDDescription@xercesc_3_1@@UBE_NXZ 12004dc3 f   XMLDTDDescription.obj
 0001:00003dc3       ?isSerializable@ContentSpecNode@xercesc_3_1@@UBE_NXZ 12004dc3 f   ContentSpecNode.obj
 0001:00003dc3       ?isSerializable@TimeDatatypeValidator@xercesc_3_1@@UBE_NXZ 12004dc3 f   TimeDatatypeValidator.obj
 0001:00003dc3       ?isSerializable@NCNameDatatypeValidator@xercesc_3_1@@UBE_NXZ 12004dc3 f   NCNameDatatypeValidator.obj
 0001:00003dc3       ?isSerializable@ComplexTypeInfo@xercesc_3_1@@UBE_NXZ 12004dc3 f   ComplexTypeInfo.obj
 0001:00003dc3       ?isSerializable@AnySimpleTypeDatatypeValidator@xercesc_3_1@@UBE_NXZ 12004dc3 f   AnySimpleTypeDatatypeValidator.obj
 0001:00003dc3       ?isSerializable@XercesGroupInfo@xercesc_3_1@@UBE_NXZ 12004dc3 f   XercesGroupInfo.obj
 0001:00003dc3       ?isSerializable@DateTimeDatatypeValidator@xercesc_3_1@@UBE_NXZ 12004dc3 f   DateTimeDatatypeValidator.obj
 0001:00003dc3       ?isSerializable@XSAnnotation@xercesc_3_1@@UBE_NXZ 12004dc3 f   XSAnnotation.obj
 0001:00003dc3       ?isSerializable@XercesLocationPath@xercesc_3_1@@UBE_NXZ 12004dc3 f   XercesXPath.obj
 0001:00003dc3       ?isSerializable@XMLAttDef@xercesc_3_1@@UBE_NXZ 12004dc3 f   XMLAttDef.obj
 0001:00003dc3       ?isSerializable@XMLAttDefList@xercesc_3_1@@UBE_NXZ 12004dc3 f   XMLAttDefList.obj
 0001:00003dc3       ?isSerializable@XMLFloat@xercesc_3_1@@UBE_NXZ 12004dc3 f   XMLFloat.obj
 0001:00003dc3       ?isSerializable@AbstractNumericFacetValidator@xercesc_3_1@@UBE_NXZ 12004dc3 f   AbstractNumericFacetValidator.obj
 0001:00003dc3       ?isSerializable@XMLElementDecl@xercesc_3_1@@UBE_NXZ 12004dc3 f   XMLElementDecl.obj
 0001:00003dc3       ?isSerializable@XMLDouble@xercesc_3_1@@UBE_NXZ 12004dc3 f   XMLDouble.obj
 0001:00003dc3       ?handlesSchema@SchemaValidator@xercesc_3_1@@UBE_NXZ 12004dc3 f   IGXMLScanner.obj
 0001:00003dc3       ?isSerializable@IC_KeyRef@xercesc_3_1@@UBE_NXZ 12004dc3 f   IC_KeyRef.obj
 0001:00003dc3       ?isSerializable@XercesStep@xercesc_3_1@@UBE_NXZ 12004dc3 f   XercesXPath.obj
 0001:00003dc3       ?isSerializable@AbstractStringValidator@xercesc_3_1@@UBE_NXZ 12004dc3 f   AbstractStringValidator.obj
 0001:00003dc3       ?isSerializable@DTDEntityDecl@xercesc_3_1@@UBE_NXZ 12004dc3 f   DTDEntityDecl.obj
 0001:00003dc3       ?isSerializable@XMLBigDecimal@xercesc_3_1@@UBE_NXZ 12004dc3 f   XMLBigDecimal.obj
 0001:00003dc3       ?isSerializable@XMLSchemaDescriptionImpl@xercesc_3_1@@UBE_NXZ 12004dc3 f   XMLSchemaDescriptionImpl.obj
 0001:00003dc3       ?isSerializable@MonthDayDatatypeValidator@xercesc_3_1@@UBE_NXZ 12004dc3 f   MonthDayDatatypeValidator.obj
 0001:00003dc3       ?isSerializable@DTDAttDef@xercesc_3_1@@UBE_NXZ 12004dc3 f   DTDAttDef.obj
 0001:00003dc3       ?isSerializable@IDREFDatatypeValidator@xercesc_3_1@@UBE_NXZ 12004dc3 f   IDREFDatatypeValidator.obj
 0001:00003dc3       ?isSerializable@AbstractNumericValidator@xercesc_3_1@@UBE_NXZ 12004dc3 f   AbstractNumericValidator.obj
 0001:00003dc3       ?isSerializable@DTDGrammar@xercesc_3_1@@UBE_NXZ 12004dc3 f   DTDGrammar.obj
 0001:00003dc3       ?isSerializable@HexBinaryDatatypeValidator@xercesc_3_1@@UBE_NXZ 12004dc3 f   HexBinaryDatatypeValidator.obj
 0001:00003dc3       ?isSerializable@IC_Selector@xercesc_3_1@@UBE_NXZ 12004dc3 f   IC_Selector.obj
 0001:00003dc3       ?isSerializable@DayDatatypeValidator@xercesc_3_1@@UBE_NXZ 12004dc3 f   DayDatatypeValidator.obj
 0001:00003dc3       ?isSerializable@Base64BinaryDatatypeValidator@xercesc_3_1@@UBE_NXZ 12004dc3 f   Base64BinaryDatatypeValidator.obj
 0001:00003dc3       ?isSerializable@IdentityConstraint@xercesc_3_1@@UBE_NXZ 12004dc3 f   IdentityConstraint.obj
 0001:00003dc3       ?isSerializable@XMLNotationDecl@xercesc_3_1@@UBE_NXZ 12004dc3 f   XMLNotationDecl.obj
 0001:00003dc3       ?isSerializable@XMLRefInfo@xercesc_3_1@@UBE_NXZ 12004dc3 f   XMLRefInfo.obj
 0001:00003dc3       ?isSerializable@DoubleDatatypeValidator@xercesc_3_1@@UBE_NXZ 12004dc3 f   DoubleDatatypeValidator.obj
 0001:00003dc3       ?isSerializable@XMLGrammarDescription@xercesc_3_1@@UBE_NXZ 12004dc3 f   XMLGrammarDescription.obj
 0001:00003dc3       ?handlesDTD@DTDValidator@xercesc_3_1@@UBE_NXZ 12004dc3 f   DGXMLScanner.obj
 0001:00003dc3       ?isSerializable@IC_Field@xercesc_3_1@@UBE_NXZ 12004dc3 f   IC_Field.obj
 0001:00003dc3       ?isSerializable@XMLDateTime@xercesc_3_1@@UBE_NXZ 12004dc3 f   XMLDateTime.obj
 0001:00003dc3       ?isSerializable@XMLEntityDecl@xercesc_3_1@@UBE_NXZ 12004dc3 f   XMLEntityDecl.obj
 0001:00003dc3       ?isSerializable@DateDatatypeValidator@xercesc_3_1@@UBE_NXZ 12004dc3 f   DateDatatypeValidator.obj
 0001:00003dc3       ?isSerializable@SchemaGrammar@xercesc_3_1@@UBE_NXZ 12004dc3 f   SchemaGrammar.obj
 0001:00003dc3       ?isSerializable@MonthDatatypeValidator@xercesc_3_1@@UBE_NXZ 12004dc3 f   MonthDatatypeValidator.obj
 0001:00003dc3       ?isSerializable@XMLAbstractDoubleFloat@xercesc_3_1@@UBE_NXZ 12004dc3 f   XMLAbstractDoubleFloat.obj
 0001:00003dc3       ?isSerializable@SchemaElementDecl@xercesc_3_1@@UBE_NXZ 12004dc3 f   SchemaElementDecl.obj
 0001:00003dc3       ?isSerializable@QNameDatatypeValidator@xercesc_3_1@@UBE_NXZ 12004dc3 f   QNameDatatypeValidator.obj
 0001:00003dc3       ?isSerializable@DatatypeValidator@xercesc_3_1@@UBE_NXZ 12004dc3 f   DatatypeValidator.obj
 0001:00003dc3       ?isAtomic@DatatypeValidator@xercesc_3_1@@UBE_NXZ 12004dc3 f   XMLAttr.obj
 0001:00003dc3       ?isSerializable@DecimalDatatypeValidator@xercesc_3_1@@UBE_NXZ 12004dc3 f   DecimalDatatypeValidator.obj
 0001:00003dc3       ?isSerializable@KVStringPair@xercesc_3_1@@UBE_NXZ 12004dc3 f   KVStringPair.obj
 0001:00003dc3       ?isSerializable@XercesNodeTest@xercesc_3_1@@UBE_NXZ 12004dc3 f   XercesXPath.obj
 0001:00003dc3       ?isSerializable@SchemaAttDefList@xercesc_3_1@@UBE_NXZ 12004dc3 f   SchemaAttDefList.obj
 0001:00003dc3       ?isSerializable@DurationDatatypeValidator@xercesc_3_1@@UBE_NXZ 12004dc3 f   DurationDatatypeValidator.obj
 0001:00003dc3       ?isSerializable@XMLSchemaDescription@xercesc_3_1@@UBE_NXZ 12004dc3 f   XMLSchemaDescription.obj
 0001:00003dc3       ?isSerializable@DateTimeValidator@xercesc_3_1@@UBE_NXZ 12004dc3 f   DateTimeValidator.obj
 0001:00003dc3       ?isSerializable@IC_Unique@xercesc_3_1@@UBE_NXZ 12004dc3 f   IC_Unique.obj
 0001:00003dc3       ?isSerializable@DTDElementDecl@xercesc_3_1@@UBE_NXZ 12004dc3 f   DTDElementDecl.obj
 0001:00003dc3       ?isSerializable@Grammar@xercesc_3_1@@UBE_NXZ 12004dc3 f   Grammar.obj
 0001:00003dc3       ?isSerializable@FloatDatatypeValidator@xercesc_3_1@@UBE_NXZ 12004dc3 f   FloatDatatypeValidator.obj
 0001:00003dc6       ?getProtoType@KVStringPair@xercesc_3_1@@UBEPAVXProtoType@2@XZ 12004dc6 f   KVStringPair.obj
 0001:00003dcc       ?serialize@KVStringPair@xercesc_3_1@@UAEXAAVXSerializeEngine@2@@Z 12004dcc f   KVStringPair.obj
 0001:00003e2c       ??_FXMLMutex@xercesc_3_1@@QAEXXZ 12004e2c f i Mutexes.obj
 0001:00003e38       ??0XMLMutex@xercesc_3_1@@QAE@QAVMemoryManager@1@@Z 12004e38 f   Mutexes.obj
 0001:00003e57       ??1XMLMutex@xercesc_3_1@@QAE@XZ 12004e57 f   Mutexes.obj
 0001:00003e70       ?lock@XMLMutex@xercesc_3_1@@QAEXXZ 12004e70 f   Mutexes.obj
 0001:00003e79       ?unlock@XMLMutex@xercesc_3_1@@QAEXXZ 12004e79 f   Mutexes.obj
 0001:00003e82       ??0XMLMutexLock@xercesc_3_1@@QAE@QAVXMLMutex@1@@Z 12004e82 f   Mutexes.obj
 0001:00003e9c       ??1XMLMutexLock@xercesc_3_1@@QAE@XZ 12004e9c f   Mutexes.obj
 0001:00003ea7       ?getPanicReasonString@PanicHandler@xercesc_3_1@@SAPBDW4PanicReasons@12@@Z 12004ea7 f   PanicHandler.obj
 0001:00003f1f       ??3@YAXPAXPAVDOMDocumentImpl@xercesc_3_1@@W4NodeObjectType@DOMMemoryManager@1@@Z 12004f1f f i AbstractDOMParser.obj
 0001:00003f1f       ??1RangeTokenElemMap@xercesc_3_1@@QAE@XZ 12004f1f f i RangeTokenMap.obj
 0001:00003f1f       ??3@YAXPAXPAVDOMDocumentImpl@xercesc_3_1@@@Z 12004f1f f i AbstractDOMParser.obj
 0001:00003f1f       ?resetEntities@XercesDOMParser@xercesc_3_1@@UAEXXZ 12004f1f f i XSAnnotation.obj
 0001:00003f1f       ??1RegxUtil@xercesc_3_1@@QAE@XZ 12004f1f f i RegularExpression.obj
 0001:00003f1f       ?endDocument@HandlerBase@xercesc_3_1@@UAEXXZ 12004f1f f i Dummy.obj
 0001:00003f1f       ?inheritAdditionalFacet@AbstractStringValidator@xercesc_3_1@@MAEXXZ 12004f1f f i AbstractStringValidator.obj
 0001:00003f1f       ?endDTD@DefaultHandler@xercesc_3_1@@UAEXXZ 12004f1f f i sax2Dummy.obj
 0001:00003f1f       ?reset@DTDAttDef@xercesc_3_1@@UAEXXZ 12004f1f f i XMLElementDecl.obj
 0001:00003f1f       ?startCDATA@DefaultHandler@xercesc_3_1@@UAEXXZ 12004f1f f i sax2Dummy.obj
 0001:00003f1f       ?normalize@DOMProcessingInstructionImpl@xercesc_3_1@@UAEXXZ 12004f1f f i DOMProcessingInstructionImpl.obj
 0001:00003f1f       ?resetCachedGrammar@XMLScanner@xercesc_3_1@@UAEXXZ 12004f1f f i XMLScanner.obj
 0001:00003f1f       ?endExtSubset@AbstractDOMParser@xercesc_3_1@@UAEXXZ 12004f1f f i AbstractDOMParser.obj
 0001:00003f1f       ?endIntSubset@SAXParser@xercesc_3_1@@UAEXXZ 12004f1f f i SAXParser.obj
 0001:00003f1f       ?resetDocument@DefaultHandler@xercesc_3_1@@UAEXXZ 12004f1f f i sax2Dummy.obj
 0001:00003f1f       ?orphanChild@CMAny@xercesc_3_1@@UAEXXZ 12004f1f f i CMAny.obj
 0001:00003f1f       ?resetDocType@DefaultHandler@xercesc_3_1@@UAEXXZ 12004f1f f i sax2Dummy.obj
 0001:00003f1f       ??1XMLResourceIdentifier@xercesc_3_1@@QAE@XZ 12004f1f f i DGXMLScanner.obj
 0001:00003f1f       ?flush@XMLFormatTarget@xercesc_3_1@@UAEXXZ 12004f1f f i LocalFileFormatTarget.obj
 0001:00003f1f       ?resetEntities@DOMLSParserImpl@xercesc_3_1@@UAEXXZ 12004f1f f i DOMLSParserImpl.obj
 0001:00003f1f       ?normalize@DOMCDATASectionImpl@xercesc_3_1@@UAEXXZ 12004f1f f i DOMCDATASectionImpl.obj
 0001:00003f1f       ?resetErrors@AnnotationErrorReporter@xercesc_3_1@@UAEXXZ 12004f1f f i TraverseSchema.obj
 0001:00003f1f       ??1OutOfMemoryException@xercesc_3_1@@QAE@XZ 12004f1f f i PlatformUtils.obj
 0001:00003f1f       ??3@YAXPAXPAVDOMDocument@xercesc_3_1@@W4NodeObjectType@DOMMemoryManager@1@@Z 12004f1f f i DOMAttrImpl.obj
 0001:00003f1f       ?startDocument@DefaultHandler@xercesc_3_1@@UAEXXZ 12004f1f f i sax2Dummy.obj
 0001:00003f1f       ?normalize@DOMNodeImpl@xercesc_3_1@@QAEXXZ 12004f1f f i DOMNodeImpl.obj
 0001:00003f1f       ?endExtSubset@SAXParser@xercesc_3_1@@UAEXXZ 12004f1f f i SAXParser.obj
 0001:00003f1f       ?resetDocType@HandlerBase@xercesc_3_1@@UAEXXZ 12004f1f f i Dummy.obj
 0001:00003f1f       ??1EndOfEntityException@xercesc_3_1@@QAE@XZ 12004f1f f i DGXMLScanner.obj
 0001:00003f1f       ?endDocument@IdentityConstraintHandler@xercesc_3_1@@QAEXXZ 12004f1f f i IGXMLScanner.obj
 0001:00003f1f       ?resetErrors@XercesDOMParser@xercesc_3_1@@UAEXXZ 12004f1f f i XercesDOMParser.obj
 0001:00003f1f       ?resetErrors@HandlerBase@xercesc_3_1@@UAEXXZ 12004f1f f i Dummy.obj
 0001:00003f1f       ??1DOMNodeImpl@xercesc_3_1@@QAE@XZ 12004f1f f i DOMNodeImpl.obj
 0001:00003f1f       ??1SubstitutionGroupComparator@xercesc_3_1@@QAE@XZ 12004f1f f i IGXMLScanner2.obj
 0001:00003f1f       ?startIntSubset@SAX2XMLReaderImpl@xercesc_3_1@@UAEXXZ 12004f1f f i SAX2XMLReaderImpl.obj
 0001:00003f1f       ??1DOMCharacterDataImpl@xercesc_3_1@@QAE@XZ 12004f1f f i DOMCharacterDataImpl.obj
 0001:00003f1f       ?startIntSubset@SAXParser@xercesc_3_1@@UAEXXZ 12004f1f f i SAXParser.obj
 0001:00003f1f       ?resetErrors@DOMLSParserImpl@xercesc_3_1@@UAEXXZ 12004f1f f i DOMLSParserImpl.obj
 0001:00003f1f       ?resetDocument@HandlerBase@xercesc_3_1@@UAEXXZ 12004f1f f i Dummy.obj
 0001:00003f1f       ?startDocument@HandlerBase@xercesc_3_1@@UAEXXZ 12004f1f f i Dummy.obj
 0001:00003f1f       ?endCDATA@DefaultHandler@xercesc_3_1@@UAEXXZ 12004f1f f i sax2Dummy.obj
 0001:00003f1f       ?resetEntities@SAX2XMLReaderImpl@xercesc_3_1@@UAEXXZ 12004f1f f i SAX2XMLReaderImpl.obj
 0001:00003f1f       ?release@DOMTreeWalkerImpl@xercesc_3_1@@UAEXXZ 12004f1f f i DOMTreeWalkerImpl.obj
 0001:00003f1f       ?normalize@DOMNotationImpl@xercesc_3_1@@UAEXXZ 12004f1f f i DOMNotationImpl.obj
 0001:00003f1f       ?normalize@DOMTextImpl@xercesc_3_1@@UAEXXZ 12004f1f f i DOMTextImpl.obj
 0001:00003f1f       ?inheritAdditionalFacet@AbstractNumericFacetValidator@xercesc_3_1@@MAEXXZ 12004f1f f i AbstractNumericFacetValidator.obj
 0001:00003f1f       ?startExtSubset@SAXParser@xercesc_3_1@@UAEXXZ 12004f1f f i SAXParser.obj
 0001:00003f1f       ??1XMLPScanToken@xercesc_3_1@@QAE@XZ 12004f1f f i XSAnnotation.obj
 0001:00003f1f       ??3XMemory@xercesc_3_1@@SAXPAX0@Z 12004f1f f i XMemory.obj
 0001:00003f1f       ?normalize@DOMCommentImpl@xercesc_3_1@@UAEXXZ 12004f1f f i DOMCommentImpl.obj
 0001:00003f1f       ?endDocument@DefaultHandler@xercesc_3_1@@UAEXXZ 12004f1f f i sax2Dummy.obj
 0001:00003f1f       ??1XMLCanRepGroup@xercesc_3_1@@QAE@XZ 12004f1f f i XMLCanRepGroup.obj
 0001:00003f1f       ?resetErrors@DefaultHandler@xercesc_3_1@@UAEXXZ 12004f1f f i sax2Dummy.obj
 0001:00003f1f       ?startExtSubset@AbstractDOMParser@xercesc_3_1@@UAEXXZ 12004f1f f i AbstractDOMParser.obj
 0001:00003f1f       ??1XUtil@xercesc_3_1@@AAE@XZ 12004f1f f i SchemaInfo.obj
 0001:00003f1f       ?resetEntities@SAXParser@xercesc_3_1@@UAEXXZ 12004f1f f i SAXParser.obj
 0001:00003f1f       ??1XMLInteger@xercesc_3_1@@QAE@XZ 12004f1f f i DFAContentModel.obj
 0001:00003f1f       ?endDocument@ValueStoreCache@xercesc_3_1@@QAEXXZ 12004f1f f i IGXMLScanner.obj
 0001:00003f1f       ??1XMLUniCharacter@xercesc_3_1@@QAE@XZ 12004f1f f i RangeTokenMap.obj
 0001:00003f1f       ?reset@SchemaAttDef@xercesc_3_1@@UAEXXZ 12004f1f f i XMLElementDecl.obj
 0001:00003f1f       ?postParseValidation@DTDValidator@xercesc_3_1@@UAEXXZ 12004f1f f i DTDValidator.obj
 0001:00003f1f       ?postParseValidation@SchemaValidator@xercesc_3_1@@UAEXXZ 12004f1f f i SchemaValidator.obj
 0001:00003f1f       ??1DOMChildNode@xercesc_3_1@@QAE@XZ 12004f1f f i DOMChildNode.obj
 0001:00003f1f       ?orphanChild@CMLeaf@xercesc_3_1@@UAEXXZ 12004f1f f i DFAContentModel.obj
 0001:00003f1f       ?reset@DTDValidator@xercesc_3_1@@UAEXXZ 12004f1f f i DTDValidator.obj
 0001:00003f1f       ??3@YAXPAXPAVDOMDocument@xercesc_3_1@@@Z 12004f1f f i AbstractDOMParser.obj
 0001:00003f20       ?getCode@OutOfMemoryException@xercesc_3_1@@QBE?AW4Codes@XMLExcepts@2@XZ 12004f20 f i PlatformUtils.obj
 0001:00003f26       ?getType@OutOfMemoryException@xercesc_3_1@@QBEPB_WXZ 12004f26 f i PlatformUtils.obj
 0001:00003f26       ?getMessage@OutOfMemoryException@xercesc_3_1@@QBEPB_WXZ 12004f26 f i PlatformUtils.obj
 0001:00003f2c       ?getSrcFile@OutOfMemoryException@xercesc_3_1@@QBEPBDXZ 12004f2c f i PlatformUtils.obj
 0001:00003f32       ?getSrcLine@OutOfMemoryException@xercesc_3_1@@QBE_KXZ 12004f32 f i PlatformUtils.obj
 0001:00003f37       ??0MemoryManagerImpl@xercesc_3_1@@QAE@XZ 12004f37 f i PlatformUtils.obj
 0001:00003f40       ??_FXMLURL@xercesc_3_1@@QAEXXZ 12004f40 f i PlatformUtils.obj
 0001:00003f4c       ??9XMLURL@xercesc_3_1@@QBE_NABV01@@Z 12004f4c f i PlatformUtils.obj
 0001:00003f64       ?getBaseType@XSComplexTypeDefinition@xercesc_3_1@@UAEPAVXSTypeDefinition@2@XZ 12004f64 f i XSComplexTypeDefinition.obj
 0001:00003f64       ?getBaseGroup@XercesGroupInfo@xercesc_3_1@@QBEPAV12@XZ 12004f64 f i XMLGrammarPoolImpl.obj
 0001:00003f64       ?getContentType@ComplexTypeInfo@xercesc_3_1@@QBEHXZ 12004f64 f i XMLElementDecl.obj
 0001:00003f64       ?getRawData@XMLAbstractDoubleFloat@xercesc_3_1@@UBEPA_WXZ 12004f64 f i XMLAbstractDoubleFloat.obj
 0001:00003f64       ?getQueryString@XMLUri@xercesc_3_1@@QBEPB_WXZ 12004f64 f i XMLString.obj
 0001:00003f64       ?getScanner@AbstractDOMParser@xercesc_3_1@@IBEPAVXMLScanner@2@XZ 12004f64 f i XSAnnotation.obj
 0001:00003f64       ?getLexicalFacetValues@XSMultiValueFacet@xercesc_3_1@@QAEPAV?$RefArrayVectorOf@_W@2@XZ 12004f64 f i XSMultiValueFacet.obj
 0001:00003f64       ?getMemoryManager@XMLBigDecimal@xercesc_3_1@@QBEPAVMemoryManager@2@XZ 12004f64 f i XMLAbstractDoubleFloat.obj
 0001:00003f64       ?getFieldStrs@XSIDCDefinition@xercesc_3_1@@QAEPAV?$RefArrayVectorOf@_W@2@XZ 12004f64 f i XSElementDeclaration.obj
 0001:00003f64       ?getNsConstraintList@XSWildcard@xercesc_3_1@@QAEPAV?$RefArrayVectorOf@_W@2@XZ 12004f64 f i XSComplexTypeDefinition.obj
 0001:00003f64       ?getIdentityConstraint@XPathMatcher@xercesc_3_1@@QBEPAVIdentityConstraint@2@XZ 12004f64 f i XMLElementDecl.obj
 0001:00003f64       ?getAnnotation@XSAttributeDeclaration@xercesc_3_1@@QBEPAVXSAnnotation@2@XZ 12004f64 f i PSVIAttributeList.obj
 0001:00003f64       ?getKey@IC_KeyRef@xercesc_3_1@@QBEPAVIdentityConstraint@2@XZ 12004f64 f i XSIDCDefinition.obj
 0001:00003f64       ?getTarget@DOMProcessingInstructionImpl@xercesc_3_1@@UBEPB_WXZ 12004f64 f i DOMProcessingInstructionImpl.obj
 0001:00003f64       ?getNext@XSAnnotation@xercesc_3_1@@QAEPAV12@XZ 12004f64 f i XSAnnotation.obj
 0001:00003f64       ?getAttributeWildcard@XSAttributeGroupDefinition@xercesc_3_1@@QBEPAVXSWildcard@2@XZ 12004f64 f i XSAttributeGroupDefinition.obj
 0001:00003f64       ?getMaxOccurs@XSParticle@xercesc_3_1@@QBEKXZ 12004f64 f i XSComplexTypeDefinition.obj
 0001:00003f64       ?getLexicalFacetValue@XSFacet@xercesc_3_1@@QBEPB_WXZ 12004f64 f i XSFacet.obj
 0001:00003f64       ?getNodeName@DOMProcessingInstructionImpl@xercesc_3_1@@UBEPB_WXZ 12004f64 f i DOMProcessingInstructionImpl.obj
 0001:00003f64       ?getAnnotation@XSModelGroup@xercesc_3_1@@QBEPAVXSAnnotation@2@XZ 12004f64 f i XSModelGroup.obj
 0001:00003f64       ?getSystemId@XMLEntityDecl@xercesc_3_1@@QBEPB_WXZ 12004f64 f i XMLDTDDescription.obj
 0001:00003f64       ?getDTDHandler@SAX2XMLFilterImpl@xercesc_3_1@@UBEPAVDTDHandler@2@XZ 12004f64 f i SAX2XMLFilterImpl.obj
 0001:00003f64       ?getPublicId@XSDLocator@xercesc_3_1@@UBEPB_WXZ 12004f64 f i IGXMLScanner2.obj
 0001:00003f64       ?getAttributes@XMLSchemaDescriptionImpl@xercesc_3_1@@UBEPBVXMLAttDef@2@XZ 12004f64 f i XMLSchemaDescriptionImpl.obj
 0001:00003f64       ?getPSVIScope@SchemaElementDecl@xercesc_3_1@@QBE?AW4PSVIScope@PSVIDefs@2@XZ 12004f64 f i XMLElementDecl.obj
 0001:00003f64       ?getProtocol@XMLURL@xercesc_3_1@@QBE?AW4Protocols@12@XZ 12004f64 f i PlatformUtils.obj
 0001:00003f64       ?getAnnotation@XSModelGroupDefinition@xercesc_3_1@@QBEPAVXSAnnotation@2@XZ 12004f64 f i XSModel.obj
 0001:00003f64       ?getBaseType@XSSimpleTypeDefinition@xercesc_3_1@@UAEPAVXSTypeDefinition@2@XZ 12004f64 f i XSSimpleTypeDefinition.obj
 0001:00003f64       ?getRoot@SchemaInfo@xercesc_3_1@@QBEPBVDOMElement@2@XZ 12004f64 f i IGXMLScanner.obj
 0001:00003f64       ?getComplexTypeRegistry@SchemaGrammar@xercesc_3_1@@QBEPAV?$RefHashTableOf@VComplexTypeInfo@xercesc_3_1@@UStringHasher@2@@2@XZ 12004f64 f i XMLGrammarPoolImpl.obj
 0001:00003f64       ?getOrdered@DatatypeValidator@xercesc_3_1@@QBE?AW4ORDERING@XSSimpleTypeDefinition@2@XZ 12004f64 f i XMLAttr.obj
 0001:00003f64       ?getValidationAttempted@PSVIItem@xercesc_3_1@@QBE?AW4ASSESSMENT_TYPE@12@XZ 12004f64 f i PSVIAttribute.obj
 0001:00003f64       ?getMemoryManager@XMLNotationDecl@xercesc_3_1@@QBEPAVMemoryManager@2@XZ 12004f64 f i XMLDTDDescription.obj
 0001:00003f64       ?getEnumeration@XMLAttDef@xercesc_3_1@@QBEPB_WXZ 12004f64 f i XMLAttDef.obj
 0001:00003f64       ?getConstraintValue@XSAttributeUse@xercesc_3_1@@QAEPB_WXZ 12004f64 f i XSAttributeGroupDefinition.obj
 0001:00003f68       ?getName@DOMAttrImpl@xercesc_3_1@@UBEPB_WXZ 12004f68 f i DOMAttrImpl.obj
 0001:00003f68       ?getDefinedFacets@XSSimpleTypeDefinition@xercesc_3_1@@QBEHXZ 12004f68 f i XMLAttr.obj
 0001:00003f68       ?getBaseURI@XMLEntityDecl@xercesc_3_1@@QBEPB_WXZ 12004f68 f i XMLDTDDescription.obj
 0001:00003f68       ?getMemoryManager@XPathMatcher@xercesc_3_1@@QBEPAVMemoryManager@2@XZ 12004f68 f i XMLElementDecl.obj
 0001:00003f68       ?getAnnotations@XSMultiValueFacet@xercesc_3_1@@QAEPAV?$RefVectorOf@VXSAnnotation@xercesc_3_1@@@2@XZ 12004f68 f i XSMultiValueFacet.obj
 0001:00003f68       ?getLocator@XercesGroupInfo@xercesc_3_1@@QBEPAVXSDLocator@2@XZ 12004f68 f i XMLGrammarPoolImpl.obj
 0001:00003f68       ?getElementId@ComplexTypeInfo@xercesc_3_1@@QBEIXZ 12004f68 f i XMLElementDecl.obj
 0001:00003f68       ?getState@RegxParser@xercesc_3_1@@QBE?AW4parserState@12@XZ 12004f68 f i ParserForXMLSchema.obj
 0001:00003f68       ?getSystemId@XSAnnotation@xercesc_3_1@@QBEPB_WXZ 12004f68 f i XMLGrammarPoolImpl.obj
 0001:00003f68       ?getNodeName@DOMEntityImpl@xercesc_3_1@@UBEPB_WXZ 12004f68 f i DOMEntityImpl.obj
 0001:00003f68       ?getBaseValidator@DatatypeValidator@xercesc_3_1@@QBEPAV12@XZ 12004f68 f i XMLAttr.obj
 0001:00003f68       ?getGroupInfoRegistry@SchemaGrammar@xercesc_3_1@@QBEPAV?$RefHashTableOf@VXercesGroupInfo@xercesc_3_1@@UStringHasher@2@@2@XZ 12004f68 f i XMLGrammarPoolImpl.obj
 0001:00003f68       ?getQuery@XMLURL@xercesc_3_1@@QBEPB_WXZ 12004f68 f i PlatformUtils.obj
 0001:00003f68       ?getEntityResolver@SAX2XMLFilterImpl@xercesc_3_1@@UBEPAVEntityResolver@2@XZ 12004f68 f i SAX2XMLFilterImpl.obj
 0001:00003f68       ?getFragment@XMLUri@xercesc_3_1@@QBEPB_WXZ 12004f68 f i XMLString.obj
 0001:00003f68       ?getNodeName@DOMAttrImpl@xercesc_3_1@@UBEPB_WXZ 12004f68 f i DOMAttrImpl.obj
 0001:00003f68       ?getString@Context@RegularExpression@xercesc_3_1@@QBEPB_WXZ 12004f68 f i RegularExpression.obj
 0001:00003f68       ?getMinOccurs@ContentSpecNode@xercesc_3_1@@QBEHXZ 12004f68 f i XMLGrammarPoolImpl.obj
 0001:00003f68       ?getAnnotation@XSFacet@xercesc_3_1@@QBEPAVXSAnnotation@2@XZ 12004f68 f i XSFacet.obj
 0001:00003f68       ?getAnnotation@XSWildcard@xercesc_3_1@@QBEPAVXSAnnotation@2@XZ 12004f68 f i XSComplexTypeDefinition.obj
 0001:00003f68       ?getPublicId@SAXParseException@xercesc_3_1@@QBEPB_WXZ 12004f68 f i SAXParseException.obj
 0001:00003f68       ?getScope@XSAttributeDeclaration@xercesc_3_1@@QBE?AW4SCOPE@XSConstants@2@XZ 12004f68 f i PSVIAttributeList.obj
 0001:00003f68       ?getAnnotation@XSAttributeGroupDefinition@xercesc_3_1@@QBEPAVXSAnnotation@2@XZ 12004f68 f i XSAttributeGroupDefinition.obj
 0001:00003f68       ?getAttrDeclaration@XSAttributeUse@xercesc_3_1@@QBEPAVXSAttributeDeclaration@2@XZ 12004f68 f i XSAttributeGroupDefinition.obj
 0001:00003f68       ?getMemoryManager@XMLAttDef@xercesc_3_1@@QBEPAVMemoryManager@2@XZ 12004f68 f i XMLAttDef.obj
 0001:00003f68       ?getMemoryManager@QName@xercesc_3_1@@QBEPAVMemoryManager@2@XZ 12004f68 f i QName.obj
 0001:00003f68       ?getEnclosingScope@SchemaElementDecl@xercesc_3_1@@QBEIXZ 12004f68 f i XMLElementDecl.obj
 0001:00003f68       ?getAnnotations@XSIDCDefinition@xercesc_3_1@@QAEPAV?$RefVectorOf@VXSAnnotation@xercesc_3_1@@@2@XZ 12004f68 f i XSIDCDefinition.obj
 0001:00003f68       ?getTypeDefinition@XSElementDeclaration@xercesc_3_1@@QBEPAVXSTypeDefinition@2@XZ 12004f68 f i PSVIElement.obj
 0001:00003f6c       ?getAttributeWildcard@XSComplexTypeDefinition@xercesc_3_1@@QBEPAVXSWildcard@2@XZ 12004f6c f i PSVIElement.obj
 0001:00003f6c       ?getElemId@SchemaAttDef@xercesc_3_1@@QBEKXZ 12004f6c f i XMLElementDecl.obj
 0001:00003f6c       ?getInitialDepth@SelectorMatcher@xercesc_3_1@@UBEHXZ 12004f6c f i XSIDCDefinition.obj
 0001:00003f6c       ?getTypeDefinition@PSVIElement@xercesc_3_1@@UAEPAVXSTypeDefinition@2@XZ 12004f6c f i PSVIElement.obj
 0001:00003f6c       ?getPublicId@DOMEntityImpl@xercesc_3_1@@UBEPB_WXZ 12004f6c f i DOMEntityImpl.obj
 0001:00003f6c       ?getCharData@RegxParser@xercesc_3_1@@QBEHXZ 12004f6c f i ParserForXMLSchema.obj
 0001:00003f6c       ?getAttGroupInfoRegistry@SchemaGrammar@xercesc_3_1@@QBEPAV?$RefHashTableOf@VXercesAttGroupInfo@xercesc_3_1@@UStringHasher@2@@2@XZ 12004f6c f i XMLGrammarPoolImpl.obj
 0001:00003f6c       ?getEnclosingCTDefinition@XSElementDeclaration@xercesc_3_1@@QBEPAVXSComplexTypeDefinition@2@XZ 12004f6c f i PSVIElement.obj
 0001:00003f6c       ?getErrorHandler@SAX2XMLFilterImpl@xercesc_3_1@@UBEPAVErrorHandler@2@XZ 12004f6c f i SAX2XMLFilterImpl.obj
 0001:00003f6c       ?getContentSpec@DTDElementDecl@xercesc_3_1@@UBEPBVContentSpecNode@2@XZ 12004f6c f i XMLElementDecl.obj
 0001:00003f6c       ?getEnclosingCTDefinition@XSAttributeDeclaration@xercesc_3_1@@QAEPAVXSComplexTypeDefinition@2@XZ 12004f6c f i PSVIAttributeList.obj
 0001:00003f6c       ?getFixedFacets@XSSimpleTypeDefinition@xercesc_3_1@@QBEHXZ 12004f6c f i XMLAttr.obj
 0001:00003f6c       ?getMaxOccurs@ContentSpecNode@xercesc_3_1@@QBEHXZ 12004f6c f i XMLGrammarPoolImpl.obj
 0001:00003f6c       ?getContentSpec@DTDElementDecl@xercesc_3_1@@UAEPAVContentSpecNode@2@XZ 12004f6c f i XMLElementDecl.obj
 0001:00003f6c       ?getNextSibling@DOMEntityReferenceImpl@xercesc_3_1@@UBEPAVDOMNode@2@XZ 12004f6c f i DOMEntityReferenceImpl.obj
 0001:00003f6c       ?getNextSibling@DOMElementImpl@xercesc_3_1@@UBEPAVDOMNode@2@XZ 12004f6c f i DOMElementImpl.obj
 0001:00003f6c       ?getUser@XMLURL@xercesc_3_1@@QBEPB_WXZ 12004f6c f i PlatformUtils.obj
 0001:00003f6c       ?getMemoryManager@XMLAbstractDoubleFloat@xercesc_3_1@@QBEPAVMemoryManager@2@XZ 12004f6c f i XMLAbstractDoubleFloat.obj
 0001:00003f6c       ?getValueStore@FieldMatcher@xercesc_3_1@@QBEPAVValueStore@2@XZ 12004f6c f i XMLElementDecl.obj
 0001:00003f6c       ?getElemId@DTDAttDef@xercesc_3_1@@QBEKXZ 12004f6c f i XMLElementDecl.obj
 0001:00003f6c       ?getNextSibling@DOMDocumentTypeImpl@xercesc_3_1@@UBEPAVDOMNode@2@XZ 12004f6c f i DOMDocumentTypeImpl.obj
 0001:00003f6c       ?getTypeDefinition@PSVIAttribute@xercesc_3_1@@UAEPAVXSTypeDefinition@2@XZ 12004f6c f i PSVIAttribute.obj
 0001:00003f6c       ?getFacets@DatatypeValidator@xercesc_3_1@@QBEPAV?$RefHashTableOf@VKVStringPair@xercesc_3_1@@UStringHasher@2@@2@XZ 12004f6c f i XMLAttr.obj
 0001:00003f6c       ?getGrammarsToAddToXSModel@GrammarResolver@xercesc_3_1@@QAEPAV?$ValueVectorOf@PAVSchemaGrammar@xercesc_3_1@@@2@XZ 12004f6c f i XMLValidator.obj
 0001:00003f6c       ?getSystemId@SAXParseException@xercesc_3_1@@QBEPB_WXZ 12004f6c f i SAXParseException.obj
 0001:00003f6c       ?getFinalSet@SchemaElementDecl@xercesc_3_1@@QBEHXZ 12004f6c f i XMLElementDecl.obj
 0001:00003f70       ?getURLText@XMLURL@xercesc_3_1@@QBEPB_WXZ 12004f70 f i PlatformUtils.obj
 0001:00003f83       ??0MalformedURLException@xercesc_3_1@@QAE@QBD_KW4Codes@XMLExcepts@1@PAVMemoryManager@1@@Z 12004f83 f i PlatformUtils.obj
 0001:00003fc3       ??0MalformedURLException@xercesc_3_1@@QAE@ABV01@@Z 12004fc3 f i PlatformUtils.obj
 0001:00003fde       ??0MalformedURLException@xercesc_3_1@@QAE@QBD_KW4Codes@XMLExcepts@1@QB_W333PAVMemoryManager@1@@Z 12004fde f i PlatformUtils.obj
 0001:0000402a       ??0MalformedURLException@xercesc_3_1@@QAE@QBD_KW4Codes@XMLExcepts@1@0000PAVMemoryManager@1@@Z 1200502a f i PlatformUtils.obj
 0001:00004076       ??1MalformedURLException@xercesc_3_1@@UAE@XZ 12005076 f i PlatformUtils.obj
 0001:00004081       ?duplicate@MalformedURLException@xercesc_3_1@@UBEPAVXMLException@2@XZ 12005081 f i PlatformUtils.obj
 0001:000040c5       ?getType@MalformedURLException@xercesc_3_1@@UBEPB_WXZ 120050c5 f i PlatformUtils.obj
 0001:000040cb       ??_EMalformedURLException@xercesc_3_1@@UAEPAXI@Z 120050cb f i PlatformUtils.obj
 0001:0000411c       ??4XMLNetHTTPInfo@xercesc_3_1@@QAEAAV01@ABV01@@Z 1200511c f i PlatformUtils.obj
 0001:00004133       ??0XMLNetHTTPInfo@xercesc_3_1@@QAE@XZ 12005133 f i PlatformUtils.obj
 0001:00004146       ??1XMLNetAccessor@xercesc_3_1@@UAE@XZ 12005146 f i PlatformUtils.obj
 0001:0000414d       ??0XMLNetAccessor@xercesc_3_1@@IAE@XZ 1200514d f i PlatformUtils.obj
 0001:00004156       ??_EXMLNetAccessor@xercesc_3_1@@UAEPAXI@Z 12005156 f i PlatformUtils.obj
 0001:000041a2       ??0NetAccessorException@xercesc_3_1@@QAE@QBD_KW4Codes@XMLExcepts@1@PAVMemoryManager@1@@Z 120051a2 f i PlatformUtils.obj
 0001:000041e2       ??0NetAccessorException@xercesc_3_1@@QAE@ABV01@@Z 120051e2 f i PlatformUtils.obj
 0001:000041fd       ??0NetAccessorException@xercesc_3_1@@QAE@QBD_KW4Codes@XMLExcepts@1@QB_W333PAVMemoryManager@1@@Z 120051fd f i PlatformUtils.obj
 0001:00004249       ??0NetAccessorException@xercesc_3_1@@QAE@QBD_KW4Codes@XMLExcepts@1@0000PAVMemoryManager@1@@Z 12005249 f i PlatformUtils.obj
 0001:00004295       ??1NetAccessorException@xercesc_3_1@@UAE@XZ 12005295 f i PlatformUtils.obj
 0001:000042a0       ?duplicate@NetAccessorException@xercesc_3_1@@UBEPAVXMLException@2@XZ 120052a0 f i PlatformUtils.obj
 0001:000042e4       ?getType@NetAccessorException@xercesc_3_1@@UBEPB_WXZ 120052e4 f i PlatformUtils.obj
 0001:000042ea       ??_ENetAccessorException@xercesc_3_1@@UAEPAXI@Z 120052ea f i PlatformUtils.obj
 0001:0000433b       ?getId@WinSockNetAccessor@xercesc_3_1@@UBEPB_WXZ 1200533b f i PlatformUtils.obj
 0001:00004341       ??_EXMLMsgLoader@xercesc_3_1@@UAEPAXI@Z 12005341 f i PlatformUtils.obj
 0001:0000438d       ??1XMLMsgLoader@xercesc_3_1@@UAE@XZ 1200538d f i PlatformUtils.obj
 0001:00004394       ??0XMLMsgLoader@xercesc_3_1@@IAE@XZ 12005394 f i PlatformUtils.obj
 0001:0000439d       ?adopt@TranscodeToStr@xercesc_3_1@@QAEPAEXZ 1200539d f i PlatformUtils.obj
 0001:0000439d       ?adopt@TranscodeFromStr@xercesc_3_1@@QAEPA_WXZ 1200539d f i PlatformUtils.obj
 0001:000043a3       ?Initialize@XMLPlatformUtils@xercesc_3_1@@SAXQBD0QAVPanicHandler@2@QAVMemoryManager@2@@Z 120053a3 f   PlatformUtils.obj
 0001:0000455d       ?Initialize@XMLPlatformUtils@xercesc_3_1@@SAXKKKQBD0QAVPanicHandler@2@QAVMemoryManager@2@@Z 1200555d f   PlatformUtils.obj
 0001:00004597       ?Terminate@XMLPlatformUtils@xercesc_3_1@@SAXXZ 12005597 f   PlatformUtils.obj
 0001:000046b2       ?panic@XMLPlatformUtils@xercesc_3_1@@SAXW4PanicReasons@PanicHandler@2@@Z 120056b2 f   PlatformUtils.obj
 0001:000046cf       ?makeNetAccessor@XMLPlatformUtils@xercesc_3_1@@CAPAVXMLNetAccessor@2@XZ 120056cf f   PlatformUtils.obj
 0001:000046e5       ?loadAMsgSet@XMLPlatformUtils@xercesc_3_1@@CAPAVXMLMsgLoader@2@QB_W@Z 120056e5 f   PlatformUtils.obj
 0001:0000473c       ?makeTransService@XMLPlatformUtils@xercesc_3_1@@CAPAVXMLTransService@2@XZ 1200573c f   PlatformUtils.obj
 0001:0000476f       ?makeFileMgr@XMLPlatformUtils@xercesc_3_1@@SAPAVXMLFileMgr@2@QAVMemoryManager@2@@Z 1200576f f   PlatformUtils.obj
 0001:000047d5       ?openFile@XMLPlatformUtils@xercesc_3_1@@SAPAXQBDQAVMemoryManager@2@@Z 120057d5 f   PlatformUtils.obj
 0001:0000481b       ?openFile@XMLPlatformUtils@xercesc_3_1@@SAPAXQB_WQAVMemoryManager@2@@Z 1200581b f   PlatformUtils.obj
 0001:00004861       ?openFileToWrite@XMLPlatformUtils@xercesc_3_1@@SAPAXQBDQAVMemoryManager@2@@Z 12005861 f   PlatformUtils.obj
 0001:000048a7       ?openFileToWrite@XMLPlatformUtils@xercesc_3_1@@SAPAXQB_WQAVMemoryManager@2@@Z 120058a7 f   PlatformUtils.obj
 0001:000048ed       ?openStdInHandle@XMLPlatformUtils@xercesc_3_1@@SAPAXQAVMemoryManager@2@@Z 120058ed f   PlatformUtils.obj
 0001:0000492e       ?closeFile@XMLPlatformUtils@xercesc_3_1@@SAXPAXQAVMemoryManager@2@@Z 1200592e f   PlatformUtils.obj
 0001:00004972       ?resetFile@XMLPlatformUtils@xercesc_3_1@@SAXPAXQAVMemoryManager@2@@Z 12005972 f   PlatformUtils.obj
 0001:000049b6       ?curFilePos@XMLPlatformUtils@xercesc_3_1@@SA_KPAXQAVMemoryManager@2@@Z 120059b6 f   PlatformUtils.obj
 0001:000049fa       ?fileSize@XMLPlatformUtils@xercesc_3_1@@SA_KPAXQAVMemoryManager@2@@Z 120059fa f   PlatformUtils.obj
 0001:00004a3e       ?readFileBuffer@XMLPlatformUtils@xercesc_3_1@@SAKPAXKQAEQAVMemoryManager@2@@Z 12005a3e f   PlatformUtils.obj
 0001:00004a88       ?writeBufferToFile@XMLPlatformUtils@xercesc_3_1@@SAXQAXKQBEQAVMemoryManager@2@@Z 12005a88 f   PlatformUtils.obj
 0001:00004ad2       ?getFullPath@XMLPlatformUtils@xercesc_3_1@@SAPA_WQB_WQAVMemoryManager@2@@Z 12005ad2 f   PlatformUtils.obj
 0001:00004b16       ?getCurrentDirectory@XMLPlatformUtils@xercesc_3_1@@SAPA_WQAVMemoryManager@2@@Z 12005b16 f   PlatformUtils.obj
 0001:00004b57       ?isRelative@XMLPlatformUtils@xercesc_3_1@@SA_NQB_WQAVMemoryManager@2@@Z 12005b57 f   PlatformUtils.obj
 0001:00004b9b       ?isAnySlash@XMLPlatformUtils@xercesc_3_1@@SA_N_W@Z 12005b9b f i PlatformUtils.obj
 0001:00004bb9       ?getCurrentMillis@XMLPlatformUtils@xercesc_3_1@@SAKXZ 12005bb9 f   PlatformUtils.obj
 0001:00004bef       ?makeMutexMgr@XMLPlatformUtils@xercesc_3_1@@SAPAVXMLMutexMgr@2@QAVMemoryManager@2@@Z 12005bef f   PlatformUtils.obj
 0001:00004c0e       ?makeMutex@XMLPlatformUtils@xercesc_3_1@@SAPAXQAVMemoryManager@2@@Z 12005c0e f   PlatformUtils.obj
 0001:00004c33       ?closeMutex@XMLPlatformUtils@xercesc_3_1@@SAXQAXQAVMemoryManager@2@@Z 12005c33 f   PlatformUtils.obj
 0001:00004c5b       ?lockMutex@XMLPlatformUtils@xercesc_3_1@@SAXQAX@Z 12005c5b f   PlatformUtils.obj
 0001:00004c80       ?unlockMutex@XMLPlatformUtils@xercesc_3_1@@SAXQAX@Z 12005c80 f   PlatformUtils.obj
 0001:00004ca5       ?loadMsgSet@XMLPlatformUtils@xercesc_3_1@@SAPAVXMLMsgLoader@2@QB_W@Z 12005ca5 f   PlatformUtils.obj
 0001:00004cae       ?recognizeNEL@XMLPlatformUtils@xercesc_3_1@@SAX_NQAVMemoryManager@2@@Z 12005cae f   PlatformUtils.obj
 0001:00004d09       ?strictIANAEncoding@XMLPlatformUtils@xercesc_3_1@@SAX_N@Z 12005d09 f   PlatformUtils.obj
 0001:00004d2b       ?isStrictIANAEncoding@XMLPlatformUtils@xercesc_3_1@@SA_NXZ 12005d2b f   PlatformUtils.obj
 0001:00004d3e       ?weavePaths@XMLPlatformUtils@xercesc_3_1@@SAPA_WQB_W0QAVMemoryManager@2@@Z 12005d3e f   PlatformUtils.obj
 0001:00004df7       ?removeDotSlash@XMLPlatformUtils@xercesc_3_1@@SAXQA_WQAVMemoryManager@2@@Z 12005df7 f   PlatformUtils.obj
 0001:00004ec9       ?removeDotDotSlash@XMLPlatformUtils@xercesc_3_1@@SAXQA_WQAVMemoryManager@2@@Z 12005ec9 f   PlatformUtils.obj
 0001:00005049       ?searchSlashDotDotSlash@XMLPlatformUtils@xercesc_3_1@@CAHQA_W@Z 12006049 f   PlatformUtils.obj
 0001:000050c2       ??_FQName@xercesc_3_1@@QAEXXZ 120060c2 f i QName.obj
 0001:000050ce       ??_EQName@xercesc_3_1@@UAEPAXI@Z 120060ce f i QName.obj
 0001:00005119       ?setId@XSObject@xercesc_3_1@@QAEXK@Z 12006119 f i XSObject.obj
 0001:00005119       ?setMax@ClosureToken@xercesc_3_1@@UAEXH@Z 12006119 f i ClosureToken.obj
 0001:00005119       ?setId@XMLElementDecl@xercesc_3_1@@QAEXK@Z 12006119 f i XMLDTDDescription.obj
 0001:00005119       ?setURI@QName@xercesc_3_1@@QAEXI@Z 12006119 f i QName.obj
 0001:00005119       ?setSchemaLocation@DOMConfigurationImpl@xercesc_3_1@@QAEXPB_W@Z 12006119 f i DOMConfigurationImpl.obj
 0001:00005119       ?setScanner@ValueStoreCache@xercesc_3_1@@QAEXQAVXMLScanner@2@@Z 12006119 f i IGXMLScanner.obj
 0001:00005119       ?setBlockSet@ComplexTypeInfo@xercesc_3_1@@QAEXH@Z 12006119 f i XMLElementDecl.obj
 0001:00005119       ?setChild@ChildOp@xercesc_3_1@@QAEXQBVOp@2@@Z 12006119 f i Op.obj
 0001:00005126       ?setPrefix@QName@xercesc_3_1@@QAEXPB_W@Z 12006126 f i QName.obj
 0001:00005145       ?setLocalPart@QName@xercesc_3_1@@QAEXPB_W@Z 12006145 f i QName.obj
 0001:00005164       ??0QName@xercesc_3_1@@QAE@QAVMemoryManager@1@@Z 12006164 f   QName.obj
 0001:00005190       ??0QName@xercesc_3_1@@QAE@QB_W0IQAVMemoryManager@1@@Z 12006190 f   QName.obj
 0001:000051fd       ??0QName@xercesc_3_1@@QAE@QB_WIQAVMemoryManager@1@@Z 120061fd f   QName.obj
 0001:00005267       ??1QName@xercesc_3_1@@UAE@XZ 12006267 f   QName.obj
 0001:00005293       ??0QName@xercesc_3_1@@QAE@ABV01@@Z 12006293 f   QName.obj
 0001:0000535b       ?getRawName@QName@xercesc_3_1@@QBEPB_WXZ 1200635b f   QName.obj
 0001:0000535b       ?getRawName@QName@xercesc_3_1@@QAEPA_WXZ 1200635b f   QName.obj
 0001:000053ef       ?setName@QName@xercesc_3_1@@QAEXQB_W0I@Z 120063ef f   QName.obj
 0001:00005434       ?setName@QName@xercesc_3_1@@QAEXQB_WI@Z 12006434 f   QName.obj
 0001:000054ea       ?setNPrefix@QName@xercesc_3_1@@QAEXPB_WK@Z 120064ea f   QName.obj
 0001:00005548       ?setNLocalPart@QName@xercesc_3_1@@QAEXPB_WK@Z 12006548 f   QName.obj
 0001:000055a6       ?setValues@QName@xercesc_3_1@@QAEXABV12@@Z 120065a6 f   QName.obj
 0001:000055e4       ??8QName@xercesc_3_1@@QBE_NABV01@@Z 120065e4 f   QName.obj
 0001:00005648       ?cleanUp@QName@xercesc_3_1@@QAEXXZ 12006648 f   QName.obj
 0001:00005679       ?createObject@QName@xercesc_3_1@@SAPAVXSerializable@2@PAVMemoryManager@2@@Z 12006679 f   QName.obj
 0001:0000569c       ?getProtoType@QName@xercesc_3_1@@UBEPAVXProtoType@2@XZ 1200669c f   QName.obj
 0001:000056a2       ?serialize@QName@xercesc_3_1@@UAEXAAVXSerializeEngine@2@@Z 120066a2 f   QName.obj
 0001:0000571f       ??1?$JanitorMemFunCall@VIdentityConstraintHandler@xercesc_3_1@@@xercesc_3_1@@QAE@XZ 1200671f f i IdentityConstraintHandler.obj
 0001:0000571f       ??1?$JanitorMemFunCall@VSAXParser@xercesc_3_1@@@xercesc_3_1@@QAE@XZ 1200671f f i SAXParser.obj
 0001:0000571f       ??1?$JanitorMemFunCall@VXMLBigDecimal@xercesc_3_1@@@xercesc_3_1@@QAE@XZ 1200671f f i XMLBigDecimal.obj
 0001:0000571f       ??1?$JanitorMemFunCall@VSAX2XMLReaderImpl@xercesc_3_1@@@xercesc_3_1@@QAE@XZ 1200671f f i SAX2XMLReaderImpl.obj
 0001:0000571f       ??1?$JanitorMemFunCall@VXMLGrammarPoolImpl@xercesc_3_1@@@xercesc_3_1@@QAE@XZ 1200671f f i XMLGrammarPoolImpl.obj
 0001:0000571f       ??1?$JanitorMemFunCall@VSGXMLScanner@xercesc_3_1@@@xercesc_3_1@@QAE@XZ 1200671f f i SGXMLScanner.obj
 0001:0000571f       ??1?$JanitorMemFunCall@VIdentityConstraint@xercesc_3_1@@@xercesc_3_1@@QAE@XZ 1200671f f i IdentityConstraint.obj
 0001:0000571f       ??1?$JanitorMemFunCall@VXMLEntityDecl@xercesc_3_1@@@xercesc_3_1@@QAE@XZ 1200671f f i XMLEntityDecl.obj
 0001:0000571f       ??1?$JanitorMemFunCall@VReaderMgr@xercesc_3_1@@@xercesc_3_1@@QAE@XZ 1200671f f i DGXMLScanner.obj
 0001:0000571f       ??1?$JanitorMemFunCall@VDGXMLScanner@xercesc_3_1@@@xercesc_3_1@@QAE@XZ 1200671f f i DGXMLScanner.obj
 0001:0000571f       ??1?$JanitorMemFunCall@VXMLScanner@xercesc_3_1@@@xercesc_3_1@@QAE@XZ 1200671f f i XMLScanner.obj
 0001:0000571f       ??1?$JanitorMemFunCall@VUnionDatatypeValidator@xercesc_3_1@@@xercesc_3_1@@QAE@XZ 1200671f f i UnionDatatypeValidator.obj
 0001:0000571f       ??1?$JanitorMemFunCall@VXMLAttDef@xercesc_3_1@@@xercesc_3_1@@QAE@XZ 1200671f f i XMLAttDef.obj
 0001:0000571f       ??1?$JanitorMemFunCall@VXMLNotationDecl@xercesc_3_1@@@xercesc_3_1@@QAE@XZ 1200671f f i XMLNotationDecl.obj
 0001:0000571f       ??1?$JanitorMemFunCall@VXercesXPath@xercesc_3_1@@@xercesc_3_1@@QAE@XZ 1200671f f i XercesXPath.obj
 0001:0000571f       ??1?$JanitorMemFunCall@VDOMXPathResultImpl@xercesc_3_1@@@xercesc_3_1@@QAE@XZ 1200671f f i DOMXPathExpressionImpl.obj
 0001:0000571f       ??1?$JanitorMemFunCall@VDOMLSParserImpl@xercesc_3_1@@@xercesc_3_1@@QAE@XZ 1200671f f i DOMLSParserImpl.obj
 0001:0000571f       ??1?$JanitorMemFunCall@VXercesDOMParser@xercesc_3_1@@@xercesc_3_1@@QAE@XZ 1200671f f i XercesDOMParser.obj
 0001:0000571f       ??1?$JanitorMemFunCall@VXMLURL@xercesc_3_1@@@xercesc_3_1@@QAE@XZ 1200671f f i XMLURL.obj
 0001:0000571f       ??1?$JanitorMemFunCall@VXMLUri@xercesc_3_1@@@xercesc_3_1@@QAE@XZ 1200671f f i XMLUri.obj
 0001:0000571f       ??1?$JanitorMemFunCall@VXPathMatcher@xercesc_3_1@@@xercesc_3_1@@QAE@XZ 1200671f f i XPathMatcher.obj
 0001:0000571f       ??1?$JanitorMemFunCall@VSchemaGrammar@xercesc_3_1@@@xercesc_3_1@@QAE@XZ 1200671f f i SchemaGrammar.obj
 0001:0000571f       ??1?$JanitorMemFunCall@VIGXMLScanner@xercesc_3_1@@@xercesc_3_1@@QAE@XZ 1200671f f i IGXMLScanner.obj
 0001:0000571f       ??1?$JanitorMemFunCall@VDOMXPathExpressionImpl@xercesc_3_1@@@xercesc_3_1@@QAE@XZ 1200671f f i DOMXPathExpressionImpl.obj
 0001:0000571f       ??1?$JanitorMemFunCall@VAbstractDOMParser@xercesc_3_1@@@xercesc_3_1@@QAE@XZ 1200671f f i AbstractDOMParser.obj
 0001:0000571f       ??1?$JanitorMemFunCall@VWFXMLScanner@xercesc_3_1@@@xercesc_3_1@@QAE@XZ 1200671f f i WFXMLScanner.obj
 0001:0000571f       ??1?$JanitorMemFunCall@VRegularExpression@xercesc_3_1@@@xercesc_3_1@@QAE@XZ 1200671f f i RegularExpression.obj
 0001:0000571f       ??1?$JanitorMemFunCall@VQName@xercesc_3_1@@@xercesc_3_1@@QAE@XZ 1200671f f i QName.obj
 0001:0000573a       ??_FXMLStringPool@xercesc_3_1@@QAEXXZ 1200673a f i StringPool.obj
 0001:00005748       ??_EXMLStringPool@xercesc_3_1@@UAEPAXI@Z 12006748 f i StringPool.obj
 0001:00005793       ?addOrFind@XMLStringPool@xercesc_3_1@@UAEIQB_W@Z 12006793 f i StringPool.obj
 0001:000057cc       ?getId@XMLStringPool@xercesc_3_1@@UBEIQB_W@Z 120067cc f i StringPool.obj
 0001:000057f9       ?exists@XMLStringPool@xercesc_3_1@@UBE_NQB_W@Z 120067f9 f i StringPool.obj
 0001:00005839       ?exists@XMLStringPool@xercesc_3_1@@UBE_NI@Z 12006839 f i StringPool.obj
 0001:00005853       ?getValueForId@XMLStringPool@xercesc_3_1@@UBEPB_WI@Z 12006853 f i StringPool.obj
 0001:0000589c       ?getStringCount@XMLStringPool@xercesc_3_1@@UBEIXZ 1200689c f i StringPool.obj
 0001:000058a1       ??0XMLStringPool@xercesc_3_1@@QAE@IQAVMemoryManager@1@@Z 120068a1 f   StringPool.obj
 0001:00005932       ??1XMLStringPool@xercesc_3_1@@UAE@XZ 12006932 f   StringPool.obj
 0001:000059b4       ?flushAll@XMLStringPool@xercesc_3_1@@UAEXXZ 120069b4 f   StringPool.obj
 0001:000059f6       ?addNewEntry@XMLStringPool@xercesc_3_1@@AAEIQB_W@Z 120069f6 f   StringPool.obj
 0001:00005ab3       ?createObject@XMLStringPool@xercesc_3_1@@SAPAVXSerializable@2@PAVMemoryManager@2@@Z 12006ab3 f   StringPool.obj
 0001:00005ae7       ?getProtoType@XMLStringPool@xercesc_3_1@@UBEPAVXProtoType@2@XZ 12006ae7 f   StringPool.obj
 0001:00005aed       ?serialize@XMLStringPool@xercesc_3_1@@UAEXAAVXSerializeEngine@2@@Z 12006aed f   StringPool.obj
 0001:00005b79       ??0XMLStringPool@xercesc_3_1@@QAE@QAVMemoryManager@1@@Z 12006b79 f   StringPool.obj
 0001:00005c09       ??0?$RefHashTableOf@UPoolElem@XMLStringPool@xercesc_3_1@@UStringHasher@3@@xercesc_3_1@@QAE@K_NQAVMemoryManager@1@@Z 12006c09 f i StringPool.obj
 0001:00005c09       ??0?$RefHashTableOf@_WUStringHasher@xercesc_3_1@@@xercesc_3_1@@QAE@K_NQAVMemoryManager@1@@Z 12006c09 f i DOMLSSerializerImpl.obj
 0001:00005c7b       ?removeAll@?$RefHashTableOf@UPoolElem@XMLStringPool@xercesc_3_1@@UStringHasher@3@@xercesc_3_1@@QAEXXZ 12006c7b f i StringPool.obj
 0001:00005c7b       ?removeAll@?$RefHashTableOf@IUPtrHasher@xercesc_3_1@@@xercesc_3_1@@QAEXXZ 12006c7b f i DGXMLScanner.obj
 0001:00005cd9       ?put@?$RefHashTableOf@_WUStringHasher@xercesc_3_1@@@xercesc_3_1@@QAEXPAXQA_W@Z 12006cd9 f i DOMLSSerializerImpl.obj
 0001:00005cd9       ?put@?$RefHashTableOf@UPoolElem@XMLStringPool@xercesc_3_1@@UStringHasher@3@@xercesc_3_1@@QAEXPAXQAUPoolElem@XMLStringPool@2@@Z 12006cd9 f i StringPool.obj
 0001:00005d5d       ?findBucketElem@?$RefHashTableOf@VRangeFactory@xercesc_3_1@@UStringHasher@2@@xercesc_3_1@@AAEPAU?$RefHashTableBucketElem@VRangeFactory@xercesc_3_1@@@2@QBXAAK@Z 12006d5d f i RangeTokenMap.obj
 0001:00005d5d       ?findBucketElem@?$RefHashTableOf@VXMLAttDef@xercesc_3_1@@UStringHasher@2@@xercesc_3_1@@AAEPAU?$RefHashTableBucketElem@VXMLAttDef@xercesc_3_1@@@2@QBXAAK@Z 12006d5d f i IGXMLScanner2.obj
 0001:00005d5d       ?findBucketElem@?$RefHashTableOf@VXSObject@xercesc_3_1@@UStringHasher@2@@xercesc_3_1@@AAEPAU?$RefHashTableBucketElem@VXSObject@xercesc_3_1@@@2@QBXAAK@Z 12006d5d f i XSModel.obj
 0001:00005d5d       ?findBucketElem@?$RefHashTableOf@UPoolElem@XMLStringPool@xercesc_3_1@@UStringHasher@3@@xercesc_3_1@@AAEPAU?$RefHashTableBucketElem@UPoolElem@XMLStringPool@xercesc_3_1@@@2@QBXAAK@Z 12006d5d f i StringPool.obj
 0001:00005d5d       ?findBucketElem@?$RefHashTableOf@VKVStringPair@xercesc_3_1@@UStringHasher@2@@xercesc_3_1@@AAEPAU?$RefHashTableBucketElem@VKVStringPair@xercesc_3_1@@@2@QBXAAK@Z 12006d5d f i XTemplateSerializer.obj
 0001:00005d5d       ?findBucketElem@?$RefHashTableOf@VGrammar@xercesc_3_1@@UStringHasher@2@@xercesc_3_1@@AAEPAU?$RefHashTableBucketElem@VGrammar@xercesc_3_1@@@2@QBXAAK@Z 12006d5d f i XMLGrammarPoolImpl.obj
 0001:00005d5d       ?findBucketElem@?$RefHashTableOf@VCPMapEntry@xercesc_3_1@@UStringHasher@2@@xercesc_3_1@@AAEPAU?$RefHashTableBucketElem@VCPMapEntry@xercesc_3_1@@@2@QBXAAK@Z 12006d5d f i Win32TransService.obj
 0001:00005d5d       ?findBucketElem@?$RefHashTableOf@VDTDElementDecl@xercesc_3_1@@UStringHasher@2@@xercesc_3_1@@AAEPAU?$RefHashTableBucketElem@VDTDElementDecl@xercesc_3_1@@@2@QBXAAK@Z 12006d5d f i XMLGrammarPoolImpl.obj
 0001:00005d5d       ?findBucketElem@?$RefHashTableOf@VXercesGroupInfo@xercesc_3_1@@UStringHasher@2@@xercesc_3_1@@AAEPAU?$RefHashTableBucketElem@VXercesGroupInfo@xercesc_3_1@@@2@QBXAAK@Z 12006d5d f i XTemplateSerializer.obj
 0001:00005d5d       ?findBucketElem@?$RefHashTableOf@VENameMap@xercesc_3_1@@UStringHasher@2@@xercesc_3_1@@AAEPAU?$RefHashTableBucketElem@VENameMap@xercesc_3_1@@@2@QBXAAK@Z 12006d5d f i TransService.obj
 0001:00005d5d       ?findBucketElem@?$RefHashTableOf@VDTDAttDef@xercesc_3_1@@UStringHasher@2@@xercesc_3_1@@AAEPAU?$RefHashTableBucketElem@VDTDAttDef@xercesc_3_1@@@2@QBXAAK@Z 12006d5d f i XTemplateSerializer.obj
 0001:00005d5d       ?findBucketElem@?$RefHashTableOf@VRangeTokenElemMap@xercesc_3_1@@UStringHasher@2@@xercesc_3_1@@AAEPAU?$RefHashTableBucketElem@VRangeTokenElemMap@xercesc_3_1@@@2@QBXAAK@Z 12006d5d f i RangeTokenMap.obj
 0001:00005d5d       ?findBucketElem@?$RefHashTableOf@VDatatypeValidator@xercesc_3_1@@UStringHasher@2@@xercesc_3_1@@AAEPAU?$RefHashTableBucketElem@VDatatypeValidator@xercesc_3_1@@@2@QBXAAK@Z 12006d5d f i XMLGrammarPoolImpl.obj
 0001:00005d5d       ?findBucketElem@?$RefHashTableOf@VComplexTypeInfo@xercesc_3_1@@UStringHasher@2@@xercesc_3_1@@AAEPAU?$RefHashTableBucketElem@VComplexTypeInfo@xercesc_3_1@@@2@QBXAAK@Z 12006d5d f i XTemplateSerializer.obj
 0001:00005d5d       ?findBucketElem@?$RefHashTableOf@VXMLRefInfo@xercesc_3_1@@UStringHasher@2@@xercesc_3_1@@AAEPAU?$RefHashTableBucketElem@VXMLRefInfo@xercesc_3_1@@@2@QBXAAK@Z 12006d5d f i ValidationContextImpl.obj
 0001:00005d5d       ?findBucketElem@?$RefHashTableOf@_WUStringHasher@xercesc_3_1@@@xercesc_3_1@@AAEPAU?$RefHashTableBucketElem@_W@2@QBXAAK@Z 12006d5d f i DOMLSSerializerImpl.obj
 0001:00005d5d       ?findBucketElem@?$RefHashTableOf@V?$ValueVectorOf@PAVSchemaElementDecl@xercesc_3_1@@@xercesc_3_1@@UStringHasher@2@@xercesc_3_1@@AAEPAU?$RefHashTableBucketElem@V?$ValueVectorOf@PAVSchemaElementDecl@xercesc_3_1@@@xercesc_3_1@@@2@QBXAAK@Z 12006d5d f i TraverseSchema.obj
 0001:00005d5d       ?findBucketElem@?$RefHashTableOf@VXMLNotationDecl@xercesc_3_1@@UStringHasher@2@@xercesc_3_1@@AAEPAU?$RefHashTableBucketElem@VXMLNotationDecl@xercesc_3_1@@@2@QBXAAK@Z 12006d5d f i XMLGrammarPoolImpl.obj
 0001:00005d5d       ?findBucketElem@?$RefHashTableOf@VDTDEntityDecl@xercesc_3_1@@UStringHasher@2@@xercesc_3_1@@ABEPBU?$RefHashTableBucketElem@VDTDEntityDecl@xercesc_3_1@@@2@QBXAAK@Z 12006d5d f i XMLGrammarPoolImpl.obj
 0001:00005d5d       ?findBucketElem@?$RefHashTableOf@VDTDEntityDecl@xercesc_3_1@@UStringHasher@2@@xercesc_3_1@@AAEPAU?$RefHashTableBucketElem@VDTDEntityDecl@xercesc_3_1@@@2@QBXAAK@Z 12006d5d f i XMLGrammarPoolImpl.obj
 0001:00005d5d       ?findBucketElem@?$RefHashTableOf@VXMLElementDecl@xercesc_3_1@@UStringHasher@2@@xercesc_3_1@@AAEPAU?$RefHashTableBucketElem@VXMLElementDecl@xercesc_3_1@@@2@QBXAAK@Z 12006d5d f i WFXMLScanner.obj
 0001:00005d5d       ?findBucketElem@?$RefHashTableOf@VXSNamespaceItem@xercesc_3_1@@UStringHasher@2@@xercesc_3_1@@AAEPAU?$RefHashTableBucketElem@VXSNamespaceItem@xercesc_3_1@@@2@QBXAAK@Z 12006d5d f i XSModel.obj
 0001:00005d5d       ?findBucketElem@?$RefHashTableOf@VDOMElement@xercesc_3_1@@UStringHasher@2@@xercesc_3_1@@AAEPAU?$RefHashTableBucketElem@VDOMElement@xercesc_3_1@@@2@QBXAAK@Z 12006d5d f i SchemaInfo.obj
 0001:00005d5d       ?findBucketElem@?$RefHashTableOf@VXercesAttGroupInfo@xercesc_3_1@@UStringHasher@2@@xercesc_3_1@@AAEPAU?$RefHashTableBucketElem@VXercesAttGroupInfo@xercesc_3_1@@@2@QBXAAK@Z 12006d5d f i XTemplateSerializer.obj
 0001:00005da0       ?rehash@?$RefHashTableOf@VXercesAttGroupInfo@xercesc_3_1@@UStringHasher@2@@xercesc_3_1@@AAEXXZ 12006da0 f i XTemplateSerializer.obj
 0001:00005da0       ?rehash@?$RefHashTableOf@VGrammar@xercesc_3_1@@UStringHasher@2@@xercesc_3_1@@AAEXXZ 12006da0 f i XMLGrammarPoolImpl.obj
 0001:00005da0       ?rehash@?$RefHashTableOf@VDTDEntityDecl@xercesc_3_1@@UStringHasher@2@@xercesc_3_1@@AAEXXZ 12006da0 f i XMLGrammarPoolImpl.obj
 0001:00005da0       ?rehash@?$RefHashTableOf@VXMLNotationDecl@xercesc_3_1@@UStringHasher@2@@xercesc_3_1@@AAEXXZ 12006da0 f i XMLGrammarPoolImpl.obj
 0001:00005da0       ?rehash@?$RefHashTableOf@VDTDAttDef@xercesc_3_1@@UStringHasher@2@@xercesc_3_1@@AAEXXZ 12006da0 f i XTemplateSerializer.obj
 0001:00005da0       ?rehash@?$RefHashTableOf@VXMLElementDecl@xercesc_3_1@@UStringHasher@2@@xercesc_3_1@@AAEXXZ 12006da0 f i WFXMLScanner.obj
 0001:00005da0       ?rehash@?$RefHashTableOf@VDOMElement@xercesc_3_1@@UStringHasher@2@@xercesc_3_1@@AAEXXZ 12006da0 f i SchemaInfo.obj
 0001:00005da0       ?rehash@?$RefHashTableOf@VCPMapEntry@xercesc_3_1@@UStringHasher@2@@xercesc_3_1@@AAEXXZ 12006da0 f i Win32TransService.obj
 0001:00005da0       ?rehash@?$RefHashTableOf@VXercesGroupInfo@xercesc_3_1@@UStringHasher@2@@xercesc_3_1@@AAEXXZ 12006da0 f i XTemplateSerializer.obj
 0001:00005da0       ?rehash@?$RefHashTableOf@VRangeFactory@xercesc_3_1@@UStringHasher@2@@xercesc_3_1@@AAEXXZ 12006da0 f i RangeTokenMap.obj
 0001:00005da0       ?rehash@?$RefHashTableOf@VDTDElementDecl@xercesc_3_1@@UStringHasher@2@@xercesc_3_1@@AAEXXZ 12006da0 f i XMLGrammarPoolImpl.obj
 0001:00005da0       ?rehash@?$RefHashTableOf@VXSNamespaceItem@xercesc_3_1@@UStringHasher@2@@xercesc_3_1@@AAEXXZ 12006da0 f i XSModel.obj
 0001:00005da0       ?rehash@?$RefHashTableOf@VXMLAttDef@xercesc_3_1@@UStringHasher@2@@xercesc_3_1@@AAEXXZ 12006da0 f i XTemplateSerializer.obj
 0001:00005da0       ?rehash@?$RefHashTableOf@VRangeTokenElemMap@xercesc_3_1@@UStringHasher@2@@xercesc_3_1@@AAEXXZ 12006da0 f i RangeTokenMap.obj
 0001:00005da0       ?rehash@?$RefHashTableOf@_WUStringHasher@xercesc_3_1@@@xercesc_3_1@@AAEXXZ 12006da0 f i DOMLSSerializerImpl.obj
 0001:00005da0       ?rehash@?$RefHashTableOf@VDatatypeValidator@xercesc_3_1@@UStringHasher@2@@xercesc_3_1@@AAEXXZ 12006da0 f i XTemplateSerializer.obj
 0001:00005da0       ?rehash@?$RefHashTableOf@VKVStringPair@xercesc_3_1@@UStringHasher@2@@xercesc_3_1@@AAEXXZ 12006da0 f i XTemplateSerializer.obj
 0001:00005da0       ?rehash@?$RefHashTableOf@V?$ValueVectorOf@PAVSchemaElementDecl@xercesc_3_1@@@xercesc_3_1@@UStringHasher@2@@xercesc_3_1@@AAEXXZ 12006da0 f i TraverseSchema.obj
 0001:00005da0       ?rehash@?$RefHashTableOf@VENameMap@xercesc_3_1@@UStringHasher@2@@xercesc_3_1@@AAEXXZ 12006da0 f i TransService.obj
 0001:00005da0       ?rehash@?$RefHashTableOf@VXMLRefInfo@xercesc_3_1@@UStringHasher@2@@xercesc_3_1@@AAEXXZ 12006da0 f i ValidationContextImpl.obj
 0001:00005da0       ?rehash@?$RefHashTableOf@VComplexTypeInfo@xercesc_3_1@@UStringHasher@2@@xercesc_3_1@@AAEXXZ 12006da0 f i XTemplateSerializer.obj
 0001:00005da0       ?rehash@?$RefHashTableOf@UPoolElem@XMLStringPool@xercesc_3_1@@UStringHasher@3@@xercesc_3_1@@AAEXXZ 12006da0 f i StringPool.obj
 0001:00005e4f       ??_EXMLSynchronizedStringPool@xercesc_3_1@@UAEPAXI@Z 12006e4f f i SynchronizedStringPool.obj
 0001:00005e9a       ??0XMLSynchronizedStringPool@xercesc_3_1@@QAE@PBVXMLStringPool@1@IQAVMemoryManager@1@@Z 12006e9a f   SynchronizedStringPool.obj
 0001:00005edb       ??1XMLSynchronizedStringPool@xercesc_3_1@@UAE@XZ 12006edb f   SynchronizedStringPool.obj
 0001:00005f0f       ?addOrFind@XMLSynchronizedStringPool@xercesc_3_1@@UAEIQB_W@Z 12006f0f f   SynchronizedStringPool.obj
 0001:00005f6a       ?exists@XMLSynchronizedStringPool@xercesc_3_1@@UBE_NQB_W@Z 12006f6a f   SynchronizedStringPool.obj
 0001:00005faa       ?exists@XMLSynchronizedStringPool@xercesc_3_1@@UBE_NI@Z 12006faa f   SynchronizedStringPool.obj
 0001:00005ff3       ?flushAll@XMLSynchronizedStringPool@xercesc_3_1@@UAEXXZ 12006ff3 f   SynchronizedStringPool.obj
 0001:00005ff8       ?getId@XMLSynchronizedStringPool@xercesc_3_1@@UBEIQB_W@Z 12006ff8 f   SynchronizedStringPool.obj
 0001:0000603e       ?getValueForId@XMLSynchronizedStringPool@xercesc_3_1@@UBEPB_WI@Z 1200703e f   SynchronizedStringPool.obj
 0001:000060a2       ?getStringCount@XMLSynchronizedStringPool@xercesc_3_1@@UBEIXZ 120070a2 f   SynchronizedStringPool.obj
 0001:000060cb       ??_EXMLTransService@xercesc_3_1@@UAEPAXI@Z 120070cb f i TransService.obj
 0001:00006117       ??_EXMLTranscoder@xercesc_3_1@@UAEPAXI@Z 12007117 f i TransService.obj
 0001:00006162       ??_EXMLLCPTranscoder@xercesc_3_1@@UAEPAXI@Z 12007162 f i TransService.obj
 0001:000061ae       ?checkTrailingBytes@XMLUTF8Transcoder@xercesc_3_1@@ABEXEII@Z 120071ae f i TransService.obj
 0001:00006231       ??1ENameMap@xercesc_3_1@@UAE@XZ 12007231 f i TransService.obj
 0001:00006248       ??0ENameMap@xercesc_3_1@@IAE@QB_W@Z 12007248 f i TransService.obj
 0001:0000626e       ??_EENameMap@xercesc_3_1@@UAEPAXI@Z 1200726e f i * CIL library *:* CIL module *
 0001:0000626e       ??_GENameMap@xercesc_3_1@@UAEPAXI@Z 1200726e f i TransService.obj
 0001:0000628d       ?initializeTransService@XMLInitializer@xercesc_3_1@@KAXXZ 1200728d f   TransService.obj
 0001:000062f1       ?terminateTransService@XMLInitializer@xercesc_3_1@@KAXXZ 120072f1 f   TransService.obj
 0001:00006320       ??_G?$RefHashTableOf@VDTDAttDef@xercesc_3_1@@UStringHasher@2@@xercesc_3_1@@QAEPAXI@Z 12007320 f i XTemplateSerializer.obj
 0001:00006320       ??_G?$RefHashTableOf@VXercesAttGroupInfo@xercesc_3_1@@UStringHasher@2@@xercesc_3_1@@QAEPAXI@Z 12007320 f i XSModel.obj
 0001:00006320       ??_G?$RefHashTableOf@VENameMap@xercesc_3_1@@UStringHasher@2@@xercesc_3_1@@QAEPAXI@Z 12007320 f i TransService.obj
 0001:00006320       ??_G?$RefHashTableOf@VXercesGroupInfo@xercesc_3_1@@UStringHasher@2@@xercesc_3_1@@QAEPAXI@Z 12007320 f i XSModel.obj
 0001:00006320       ??_G?$RefHashTableOf@VXSObject@xercesc_3_1@@UPtrHasher@2@@xercesc_3_1@@QAEPAXI@Z 12007320 f i XSObjectFactory.obj
 0001:00006320       ??_G?$RefHashTableOf@VXSObject@xercesc_3_1@@UStringHasher@2@@xercesc_3_1@@QAEPAXI@Z 12007320 f i XSNamespaceItem.obj
 0001:00006320       ??_G?$RefHashTableOf@VComplexTypeInfo@xercesc_3_1@@UStringHasher@2@@xercesc_3_1@@QAEPAXI@Z 12007320 f i XSModel.obj
 0001:00006320       ??_G?$RefHashTableOf@VRangeFactory@xercesc_3_1@@UStringHasher@2@@xercesc_3_1@@QAEPAXI@Z 12007320 f i RangeTokenMap.obj
 0001:00006320       ??_G?$RefHashTableOf@VKVStringPair@xercesc_3_1@@UStringHasher@2@@xercesc_3_1@@QAEPAXI@Z 12007320 f i XSObjectFactory.obj
 0001:00006320       ??_G?$RefHashTableOf@VDOMElement@xercesc_3_1@@UStringHasher@2@@xercesc_3_1@@QAEPAXI@Z 12007320 f i IGXMLScanner.obj
 0001:00006320       ??_G?$RefHashTableOf@VXMLAttDef@xercesc_3_1@@UStringHasher@2@@xercesc_3_1@@QAEPAXI@Z 12007320 f i XSModel.obj
 0001:0000639a       ??0XMLTransService@xercesc_3_1@@IAE@XZ 1200739a f   TransService.obj
 0001:000063a3       ??1XMLTransService@xercesc_3_1@@UAE@XZ 120073a3 f   TransService.obj
 0001:000063aa       ?addEncoding@XMLTransService@xercesc_3_1@@SAXQB_WQAVENameMap@2@@Z 120073aa f   TransService.obj
 0001:000063ba       ?makeNewTranscoderFor@XMLTransService@xercesc_3_1@@QAEPAVXMLTranscoder@2@QBDAAW4Codes@12@KQAVMemoryManager@2@@Z 120073ba f   TransService.obj
 0001:00006407       ?makeNewTranscoderFor@XMLTransService@xercesc_3_1@@QAEPAVXMLTranscoder@2@QB_WAAW4Codes@12@KQAVMemoryManager@2@@Z 12007407 f   TransService.obj
 0001:000064f8       ?makeNewTranscoderFor@XMLTransService@xercesc_3_1@@QAEPAVXMLTranscoder@2@W4Encodings@XMLRecognizer@2@AAW4Codes@12@KQAVMemoryManager@2@@Z 120074f8 f   TransService.obj
 0001:0000659e       ?initTransService@XMLTransService@xercesc_3_1@@MAEXXZ 1200759e f   TransService.obj
 0001:000072e5       ?strictIANAEncoding@XMLTransService@xercesc_3_1@@AAEX_N@Z 120082e5 f   TransService.obj
 0001:000072f4       ?isStrictIANAEncoding@XMLTransService@xercesc_3_1@@AAE_NXZ 120082f4 f   TransService.obj
 0001:000072fa       ??1XMLTranscoder@xercesc_3_1@@UAE@XZ 120082fa f   TransService.obj
 0001:0000730e       ??0XMLTranscoder@xercesc_3_1@@IAE@QB_WKQAVMemoryManager@1@@Z 1200830e f   TransService.obj
 0001:0000733f       ??0XMLLCPTranscoder@xercesc_3_1@@IAE@XZ 1200833f f   TransService.obj
 0001:00007348       ??1Win32LCPTranscoder@xercesc_3_1@@UAE@XZ 12008348 f   Win32TransService.obj
 0001:00007348       ??1XMLLCPTranscoder@xercesc_3_1@@UAE@XZ 12008348 f   TransService.obj
 0001:0000734f       ??0TranscodeToStr@xercesc_3_1@@QAE@PB_WPBDPAVMemoryManager@1@@Z 1200834f f   TransService.obj
 0001:000073ba       ??0TranscodeToStr@xercesc_3_1@@QAE@PB_WKPBDPAVMemoryManager@1@@Z 120083ba f   TransService.obj
 0001:0000741e       ??0TranscodeToStr@xercesc_3_1@@QAE@PB_WPAVXMLTranscoder@1@PAVMemoryManager@1@@Z 1200841e f   TransService.obj
 0001:0000744f       ??0TranscodeToStr@xercesc_3_1@@QAE@PB_WKPAVXMLTranscoder@1@PAVMemoryManager@1@@Z 1200844f f   TransService.obj
 0001:00007477       ??1TranscodeFromStr@xercesc_3_1@@QAE@XZ 12008477 f   TransService.obj
 0001:00007477       ??1TranscodeToStr@xercesc_3_1@@QAE@XZ 12008477 f   TransService.obj
 0001:00007487       ?transcode@TranscodeToStr@xercesc_3_1@@AAEXPB_WKPAVXMLTranscoder@2@@Z 12008487 f   TransService.obj
 0001:00007636       ??0TranscodeFromStr@xercesc_3_1@@QAE@PBEKPBDPAVMemoryManager@1@@Z 12008636 f   TransService.obj
 0001:0000769a       ??0TranscodeFromStr@xercesc_3_1@@QAE@PBEKPAVXMLTranscoder@1@PAVMemoryManager@1@@Z 1200869a f   TransService.obj
 0001:000076c2       ?transcode@TranscodeFromStr@xercesc_3_1@@AAEXPBEKPAVXMLTranscoder@2@@Z 120086c2 f   TransService.obj
 0001:000078b5       ??0?$RefHashTableOf@VENameMap@xercesc_3_1@@UStringHasher@2@@xercesc_3_1@@QAE@KQAVMemoryManager@1@@Z 120088b5 f i TransService.obj
 0001:000078fe       ?put@?$RefHashTableOf@VENameMap@xercesc_3_1@@UStringHasher@2@@xercesc_3_1@@QAEXPAXQAVENameMap@2@@Z 120088fe f i TransService.obj
 0001:0000798b       ??1?$BaseRefVectorOf@VENameMap@xercesc_3_1@@@xercesc_3_1@@UAE@XZ 1200898b f i TransService.obj
 0001:00007992       ?addElement@?$BaseRefVectorOf@VENameMap@xercesc_3_1@@@xercesc_3_1@@QAEXQAVENameMap@2@@Z 12008992 f i TransService.obj
 0001:00007a17       ?setElementAt@?$BaseRefVectorOf@VXMLEntityDecl@xercesc_3_1@@@xercesc_3_1@@UAEXQAVXMLEntityDecl@2@K@Z 12008a17 f i ReaderMgr.obj
 0001:00007a17       ?setElementAt@?$BaseRefVectorOf@VSchemaElementDecl@xercesc_3_1@@@xercesc_3_1@@UAEXQAVSchemaElementDecl@2@K@Z 12008a17 f i XMLElementDecl.obj
 0001:00007a17       ?setElementAt@?$BaseRefVectorOf@VXMLNumber@xercesc_3_1@@@xercesc_3_1@@UAEXQAVXMLNumber@2@K@Z 12008a17 f i XTemplateSerializer.obj
 0001:00007a17       ?setElementAt@?$BaseRefVectorOf@VXSFacet@xercesc_3_1@@@xercesc_3_1@@UAEXQAVXSFacet@2@K@Z 12008a17 f i XSObjectFactory.obj
 0001:00007a17       ?setElementAt@?$BaseRefVectorOf@VIdentityConstraint@xercesc_3_1@@@xercesc_3_1@@UAEXQAVIdentityConstraint@2@K@Z 12008a17 f i XMLElementDecl.obj
 0001:00007a17       ?setElementAt@?$BaseRefVectorOf@VXPathMatcher@xercesc_3_1@@@xercesc_3_1@@UAEXQAVXPathMatcher@2@K@Z 12008a17 f i XPathMatcherStack.obj
 0001:00007a17       ?setElementAt@?$BaseRefVectorOf@VXSParticle@xercesc_3_1@@@xercesc_3_1@@UAEXQAVXSParticle@2@K@Z 12008a17 f i XSObjectFactory.obj
 0001:00007a17       ?setElementAt@?$BaseRefVectorOf@VXercesStep@xercesc_3_1@@@xercesc_3_1@@UAEXQAVXercesStep@2@K@Z 12008a17 f i XTemplateSerializer.obj
 0001:00007a17       ?setElementAt@?$BaseRefVectorOf@VDOMDocumentImpl@xercesc_3_1@@@xercesc_3_1@@UAEXQAVDOMDocumentImpl@2@K@Z 12008a17 f i AbstractDOMParser.obj
 0001:00007a17       ?setElementAt@?$BaseRefVectorOf@VXSAttributeUse@xercesc_3_1@@@xercesc_3_1@@UAEXQAVXSAttributeUse@2@K@Z 12008a17 f i XSObjectFactory.obj
 0001:00007a17       ?setElementAt@?$BaseRefVectorOf@VDOMImplementation@xercesc_3_1@@@xercesc_3_1@@UAEXQAVDOMImplementation@2@K@Z 12008a17 f i DOMImplementationListImpl.obj
 0001:00007a17       ?setElementAt@?$BaseRefVectorOf@VToken@xercesc_3_1@@@xercesc_3_1@@UAEXQAVToken@2@K@Z 12008a17 f i TokenFactory.obj
 0001:00007a17       ?setElementAt@?$BaseRefVectorOf@VSchemaAttDef@xercesc_3_1@@@xercesc_3_1@@UAEXQAVSchemaAttDef@2@K@Z 12008a17 f i XMLGrammarPoolImpl.obj
 0001:00007a17       ?setElementAt@?$BaseRefVectorOf@VDOMNode@xercesc_3_1@@@xercesc_3_1@@UAEXQAVDOMNode@2@K@Z 12008a17 f i DOMDocumentImpl.obj
 0001:00007a17       ?setElementAt@?$BaseRefVectorOf@VENameMap@xercesc_3_1@@@xercesc_3_1@@UAEXQAVENameMap@2@K@Z 12008a17 f i TransService.obj
 0001:00007a17       ?setElementAt@?$BaseRefVectorOf@VXSAnnotation@xercesc_3_1@@@xercesc_3_1@@UAEXQAVXSAnnotation@2@K@Z 12008a17 f i XSComplexTypeDefinition.obj
 0001:00007a17       ?setElementAt@?$BaseRefVectorOf@VXSObject@xercesc_3_1@@@xercesc_3_1@@UAEXQAVXSObject@2@K@Z 12008a17 f i XSModel.obj
 0001:00007a17       ?setElementAt@?$BaseRefVectorOf@VDatatypeValidator@xercesc_3_1@@@xercesc_3_1@@UAEXQAVDatatypeValidator@2@K@Z 12008a17 f i XTemplateSerializer.obj
 0001:00007a17       ?setElementAt@?$BaseRefVectorOf@VDOMRangeImpl@xercesc_3_1@@@xercesc_3_1@@UAEXQAVDOMRangeImpl@2@K@Z 12008a17 f i DOMDocumentImpl.obj
 0001:00007a17       ?setElementAt@?$BaseRefVectorOf@VOp@xercesc_3_1@@@xercesc_3_1@@UAEXQAVOp@2@K@Z 12008a17 f i Op.obj
 0001:00007a17       ?setElementAt@?$BaseRefVectorOf@VXSMultiValueFacet@xercesc_3_1@@@xercesc_3_1@@UAEXQAVXSMultiValueFacet@2@K@Z 12008a17 f i XSObjectFactory.obj
 0001:00007a17       ?setElementAt@?$BaseRefVectorOf@VKVStringPair@xercesc_3_1@@@xercesc_3_1@@UAEXQAVKVStringPair@2@K@Z 12008a17 f i IGXMLScanner.obj
 0001:00007a17       ?setElementAt@?$BaseRefVectorOf@VIC_Field@xercesc_3_1@@@xercesc_3_1@@UAEXQAVIC_Field@2@K@Z 12008a17 f i XMLElementDecl.obj
 0001:00007a17       ?setElementAt@?$BaseRefVectorOf@VMatch@xercesc_3_1@@@xercesc_3_1@@UAEXQAVMatch@2@K@Z 12008a17 f i RegularExpression.obj
 0001:00007a17       ?setElementAt@?$BaseRefVectorOf@VXSIDCDefinition@xercesc_3_1@@@xercesc_3_1@@UAEXQAVXSIDCDefinition@2@K@Z 12008a17 f i XSObjectFactory.obj
 0001:00007a17       ?setElementAt@?$BaseRefVectorOf@VContentSpecNode@xercesc_3_1@@@xercesc_3_1@@UAEXQAVContentSpecNode@2@K@Z 12008a17 f i XTemplateSerializer.obj
 0001:00007a17       ?setElementAt@?$BaseRefVectorOf@VXSSimpleTypeDefinition@xercesc_3_1@@@xercesc_3_1@@UAEXQAVXSSimpleTypeDefinition@2@K@Z 12008a17 f i XSObjectFactory.obj
 0001:00007a17       ?setElementAt@?$BaseRefVectorOf@VDOMImplementationSource@xercesc_3_1@@@xercesc_3_1@@UAEXQAVDOMImplementationSource@2@K@Z 12008a17 f i DOMImplementationRegistry.obj
 0001:00007a17       ?setElementAt@?$BaseRefVectorOf@VXercesLocationPath@xercesc_3_1@@@xercesc_3_1@@UAEXQAVXercesLocationPath@2@K@Z 12008a17 f i XTemplateSerializer.obj
 0001:00007a17       ?setElementAt@?$BaseRefVectorOf@VXMLElementDecl@xercesc_3_1@@@xercesc_3_1@@UAEXQAVXMLElementDecl@2@K@Z 12008a17 f i WFXMLScanner.obj
 0001:00007a17       ?setElementAt@?$BaseRefVectorOf@VDOMNodeIteratorImpl@xercesc_3_1@@@xercesc_3_1@@UAEXQAVDOMNodeIteratorImpl@2@K@Z 12008a17 f i DOMDocumentImpl.obj
 0001:00007a75       ?removeAllElements@?$BaseRefVectorOf@VXercesLocationPath@xercesc_3_1@@@xercesc_3_1@@UAEXXZ 12008a75 f i XTemplateSerializer.obj
 0001:00007a75       ?removeAllElements@?$BaseRefVectorOf@VXSMultiValueFacet@xercesc_3_1@@@xercesc_3_1@@UAEXXZ 12008a75 f i XSObjectFactory.obj
 0001:00007a75       ?removeAllElements@?$BaseRefVectorOf@VContentSpecNode@xercesc_3_1@@@xercesc_3_1@@UAEXXZ 12008a75 f i XTemplateSerializer.obj
 0001:00007a75       ?removeAllElements@?$BaseRefVectorOf@VDOMDocumentImpl@xercesc_3_1@@@xercesc_3_1@@UAEXXZ 12008a75 f i AbstractDOMParser.obj
 0001:00007a75       ?removeAllElements@?$BaseRefVectorOf@VKVStringPair@xercesc_3_1@@@xercesc_3_1@@UAEXXZ 12008a75 f i IGXMLScanner.obj
 0001:00007a75       ?removeAllElements@?$BaseRefVectorOf@VDOMNodeIteratorImpl@xercesc_3_1@@@xercesc_3_1@@UAEXXZ 12008a75 f i DOMDocumentImpl.obj
 0001:00007a75       ?removeAllElements@?$BaseRefVectorOf@VSchemaAttDef@xercesc_3_1@@@xercesc_3_1@@UAEXXZ 12008a75 f i XMLGrammarPoolImpl.obj
 0001:00007a75       ?removeAllElements@?$BaseRefVectorOf@VDatatypeValidator@xercesc_3_1@@@xercesc_3_1@@UAEXXZ 12008a75 f i XTemplateSerializer.obj
 0001:00007a75       ?removeAllElements@?$BaseRefVectorOf@VToken@xercesc_3_1@@@xercesc_3_1@@UAEXXZ 12008a75 f i TokenFactory.obj
 0001:00007a75       ?removeAllElements@?$BaseRefVectorOf@VDOMImplementationSource@xercesc_3_1@@@xercesc_3_1@@UAEXXZ 12008a75 f i DOMImplementationRegistry.obj
 0001:00007a75       ?removeAllElements@?$BaseRefVectorOf@VXMLNumber@xercesc_3_1@@@xercesc_3_1@@UAEXXZ 12008a75 f i XTemplateSerializer.obj
 0001:00007a75       ?removeAllElements@?$BaseRefVectorOf@VXSFacet@xercesc_3_1@@@xercesc_3_1@@UAEXXZ 12008a75 f i XSObjectFactory.obj
 0001:00007a75       ?removeAllElements@?$BaseRefVectorOf@VXSAnnotation@xercesc_3_1@@@xercesc_3_1@@UAEXXZ 12008a75 f i XSComplexTypeDefinition.obj
 0001:00007a75       ?removeAllElements@?$BaseRefVectorOf@VDOMImplementation@xercesc_3_1@@@xercesc_3_1@@UAEXXZ 12008a75 f i DOMImplementationListImpl.obj
 0001:00007a75       ?removeAllElements@?$BaseRefVectorOf@VSchemaElementDecl@xercesc_3_1@@@xercesc_3_1@@UAEXXZ 12008a75 f i XMLElementDecl.obj
 0001:00007a75       ?removeAllElements@?$BaseRefVectorOf@VXMLElementDecl@xercesc_3_1@@@xercesc_3_1@@UAEXXZ 12008a75 f i WFXMLScanner.obj
 0001:00007a75       ?removeAllElements@?$BaseRefVectorOf@VOp@xercesc_3_1@@@xercesc_3_1@@UAEXXZ 12008a75 f i Op.obj
 0001:00007a75       ?removeAllElements@?$BaseRefVectorOf@VXSObject@xercesc_3_1@@@xercesc_3_1@@UAEXXZ 12008a75 f i XSModel.obj
 0001:00007a75       ?removeAllElements@?$BaseRefVectorOf@VIdentityConstraint@xercesc_3_1@@@xercesc_3_1@@UAEXXZ 12008a75 f i XMLElementDecl.obj
 0001:00007a75       ?removeAllElements@?$BaseRefVectorOf@VXSParticle@xercesc_3_1@@@xercesc_3_1@@UAEXXZ 12008a75 f i XSObjectFactory.obj
 0001:00007a75       ?removeAllElements@?$BaseRefVectorOf@VIC_Field@xercesc_3_1@@@xercesc_3_1@@UAEXXZ 12008a75 f i XMLElementDecl.obj
 0001:00007a75       ?removeAllElements@?$BaseRefVectorOf@VXSSimpleTypeDefinition@xercesc_3_1@@@xercesc_3_1@@UAEXXZ 12008a75 f i XSObjectFactory.obj
 0001:00007a75       ?removeAllElements@?$BaseRefVectorOf@VDOMNode@xercesc_3_1@@@xercesc_3_1@@UAEXXZ 12008a75 f i DOMDocumentImpl.obj
 0001:00007a75       ?removeAllElements@?$BaseRefVectorOf@VXPathMatcher@xercesc_3_1@@@xercesc_3_1@@UAEXXZ 12008a75 f i XPathMatcherStack.obj
 0001:00007a75       ?removeAllElements@?$BaseRefVectorOf@VXSAttributeUse@xercesc_3_1@@@xercesc_3_1@@UAEXXZ 12008a75 f i XSObjectFactory.obj
 0001:00007a75       ?removeAllElements@?$BaseRefVectorOf@VXMLEntityDecl@xercesc_3_1@@@xercesc_3_1@@UAEXXZ 12008a75 f i ReaderMgr.obj
 0001:00007a75       ?removeAllElements@?$BaseRefVectorOf@VMatch@xercesc_3_1@@@xercesc_3_1@@UAEXXZ 12008a75 f i RegularExpression.obj
 0001:00007a75       ?removeAllElements@?$BaseRefVectorOf@VDOMRangeImpl@xercesc_3_1@@@xercesc_3_1@@UAEXXZ 12008a75 f i DOMDocumentImpl.obj
 0001:00007a75       ?removeAllElements@?$BaseRefVectorOf@VENameMap@xercesc_3_1@@@xercesc_3_1@@UAEXXZ 12008a75 f i TransService.obj
 0001:00007a75       ?removeAllElements@?$BaseRefVectorOf@VXSIDCDefinition@xercesc_3_1@@@xercesc_3_1@@UAEXXZ 12008a75 f i XSObjectFactory.obj
 0001:00007a75       ?removeAllElements@?$BaseRefVectorOf@VXercesStep@xercesc_3_1@@@xercesc_3_1@@UAEXXZ 12008a75 f i XTemplateSerializer.obj
 0001:00007aaa       ?removeElementAt@?$BaseRefVectorOf@VXSObject@xercesc_3_1@@@xercesc_3_1@@UAEXK@Z 12008aaa f i XSModel.obj
 0001:00007aaa       ?removeElementAt@?$BaseRefVectorOf@VMatch@xercesc_3_1@@@xercesc_3_1@@UAEXK@Z 12008aaa f i RegularExpression.obj
 0001:00007aaa       ?removeElementAt@?$BaseRefVectorOf@VIC_Field@xercesc_3_1@@@xercesc_3_1@@UAEXK@Z 12008aaa f i XMLElementDecl.obj
 0001:00007aaa       ?removeElementAt@?$BaseRefVectorOf@VDOMRangeImpl@xercesc_3_1@@@xercesc_3_1@@UAEXK@Z 12008aaa f i DOMDocumentImpl.obj
 0001:00007aaa       ?removeElementAt@?$BaseRefVectorOf@VXSFacet@xercesc_3_1@@@xercesc_3_1@@UAEXK@Z 12008aaa f i XSObjectFactory.obj
 0001:00007aaa       ?removeElementAt@?$BaseRefVectorOf@VDOMImplementationSource@xercesc_3_1@@@xercesc_3_1@@UAEXK@Z 12008aaa f i DOMImplementationRegistry.obj
 0001:00007aaa       ?removeElementAt@?$BaseRefVectorOf@VXSAttributeUse@xercesc_3_1@@@xercesc_3_1@@UAEXK@Z 12008aaa f i XSObjectFactory.obj
 0001:00007aaa       ?removeElementAt@?$BaseRefVectorOf@VToken@xercesc_3_1@@@xercesc_3_1@@UAEXK@Z 12008aaa f i TokenFactory.obj
 0001:00007aaa       ?removeElementAt@?$BaseRefVectorOf@VXercesStep@xercesc_3_1@@@xercesc_3_1@@UAEXK@Z 12008aaa f i XTemplateSerializer.obj
 0001:00007aaa       ?removeElementAt@?$BaseRefVectorOf@VSchemaAttDef@xercesc_3_1@@@xercesc_3_1@@UAEXK@Z 12008aaa f i XMLGrammarPoolImpl.obj
 0001:00007aaa       ?removeElementAt@?$BaseRefVectorOf@VXSIDCDefinition@xercesc_3_1@@@xercesc_3_1@@UAEXK@Z 12008aaa f i XSObjectFactory.obj
 0001:00007aaa       ?removeElementAt@?$BaseRefVectorOf@VDOMDocumentImpl@xercesc_3_1@@@xercesc_3_1@@UAEXK@Z 12008aaa f i AbstractDOMParser.obj
 0001:00007aaa       ?removeElementAt@?$BaseRefVectorOf@VDOMNode@xercesc_3_1@@@xercesc_3_1@@UAEXK@Z 12008aaa f i DOMDocumentImpl.obj
 0001:00007aaa       ?removeElementAt@?$BaseRefVectorOf@VDOMImplementation@xercesc_3_1@@@xercesc_3_1@@UAEXK@Z 12008aaa f i DOMImplementationListImpl.obj
 0001:00007aaa       ?removeElementAt@?$BaseRefVectorOf@VENameMap@xercesc_3_1@@@xercesc_3_1@@UAEXK@Z 12008aaa f i TransService.obj
 0001:00007aaa       ?removeElementAt@?$BaseRefVectorOf@VSchemaElementDecl@xercesc_3_1@@@xercesc_3_1@@UAEXK@Z 12008aaa f i XMLElementDecl.obj
 0001:00007aaa       ?removeElementAt@?$BaseRefVectorOf@VXSParticle@xercesc_3_1@@@xercesc_3_1@@UAEXK@Z 12008aaa f i XSObjectFactory.obj
 0001:00007aaa       ?removeElementAt@?$BaseRefVectorOf@VXMLEntityDecl@xercesc_3_1@@@xercesc_3_1@@UAEXK@Z 12008aaa f i ReaderMgr.obj
 0001:00007aaa       ?removeElementAt@?$BaseRefVectorOf@VKVStringPair@xercesc_3_1@@@xercesc_3_1@@UAEXK@Z 12008aaa f i IGXMLScanner.obj
 0001:00007aaa       ?removeElementAt@?$BaseRefVectorOf@VDOMNodeIteratorImpl@xercesc_3_1@@@xercesc_3_1@@UAEXK@Z 12008aaa f i DOMDocumentImpl.obj
 0001:00007aaa       ?removeElementAt@?$BaseRefVectorOf@VOp@xercesc_3_1@@@xercesc_3_1@@UAEXK@Z 12008aaa f i Op.obj
 0001:00007aaa       ?removeElementAt@?$BaseRefVectorOf@VXMLElementDecl@xercesc_3_1@@@xercesc_3_1@@UAEXK@Z 12008aaa f i WFXMLScanner.obj
 0001:00007aaa       ?removeElementAt@?$BaseRefVectorOf@VIdentityConstraint@xercesc_3_1@@@xercesc_3_1@@UAEXK@Z 12008aaa f i XMLElementDecl.obj
 0001:00007aaa       ?removeElementAt@?$BaseRefVectorOf@VContentSpecNode@xercesc_3_1@@@xercesc_3_1@@UAEXK@Z 12008aaa f i XTemplateSerializer.obj
 0001:00007aaa       ?removeElementAt@?$BaseRefVectorOf@VXercesLocationPath@xercesc_3_1@@@xercesc_3_1@@UAEXK@Z 12008aaa f i XTemplateSerializer.obj
 0001:00007aaa       ?removeElementAt@?$BaseRefVectorOf@VXSSimpleTypeDefinition@xercesc_3_1@@@xercesc_3_1@@UAEXK@Z 12008aaa f i XSObjectFactory.obj
 0001:00007aaa       ?removeElementAt@?$BaseRefVectorOf@VXSAnnotation@xercesc_3_1@@@xercesc_3_1@@UAEXK@Z 12008aaa f i XSComplexTypeDefinition.obj
 0001:00007aaa       ?removeElementAt@?$BaseRefVectorOf@VXSMultiValueFacet@xercesc_3_1@@@xercesc_3_1@@UAEXK@Z 12008aaa f i XSObjectFactory.obj
 0001:00007aaa       ?removeElementAt@?$BaseRefVectorOf@VXPathMatcher@xercesc_3_1@@@xercesc_3_1@@UAEXK@Z 12008aaa f i XPathMatcherStack.obj
 0001:00007aaa       ?removeElementAt@?$BaseRefVectorOf@VDatatypeValidator@xercesc_3_1@@@xercesc_3_1@@UAEXK@Z 12008aaa f i XTemplateSerializer.obj
 0001:00007aaa       ?removeElementAt@?$BaseRefVectorOf@VXMLNumber@xercesc_3_1@@@xercesc_3_1@@UAEXK@Z 12008aaa f i XTemplateSerializer.obj
 0001:00007b36       ?removeLastElement@?$BaseRefVectorOf@VContentSpecNode@xercesc_3_1@@@xercesc_3_1@@UAEXXZ 12008b36 f i XTemplateSerializer.obj
 0001:00007b36       ?removeLastElement@?$BaseRefVectorOf@VDOMImplementationSource@xercesc_3_1@@@xercesc_3_1@@UAEXXZ 12008b36 f i DOMImplementationRegistry.obj
 0001:00007b36       ?removeLastElement@?$BaseRefVectorOf@VXSFacet@xercesc_3_1@@@xercesc_3_1@@UAEXXZ 12008b36 f i XSObjectFactory.obj
 0001:00007b36       ?removeLastElement@?$BaseRefVectorOf@VXercesLocationPath@xercesc_3_1@@@xercesc_3_1@@UAEXXZ 12008b36 f i XTemplateSerializer.obj
 0001:00007b36       ?removeLastElement@?$BaseRefVectorOf@VXSObject@xercesc_3_1@@@xercesc_3_1@@UAEXXZ 12008b36 f i XSModel.obj
 0001:00007b36       ?removeLastElement@?$BaseRefVectorOf@VSchemaAttDef@xercesc_3_1@@@xercesc_3_1@@UAEXXZ 12008b36 f i XMLGrammarPoolImpl.obj
 0001:00007b36       ?removeLastElement@?$BaseRefVectorOf@VXSParticle@xercesc_3_1@@@xercesc_3_1@@UAEXXZ 12008b36 f i XSObjectFactory.obj
 0001:00007b36       ?removeLastElement@?$BaseRefVectorOf@VDOMNode@xercesc_3_1@@@xercesc_3_1@@UAEXXZ 12008b36 f i DOMDocumentImpl.obj
 0001:00007b36       ?removeLastElement@?$BaseRefVectorOf@VDOMDocumentImpl@xercesc_3_1@@@xercesc_3_1@@UAEXXZ 12008b36 f i AbstractDOMParser.obj
 0001:00007b36       ?removeLastElement@?$BaseRefVectorOf@VOp@xercesc_3_1@@@xercesc_3_1@@UAEXXZ 12008b36 f i Op.obj
 0001:00007b36       ?removeLastElement@?$BaseRefVectorOf@VXSSimpleTypeDefinition@xercesc_3_1@@@xercesc_3_1@@UAEXXZ 12008b36 f i XSObjectFactory.obj
 0001:00007b36       ?removeLastElement@?$BaseRefVectorOf@VDatatypeValidator@xercesc_3_1@@@xercesc_3_1@@UAEXXZ 12008b36 f i XTemplateSerializer.obj
 0001:00007b36       ?removeLastElement@?$BaseRefVectorOf@VMatch@xercesc_3_1@@@xercesc_3_1@@UAEXXZ 12008b36 f i RegularExpression.obj
 0001:00007b36       ?removeLastElement@?$BaseRefVectorOf@VXSAttributeUse@xercesc_3_1@@@xercesc_3_1@@UAEXXZ 12008b36 f i XSObjectFactory.obj
 0001:00007b36       ?removeLastElement@?$BaseRefVectorOf@VXMLEntityDecl@xercesc_3_1@@@xercesc_3_1@@UAEXXZ 12008b36 f i ReaderMgr.obj
 0001:00007b36       ?removeLastElement@?$BaseRefVectorOf@VXercesStep@xercesc_3_1@@@xercesc_3_1@@UAEXXZ 12008b36 f i XTemplateSerializer.obj
 0001:00007b36       ?removeLastElement@?$BaseRefVectorOf@VIdentityConstraint@xercesc_3_1@@@xercesc_3_1@@UAEXXZ 12008b36 f i XMLElementDecl.obj
 0001:00007b36       ?removeLastElement@?$BaseRefVectorOf@VToken@xercesc_3_1@@@xercesc_3_1@@UAEXXZ 12008b36 f i TokenFactory.obj
 0001:00007b36       ?removeLastElement@?$BaseRefVectorOf@VDOMImplementation@xercesc_3_1@@@xercesc_3_1@@UAEXXZ 12008b36 f i DOMImplementationListImpl.obj
 0001:00007b36       ?removeLastElement@?$BaseRefVectorOf@VSchemaElementDecl@xercesc_3_1@@@xercesc_3_1@@UAEXXZ 12008b36 f i XMLElementDecl.obj
 0001:00007b36       ?removeLastElement@?$BaseRefVectorOf@VDOMRangeImpl@xercesc_3_1@@@xercesc_3_1@@UAEXXZ 12008b36 f i DOMDocumentImpl.obj
 0001:00007b36       ?removeLastElement@?$BaseRefVectorOf@VENameMap@xercesc_3_1@@@xercesc_3_1@@UAEXXZ 12008b36 f i TransService.obj
 0001:00007b36       ?removeLastElement@?$BaseRefVectorOf@VXMLNumber@xercesc_3_1@@@xercesc_3_1@@UAEXXZ 12008b36 f i XTemplateSerializer.obj
 0001:00007b36       ?removeLastElement@?$BaseRefVectorOf@VXSAnnotation@xercesc_3_1@@@xercesc_3_1@@UAEXXZ 12008b36 f i XSComplexTypeDefinition.obj
 0001:00007b36       ?removeLastElement@?$BaseRefVectorOf@VXSMultiValueFacet@xercesc_3_1@@@xercesc_3_1@@UAEXXZ 12008b36 f i XSObjectFactory.obj
 0001:00007b36       ?removeLastElement@?$BaseRefVectorOf@VIC_Field@xercesc_3_1@@@xercesc_3_1@@UAEXXZ 12008b36 f i XMLElementDecl.obj
 0001:00007b36       ?removeLastElement@?$BaseRefVectorOf@VXPathMatcher@xercesc_3_1@@@xercesc_3_1@@UAEXXZ 12008b36 f i XPathMatcherStack.obj
 0001:00007b36       ?removeLastElement@?$BaseRefVectorOf@VKVStringPair@xercesc_3_1@@@xercesc_3_1@@UAEXXZ 12008b36 f i IGXMLScanner.obj
 0001:00007b36       ?removeLastElement@?$BaseRefVectorOf@VXMLElementDecl@xercesc_3_1@@@xercesc_3_1@@UAEXXZ 12008b36 f i WFXMLScanner.obj
 0001:00007b36       ?removeLastElement@?$BaseRefVectorOf@VXSIDCDefinition@xercesc_3_1@@@xercesc_3_1@@UAEXXZ 12008b36 f i XSObjectFactory.obj
 0001:00007b36       ?removeLastElement@?$BaseRefVectorOf@VDOMNodeIteratorImpl@xercesc_3_1@@@xercesc_3_1@@UAEXXZ 12008b36 f i DOMDocumentImpl.obj
 0001:00007b5a       ?cleanup@?$BaseRefVectorOf@VDOMDocumentImpl@xercesc_3_1@@@xercesc_3_1@@UAEXXZ 12008b5a f i AbstractDOMParser.obj
 0001:00007b5a       ?cleanup@?$BaseRefVectorOf@VXMLNumber@xercesc_3_1@@@xercesc_3_1@@UAEXXZ 12008b5a f i XTemplateSerializer.obj
 0001:00007b5a       ?cleanup@?$BaseRefVectorOf@VMatch@xercesc_3_1@@@xercesc_3_1@@UAEXXZ 12008b5a f i RegularExpression.obj
 0001:00007b5a       ?cleanup@?$BaseRefVectorOf@VDatatypeValidator@xercesc_3_1@@@xercesc_3_1@@UAEXXZ 12008b5a f i XTemplateSerializer.obj
 0001:00007b5a       ?cleanup@?$BaseRefVectorOf@VXPathMatcher@xercesc_3_1@@@xercesc_3_1@@UAEXXZ 12008b5a f i XPathMatcherStack.obj
 0001:00007b5a       ?cleanup@?$BaseRefVectorOf@VDOMImplementation@xercesc_3_1@@@xercesc_3_1@@UAEXXZ 12008b5a f i DOMImplementationListImpl.obj
 0001:00007b5a       ?cleanup@?$BaseRefVectorOf@VXSAttributeUse@xercesc_3_1@@@xercesc_3_1@@UAEXXZ 12008b5a f i XSObjectFactory.obj
 0001:00007b5a       ?cleanup@?$BaseRefVectorOf@VXSSimpleTypeDefinition@xercesc_3_1@@@xercesc_3_1@@UAEXXZ 12008b5a f i XSObjectFactory.obj
 0001:00007b5a       ?cleanup@?$BaseRefVectorOf@VXercesStep@xercesc_3_1@@@xercesc_3_1@@UAEXXZ 12008b5a f i XTemplateSerializer.obj
 0001:00007b5a       ?cleanup@?$BaseRefVectorOf@VContentSpecNode@xercesc_3_1@@@xercesc_3_1@@UAEXXZ 12008b5a f i XTemplateSerializer.obj
 0001:00007b5a       ?cleanup@?$BaseRefVectorOf@VToken@xercesc_3_1@@@xercesc_3_1@@UAEXXZ 12008b5a f i TokenFactory.obj
 0001:00007b5a       ?cleanup@?$BaseRefVectorOf@VXSAnnotation@xercesc_3_1@@@xercesc_3_1@@UAEXXZ 12008b5a f i XSComplexTypeDefinition.obj
 0001:00007b5a       ?cleanup@?$BaseRefVectorOf@VDOMRangeImpl@xercesc_3_1@@@xercesc_3_1@@UAEXXZ 12008b5a f i DOMDocumentImpl.obj
 0001:00007b5a       ?cleanup@?$BaseRefVectorOf@VSchemaElementDecl@xercesc_3_1@@@xercesc_3_1@@UAEXXZ 12008b5a f i XMLElementDecl.obj
 0001:00007b5a       ?cleanup@?$BaseRefVectorOf@VXMLEntityDecl@xercesc_3_1@@@xercesc_3_1@@UAEXXZ 12008b5a f i ReaderMgr.obj
 0001:00007b5a       ?cleanup@?$BaseRefVectorOf@VIC_Field@xercesc_3_1@@@xercesc_3_1@@UAEXXZ 12008b5a f i XMLElementDecl.obj
 0001:00007b5a       ?cleanup@?$BaseRefVectorOf@VDOMNode@xercesc_3_1@@@xercesc_3_1@@UAEXXZ 12008b5a f i DOMDocumentImpl.obj
 0001:00007b5a       ?cleanup@?$BaseRefVectorOf@VENameMap@xercesc_3_1@@@xercesc_3_1@@UAEXXZ 12008b5a f i TransService.obj
 0001:00007b5a       ?cleanup@?$BaseRefVectorOf@VDOMNodeIteratorImpl@xercesc_3_1@@@xercesc_3_1@@UAEXXZ 12008b5a f i DOMDocumentImpl.obj
 0001:00007b5a       ?cleanup@?$BaseRefVectorOf@VXSIDCDefinition@xercesc_3_1@@@xercesc_3_1@@UAEXXZ 12008b5a f i XSObjectFactory.obj
 0001:00007b5a       ?cleanup@?$BaseRefVectorOf@VXSParticle@xercesc_3_1@@@xercesc_3_1@@UAEXXZ 12008b5a f i XSObjectFactory.obj
 0001:00007b5a       ?cleanup@?$BaseRefVectorOf@VXSMultiValueFacet@xercesc_3_1@@@xercesc_3_1@@UAEXXZ 12008b5a f i XSObjectFactory.obj
 0001:00007b5a       ?cleanup@?$BaseRefVectorOf@VXSObject@xercesc_3_1@@@xercesc_3_1@@UAEXXZ 12008b5a f i XSModel.obj
 0001:00007b5a       ?cleanup@?$BaseRefVectorOf@VXercesLocationPath@xercesc_3_1@@@xercesc_3_1@@UAEXXZ 12008b5a f i XTemplateSerializer.obj
 0001:00007b5a       ?cleanup@?$BaseRefVectorOf@VDOMImplementationSource@xercesc_3_1@@@xercesc_3_1@@UAEXXZ 12008b5a f i DOMImplementationRegistry.obj
 0001:00007b5a       ?cleanup@?$BaseRefVectorOf@VIdentityConstraint@xercesc_3_1@@@xercesc_3_1@@UAEXXZ 12008b5a f i XMLElementDecl.obj
 0001:00007b5a       ?cleanup@?$BaseRefVectorOf@VXMLElementDecl@xercesc_3_1@@@xercesc_3_1@@UAEXXZ 12008b5a f i WFXMLScanner.obj
 0001:00007b5a       ?cleanup@?$BaseRefVectorOf@VSchemaAttDef@xercesc_3_1@@@xercesc_3_1@@UAEXXZ 12008b5a f i XMLGrammarPoolImpl.obj
 0001:00007b5a       ?cleanup@?$BaseRefVectorOf@VOp@xercesc_3_1@@@xercesc_3_1@@UAEXXZ 12008b5a f i Op.obj
 0001:00007b5a       ?cleanup@?$BaseRefVectorOf@VXSFacet@xercesc_3_1@@@xercesc_3_1@@UAEXXZ 12008b5a f i XSObjectFactory.obj
 0001:00007b5a       ?cleanup@?$BaseRefVectorOf@VKVStringPair@xercesc_3_1@@@xercesc_3_1@@UAEXXZ 12008b5a f i IGXMLScanner.obj
 0001:00007b8f       ??0?$RefVectorOf@VENameMap@xercesc_3_1@@@xercesc_3_1@@QAE@K_NQAVMemoryManager@1@@Z 12008b8f f i TransService.obj
 0001:00007bdb       ?reset@?$ArrayJanitor@_W@xercesc_3_1@@QAEXPA_WQAVMemoryManager@2@@Z 12008bdb f i TransService.obj
 0001:00007bdb       ?reset@?$ArrayJanitor@E@xercesc_3_1@@QAEXPAEQAVMemoryManager@2@@Z 12008bdb f i TransService.obj
 0001:00007c0d       ?makeNew@?$ENameMapFor@VXMLChTranscoder@xercesc_3_1@@@xercesc_3_1@@UBEPAVXMLTranscoder@2@KQAVMemoryManager@2@@Z 12008c0d f i TransService.obj
 0001:00007c4b       ?makeNew@?$ENameMapFor@VXMLASCIITranscoder@xercesc_3_1@@@xercesc_3_1@@UBEPAVXMLTranscoder@2@KQAVMemoryManager@2@@Z 12008c4b f i TransService.obj
 0001:00007c89       ?makeNew@?$ENameMapFor@VXMLUTF8Transcoder@xercesc_3_1@@@xercesc_3_1@@UBEPAVXMLTranscoder@2@KQAVMemoryManager@2@@Z 12008c89 f i TransService.obj
 0001:00007cc7       ?makeNew@?$ENameMapFor@VXML88591Transcoder@xercesc_3_1@@@xercesc_3_1@@UBEPAVXMLTranscoder@2@KQAVMemoryManager@2@@Z 12008cc7 f i TransService.obj
 0001:00007d05       ??0?$EEndianNameMapFor@VXMLUTF16Transcoder@xercesc_3_1@@@xercesc_3_1@@QAE@QB_W_N@Z 12008d05 f i TransService.obj
 0001:00007d26       ?makeNew@?$EEndianNameMapFor@VXMLUTF16Transcoder@xercesc_3_1@@@xercesc_3_1@@UBEPAVXMLTranscoder@2@KQAVMemoryManager@2@@Z 12008d26 f i TransService.obj
 0001:00007d69       ??0?$EEndianNameMapFor@VXMLUCS4Transcoder@xercesc_3_1@@@xercesc_3_1@@QAE@QB_W_N@Z 12008d69 f i TransService.obj
 0001:00007d8a       ?makeNew@?$EEndianNameMapFor@VXMLUCS4Transcoder@xercesc_3_1@@@xercesc_3_1@@UBEPAVXMLTranscoder@2@KQAVMemoryManager@2@@Z 12008d8a f i TransService.obj
 0001:00007dcd       ?makeNew@?$ENameMapFor@VXMLEBCDICTranscoder@xercesc_3_1@@@xercesc_3_1@@UBEPAVXMLTranscoder@2@KQAVMemoryManager@2@@Z 12008dcd f i TransService.obj
 0001:00007e0b       ?makeNew@?$ENameMapFor@VXMLIBM1047Transcoder@xercesc_3_1@@@xercesc_3_1@@UBEPAVXMLTranscoder@2@KQAVMemoryManager@2@@Z 12008e0b f i TransService.obj
 0001:00007e49       ?makeNew@?$ENameMapFor@VXMLIBM1140Transcoder@xercesc_3_1@@@xercesc_3_1@@UBEPAVXMLTranscoder@2@KQAVMemoryManager@2@@Z 12008e49 f i TransService.obj
 0001:00007e87       ?makeNew@?$ENameMapFor@VXMLWin1252Transcoder@xercesc_3_1@@@xercesc_3_1@@UBEPAVXMLTranscoder@2@KQAVMemoryManager@2@@Z 12008e87 f i TransService.obj
 0001:00007ec5       ??1?$Janitor@VDTDElementDecl@xercesc_3_1@@@xercesc_3_1@@QAE@XZ 12008ec5 f i DGXMLScanner.obj
 0001:00007ec5       ??1?$Janitor@VXMLSchemaDescription@xercesc_3_1@@@xercesc_3_1@@QAE@XZ 12008ec5 f i TraverseSchema.obj
 0001:00007ec5       ??1?$Janitor@VXMLFormatTarget@xercesc_3_1@@@xercesc_3_1@@QAE@XZ 12008ec5 f i DOMLSSerializerImpl.obj
 0001:00007ec5       ??1?$Janitor@VMemBufInputSource@xercesc_3_1@@@xercesc_3_1@@QAE@XZ 12008ec5 f i TraverseSchema.obj
 0001:00007ec5       ??1?$Janitor@VXSAXMLScanner@xercesc_3_1@@@xercesc_3_1@@QAE@XZ 12008ec5 f i TraverseSchema.obj
 0001:00007ec5       ??1?$Janitor@V?$BaseRefVectorOf@_W@xercesc_3_1@@@xercesc_3_1@@QAE@XZ 12008ec5 f i SGXMLScanner.obj
 0001:00007ec5       ??1?$Janitor@VIC_Key@xercesc_3_1@@@xercesc_3_1@@QAE@XZ 12008ec5 f i TraverseSchema.obj
 0001:00007ec5       ??1?$Janitor@VXMLDateTime@xercesc_3_1@@@xercesc_3_1@@QAE@XZ 12008ec5 f i DateDatatypeValidator.obj
 0001:00007ec5       ??1?$Janitor@VXercesGroupInfo@xercesc_3_1@@@xercesc_3_1@@QAE@XZ 12008ec5 f i TraverseSchema.obj
 0001:00007ec5       ??1?$Janitor@VBinInputStream@xercesc_3_1@@@xercesc_3_1@@QAE@XZ 12008ec5 f i ReaderMgr.obj
 0001:00007ec5       ??1?$Janitor@VXercesAttGroupInfo@xercesc_3_1@@@xercesc_3_1@@QAE@XZ 12008ec5 f i TraverseSchema.obj
 0001:00007ec5       ??1?$Janitor@VXMLGrammarDescription@xercesc_3_1@@@xercesc_3_1@@QAE@XZ 12008ec5 f i GrammarResolver.obj
 0001:00007ec5       ??1?$Janitor@V?$RefVectorOf@VMatch@xercesc_3_1@@@xercesc_3_1@@@xercesc_3_1@@QAE@XZ 12008ec5 f i RegularExpression.obj
 0001:00007ec5       ??1?$Janitor@VSchemaAttDef@xercesc_3_1@@@xercesc_3_1@@QAE@XZ 12008ec5 f i TraverseSchema.obj
 0001:00007ec5       ??1?$Janitor@VIC_Unique@xercesc_3_1@@@xercesc_3_1@@QAE@XZ 12008ec5 f i TraverseSchema.obj
 0001:00007ec5       ??1?$Janitor@V?$RefVectorOf@VDatatypeValidator@xercesc_3_1@@@xercesc_3_1@@@xercesc_3_1@@QAE@XZ 12008ec5 f i TraverseSchema.obj
 0001:00007ec5       ??1?$Janitor@VIC_KeyRef@xercesc_3_1@@@xercesc_3_1@@QAE@XZ 12008ec5 f i TraverseSchema.obj
 0001:00007ec5       ??1?$Janitor@V?$RefArrayVectorOf@_W@xercesc_3_1@@@xercesc_3_1@@QAE@XZ 12008ec5 f i DatatypeValidatorFactory.obj
 0001:00007ec5       ??1TokenFactory@xercesc_3_1@@QAE@XZ 12008ec5 f i TokenFactory.obj
 0001:00007ec5       ??1?$Janitor@VSchemaElementDecl@xercesc_3_1@@@xercesc_3_1@@QAE@XZ 12008ec5 f i TraverseSchema.obj
 0001:00007ec5       ??1OpFactory@xercesc_3_1@@QAE@XZ 12008ec5 f i OpFactory.obj
 0001:00007ec5       ??1?$Janitor@V?$RefVectorOf@VXercesStep@xercesc_3_1@@@xercesc_3_1@@@xercesc_3_1@@QAE@XZ 12008ec5 f i XercesXPath.obj
 0001:00007ec5       ??1?$Janitor@VRegxParser@xercesc_3_1@@@xercesc_3_1@@QAE@XZ 12008ec5 f i RegularExpression.obj
 0001:00007ec5       ??1?$Janitor@VDTDEntityDecl@xercesc_3_1@@@xercesc_3_1@@QAE@XZ 12008ec5 f i DGXMLScanner.obj
 0001:00007ec5       ??1?$Janitor@VXMLTranscoder@xercesc_3_1@@@xercesc_3_1@@QAE@XZ 12008ec5 f i TransService.obj
 0001:00007ed9       ??_E?$BaseRefVectorOf@VENameMap@xercesc_3_1@@@xercesc_3_1@@UAEPAXI@Z 12008ed9 f i * CIL library *:* CIL module *
 0001:00007ed9       ??_G?$BaseRefVectorOf@VENameMap@xercesc_3_1@@@xercesc_3_1@@UAEPAXI@Z 12008ed9 f i TransService.obj
 0001:00007ef9       ??_E?$RefVectorOf@VENameMap@xercesc_3_1@@@xercesc_3_1@@UAEPAXI@Z 12008ef9 f i * CIL library *:* CIL module *
 0001:00007ef9       ??_G?$RefVectorOf@VENameMap@xercesc_3_1@@@xercesc_3_1@@UAEPAXI@Z 12008ef9 f i TransService.obj
 0001:00007f62       ??_G?$ENameMapFor@VXMLChTranscoder@xercesc_3_1@@@xercesc_3_1@@UAEPAXI@Z 12008f62 f i TransService.obj
 0001:00007f62       ??_E?$ENameMapFor@VXMLChTranscoder@xercesc_3_1@@@xercesc_3_1@@UAEPAXI@Z 12008f62 f i * CIL library *:* CIL module *
 0001:00007f87       ??_E?$ENameMapFor@VXMLASCIITranscoder@xercesc_3_1@@@xercesc_3_1@@UAEPAXI@Z 12008f87 f i * CIL library *:* CIL module *
 0001:00007f87       ??_G?$ENameMapFor@VXMLASCIITranscoder@xercesc_3_1@@@xercesc_3_1@@UAEPAXI@Z 12008f87 f i TransService.obj
 0001:00007fac       ??_E?$ENameMapFor@VXMLUTF8Transcoder@xercesc_3_1@@@xercesc_3_1@@UAEPAXI@Z 12008fac f i * CIL library *:* CIL module *
 0001:00007fac       ??_G?$ENameMapFor@VXMLUTF8Transcoder@xercesc_3_1@@@xercesc_3_1@@UAEPAXI@Z 12008fac f i TransService.obj
 0001:00007fd1       ??_E?$ENameMapFor@VXML88591Transcoder@xercesc_3_1@@@xercesc_3_1@@UAEPAXI@Z 12008fd1 f i * CIL library *:* CIL module *
 0001:00007fd1       ??_G?$ENameMapFor@VXML88591Transcoder@xercesc_3_1@@@xercesc_3_1@@UAEPAXI@Z 12008fd1 f i TransService.obj
 0001:00007ff6       ??_E?$EEndianNameMapFor@VXMLUTF16Transcoder@xercesc_3_1@@@xercesc_3_1@@UAEPAXI@Z 12008ff6 f i * CIL library *:* CIL module *
 0001:00007ff6       ??_G?$EEndianNameMapFor@VXMLUTF16Transcoder@xercesc_3_1@@@xercesc_3_1@@UAEPAXI@Z 12008ff6 f i TransService.obj
 0001:0000801b       ??_E?$EEndianNameMapFor@VXMLUCS4Transcoder@xercesc_3_1@@@xercesc_3_1@@UAEPAXI@Z 1200901b f i * CIL library *:* CIL module *
 0001:0000801b       ??_G?$EEndianNameMapFor@VXMLUCS4Transcoder@xercesc_3_1@@@xercesc_3_1@@UAEPAXI@Z 1200901b f i TransService.obj
 0001:00008040       ??_G?$ENameMapFor@VXMLEBCDICTranscoder@xercesc_3_1@@@xercesc_3_1@@UAEPAXI@Z 12009040 f i TransService.obj
 0001:00008040       ??_E?$ENameMapFor@VXMLEBCDICTranscoder@xercesc_3_1@@@xercesc_3_1@@UAEPAXI@Z 12009040 f i * CIL library *:* CIL module *
 0001:00008065       ??_G?$ENameMapFor@VXMLIBM1047Transcoder@xercesc_3_1@@@xercesc_3_1@@UAEPAXI@Z 12009065 f i TransService.obj
 0001:00008065       ??_E?$ENameMapFor@VXMLIBM1047Transcoder@xercesc_3_1@@@xercesc_3_1@@UAEPAXI@Z 12009065 f i * CIL library *:* CIL module *
 0001:0000808a       ??_G?$ENameMapFor@VXMLIBM1140Transcoder@xercesc_3_1@@@xercesc_3_1@@UAEPAXI@Z 1200908a f i TransService.obj
 0001:0000808a       ??_E?$ENameMapFor@VXMLIBM1140Transcoder@xercesc_3_1@@@xercesc_3_1@@UAEPAXI@Z 1200908a f i * CIL library *:* CIL module *
 0001:000080af       ??_G?$ENameMapFor@VXMLWin1252Transcoder@xercesc_3_1@@@xercesc_3_1@@UAEPAXI@Z 120090af f i TransService.obj
 0001:000080af       ??_E?$ENameMapFor@VXMLWin1252Transcoder@xercesc_3_1@@@xercesc_3_1@@UAEPAXI@Z 120090af f i * CIL library *:* CIL module *
 0001:000080d4       ??2XMemory@xercesc_3_1@@SAPAXI@Z 120090d4 f   XMemory.obj
 0001:000080f6       ??2XMemory@xercesc_3_1@@SAPAXIPBDH@Z 120090f6 f   XMemory.obj
 0001:00008104       ??3XMemory@xercesc_3_1@@SAXPAXPBDH@Z 12009104 f   XMemory.obj
 0001:00008112       ??2XMemory@xercesc_3_1@@SAPAXIPAVMemoryManager@1@@Z 12009112 f   XMemory.obj
 0001:0000812f       ??2XMemory@xercesc_3_1@@SAPAXIPAX@Z 1200912f f   XMemory.obj
 0001:00008137       ??3XMemory@xercesc_3_1@@SAXPAXPAVMemoryManager@1@@Z 12009137 f   XMemory.obj
 0001:00008137       ??3XMemory@xercesc_3_1@@SAXPAX@Z 12009137 f   XMemory.obj
 0001:0000814e       ??_EXMLIBM1047Transcoder@xercesc_3_1@@UAEPAXI@Z 1200914e f i XMLIBM1047Transcoder.obj
 0001:0000814e       ??_EXMLWin1252Transcoder@xercesc_3_1@@UAEPAXI@Z 1200914e f i XMLWin1252Transcoder.obj
 0001:0000814e       ??_EXMLIBM1140Transcoder@xercesc_3_1@@UAEPAXI@Z 1200914e f i XMLIBM1140Transcoder.obj
 0001:0000814e       ??_EXML256TableTranscoder@xercesc_3_1@@UAEPAXI@Z 1200914e f i XML256TableTranscoder.obj
 0001:0000814e       ??_EXMLEBCDICTranscoder@xercesc_3_1@@UAEPAXI@Z 1200914e f i XMLEBCDICTranscoder.obj
 0001:0000819f       ??1XMLIBM1047Transcoder@xercesc_3_1@@UAE@XZ 1200919f f   XMLIBM1047Transcoder.obj
 0001:0000819f       ??1XMLIBM1140Transcoder@xercesc_3_1@@UAE@XZ 1200919f f   XMLIBM1140Transcoder.obj
 0001:0000819f       ??1XMLEBCDICTranscoder@xercesc_3_1@@UAE@XZ 1200919f f   XMLEBCDICTranscoder.obj
 0001:0000819f       ??1XMLWin1252Transcoder@xercesc_3_1@@UAE@XZ 1200919f f   XMLWin1252Transcoder.obj
 0001:0000819f       ??1XML256TableTranscoder@xercesc_3_1@@UAE@XZ 1200919f f   XML256TableTranscoder.obj
 0001:000081aa       ?transcodeFrom@XML256TableTranscoder@xercesc_3_1@@UAEKQBEKQA_WKAAKQAE@Z 120091aa f   XML256TableTranscoder.obj
 0001:0000820e       ?transcodeTo@XML256TableTranscoder@xercesc_3_1@@UAEKQB_WKQAEKAAKW4UnRepOpts@XMLTranscoder@2@@Z 1200920e f   XML256TableTranscoder.obj
 0001:0000832b       ?canTranscodeTo@XML256TableTranscoder@xercesc_3_1@@UAE_NI@Z 1200932b f   XML256TableTranscoder.obj
 0001:00008343       ??0XML256TableTranscoder@xercesc_3_1@@IAE@QB_WK0QBUTransRec@XMLTransService@1@KQAVMemoryManager@1@@Z 12009343 f   XML256TableTranscoder.obj
 0001:00008376       ?xlatOneTo@XML256TableTranscoder@xercesc_3_1@@IBEE_W@Z 12009376 f   XML256TableTranscoder.obj
 0001:000083c4       ??_EXML88591Transcoder@xercesc_3_1@@UAEPAXI@Z 120093c4 f i XML88591Transcoder.obj
 0001:00008415       ??0XML88591Transcoder@xercesc_3_1@@QAE@QB_WKQAVMemoryManager@1@@Z 12009415 f   XML88591Transcoder.obj
 0001:00008436       ??1XML88591Transcoder@xercesc_3_1@@UAE@XZ 12009436 f   XML88591Transcoder.obj
 0001:00008441       ?transcodeFrom@XML88591Transcoder@xercesc_3_1@@UAEKQBEKQA_WKAAKQAE@Z 12009441 f   XML88591Transcoder.obj
 0001:00008499       ?transcodeTo@XML88591Transcoder@xercesc_3_1@@UAEKQB_WKQAEKAAKW4UnRepOpts@XMLTranscoder@2@@Z 12009499 f   XML88591Transcoder.obj
 0001:0000859a       ?canTranscodeTo@XML88591Transcoder@xercesc_3_1@@UAE_NI@Z 1200959a f   XML88591Transcoder.obj
 0001:000085ac       ??_FXMLAbstractDoubleFloat@xercesc_3_1@@QAEXXZ 120095ac f i XMLAbstractDoubleFloat.obj
 0001:000085b8       ??_EXMLAbstractDoubleFloat@xercesc_3_1@@UAEPAXI@Z 120095b8 f i XMLAbstractDoubleFloat.obj
 0001:00008603       ?isSpecialValue@XMLAbstractDoubleFloat@xercesc_3_1@@ABE_NXZ 12009603 f i XMLAbstractDoubleFloat.obj
 0001:0000860d       ?isDataConverted@XMLAbstractDoubleFloat@xercesc_3_1@@QBE_NXZ 1200960d f i XMLAbstractDoubleFloat.obj
 0001:0000860d       ?getExpandEntityReferences@DOMNodeIteratorImpl@xercesc_3_1@@UAE_NXZ 1200960d f i DOMNodeIteratorImpl.obj
 0001:0000860d       ?getRequired@XSAttributeUse@xercesc_3_1@@QBE_NXZ 1200960d f i XSAttributeGroupDefinition.obj
 0001:0000860d       ?getCreateEntityReferenceNodes@AbstractDOMParser@xercesc_3_1@@QBE_NXZ 1200960d f i XSAnnotation.obj
 0001:0000860d       ?getIssueFatalErrorIfNotFound@InputSource@xercesc_3_1@@UBE_NXZ 1200960d f i LocalFileInputSource.obj
 0001:0000860d       ?isExternal@XMLElementDecl@xercesc_3_1@@QBE_NXZ 1200960d f i XMLDTDDescription.obj
 0001:0000860d       ?getExpandEntityReferences@DOMTreeWalkerImpl@xercesc_3_1@@UAE_NXZ 1200960d f i DOMTreeWalkerImpl.obj
 0001:00008611       ?isDataOverflowed@XMLAbstractDoubleFloat@xercesc_3_1@@QBE_NXZ 12009611 f i XMLAbstractDoubleFloat.obj
 0001:00008611       ?getIncludeIgnorableWhitespace@AbstractDOMParser@xercesc_3_1@@QBE_NXZ 12009611 f i XSAnnotation.obj
 0001:00008611       ?isValidatorFromUser@XMLScanner@xercesc_3_1@@QAE_NXZ 12009611 f i XMLValidator.obj
 0001:00008615       ?getValue@XMLAbstractDoubleFloat@xercesc_3_1@@QBENXZ 12009615 f i XMLAbstractDoubleFloat.obj
 0001:00008619       ??_FXMLBigDecimal@xercesc_3_1@@QAEXXZ 12009619 f i XMLAbstractDoubleFloat.obj
 0001:00008625       ??0NumberFormatException@xercesc_3_1@@QAE@QBD_KW4Codes@XMLExcepts@1@PAVMemoryManager@1@@Z 12009625 f i XMLAbstractDoubleFloat.obj
 0001:00008665       ??0NumberFormatException@xercesc_3_1@@QAE@ABV01@@Z 12009665 f i XMLAbstractDoubleFloat.obj
 0001:00008680       ??0NumberFormatException@xercesc_3_1@@QAE@QBD_KW4Codes@XMLExcepts@1@QB_W333PAVMemoryManager@1@@Z 12009680 f i XMLAbstractDoubleFloat.obj
 0001:000086cc       ??0NumberFormatException@xercesc_3_1@@QAE@QBD_KW4Codes@XMLExcepts@1@0000PAVMemoryManager@1@@Z 120096cc f i XMLAbstractDoubleFloat.obj
 0001:00008718       ??1NumberFormatException@xercesc_3_1@@UAE@XZ 12009718 f i XMLAbstractDoubleFloat.obj
 0001:00008723       ?duplicate@NumberFormatException@xercesc_3_1@@UBEPAVXMLException@2@XZ 12009723 f i XMLAbstractDoubleFloat.obj
 0001:00008767       ?getType@NumberFormatException@xercesc_3_1@@UBEPB_WXZ 12009767 f i XMLAbstractDoubleFloat.obj
 0001:0000876d       ??_ENumberFormatException@xercesc_3_1@@UAEPAXI@Z 1200976d f i XMLAbstractDoubleFloat.obj
 0001:000087be       ??0XMLAbstractDoubleFloat@xercesc_3_1@@IAE@QAVMemoryManager@1@@Z 120097be f   XMLAbstractDoubleFloat.obj
 0001:000087f1       ??1XMLAbstractDoubleFloat@xercesc_3_1@@UAE@XZ 120097f1 f   XMLAbstractDoubleFloat.obj
 0001:0000882e       ?init@XMLAbstractDoubleFloat@xercesc_3_1@@IAEXQB_W@Z 1200982e f   XMLAbstractDoubleFloat.obj
 0001:00008abb       ?getFormattedString@XMLAbstractDoubleFloat@xercesc_3_1@@UBEPB_WXZ 12009abb f   XMLAbstractDoubleFloat.obj
 0001:00008ad9       ?formatString@XMLAbstractDoubleFloat@xercesc_3_1@@AAEXXZ 12009ad9 f   XMLAbstractDoubleFloat.obj
 0001:00008b83       ?compareValues@XMLAbstractDoubleFloat@xercesc_3_1@@KAHQBV12@0QAVMemoryManager@2@@Z 12009b83 f   XMLAbstractDoubleFloat.obj
 0001:00008c12       ?compareSpecial@XMLAbstractDoubleFloat@xercesc_3_1@@CAHQBV12@QAVMemoryManager@2@@Z 12009c12 f   XMLAbstractDoubleFloat.obj
 0001:00008cfc       ?normalizeZero@XMLAbstractDoubleFloat@xercesc_3_1@@AAEXQA_W@Z 12009cfc f   XMLAbstractDoubleFloat.obj
 0001:00008e93       ?normalizeDecimalPoint@XMLAbstractDoubleFloat@xercesc_3_1@@SAXQAD@Z 12009e93 f   XMLAbstractDoubleFloat.obj
 0001:00008ebc       ?convert@XMLAbstractDoubleFloat@xercesc_3_1@@IAEXQAD@Z 12009ebc f   XMLAbstractDoubleFloat.obj
 0001:00008f79       ?getCanonicalRepresentation@XMLAbstractDoubleFloat@xercesc_3_1@@SAPA_WQB_WQAVMemoryManager@2@@Z 12009f79 f   XMLAbstractDoubleFloat.obj
 0001:00009219       ?getProtoType@XMLAbstractDoubleFloat@xercesc_3_1@@UBEPAVXProtoType@2@XZ 1200a219 f   XMLAbstractDoubleFloat.obj
 0001:0000921f       ?serialize@XMLAbstractDoubleFloat@xercesc_3_1@@UAEXAAVXSerializeEngine@2@@Z 1200a21f f   XMLAbstractDoubleFloat.obj
 0001:000092e9       ??_EXMLASCIITranscoder@xercesc_3_1@@UAEPAXI@Z 1200a2e9 f i XMLASCIITranscoder.obj
 0001:0000933a       ??0XMLASCIITranscoder@xercesc_3_1@@QAE@QB_WKQAVMemoryManager@1@@Z 1200a33a f   XMLASCIITranscoder.obj
 0001:0000935b       ??1XMLASCIITranscoder@xercesc_3_1@@UAE@XZ 1200a35b f   XMLASCIITranscoder.obj
 0001:00009366       ?transcodeFrom@XMLASCIITranscoder@xercesc_3_1@@UAEKQBEKQA_WKAAKQAE@Z 1200a366 f   XMLASCIITranscoder.obj
 0001:00009478       ?transcodeTo@XMLASCIITranscoder@xercesc_3_1@@UAEKQB_WKQAEKAAKW4UnRepOpts@XMLTranscoder@2@@Z 1200a478 f   XMLASCIITranscoder.obj
 0001:0000957e       ?canTranscodeTo@XMLASCIITranscoder@xercesc_3_1@@UAE_NI@Z 1200a57e f   XMLASCIITranscoder.obj
 0001:00009590       ??_EXMLBigDecimal@xercesc_3_1@@UAEPAXI@Z 1200a590 f i XMLBigDecimal.obj
 0001:000095db       ?getTotalDigit@XMLBigInteger@xercesc_3_1@@QBEIXZ 1200a5db f i XMLBigDecimal.obj
 0001:000095eb       ??8XMLBigInteger@xercesc_3_1@@QBE_NABV01@@Z 1200a5eb f i XMLBigDecimal.obj
 0001:00009607       ?setSign@XMLBigInteger@xercesc_3_1@@AAEXH@Z 1200a607 f i XMLBigDecimal.obj
 0001:00009607       ?setEscapeFlags@XMLFormatter@xercesc_3_1@@QAEXW4EscapeFlags@12@@Z 1200a607 f i LocalFileFormatTarget.obj
 0001:00009607       ?setValueStoreCache@FieldActivator@xercesc_3_1@@QAEXQAVValueStoreCache@2@@Z 1200a607 f i FieldActivator.obj
 0001:00009607       ?setCategoryId@RangeTokenElemMap@xercesc_3_1@@QAEXI@Z 1200a607 f i ASCIIRangeFactory.obj
 0001:00009613       ??0XMLBigDecimal@xercesc_3_1@@QAE@QB_WQAVMemoryManager@1@@Z 1200a613 f   XMLBigDecimal.obj
 0001:00009703       ??1XMLBigDecimal@xercesc_3_1@@UAE@XZ 1200a703 f   XMLBigDecimal.obj
 0001:0000972f       ?cleanUp@XMLBigDecimal@xercesc_3_1@@AAEXXZ 1200a72f f   XMLBigDecimal.obj
 0001:00009740       ?setDecimalValue@XMLBigDecimal@xercesc_3_1@@QAEXQB_W@Z 1200a740 f   XMLBigDecimal.obj
 0001:000097c7       ?getCanonicalRepresentation@XMLBigDecimal@xercesc_3_1@@SAPA_WQB_WQAVMemoryManager@2@@Z 1200a7c7 f   XMLBigDecimal.obj
 0001:0000992a       ?parseDecimal@XMLBigDecimal@xercesc_3_1@@SAXQB_WQA_WAAH22QAVMemoryManager@2@@Z 1200a92a f   XMLBigDecimal.obj
 0001:00009b49       ?parseDecimal@XMLBigDecimal@xercesc_3_1@@SAXQB_WQAVMemoryManager@2@@Z 1200ab49 f   XMLBigDecimal.obj
 0001:00009cbd       ?compareValues@XMLBigDecimal@xercesc_3_1@@SAHQBV12@0QAVMemoryManager@2@@Z 1200acbd f   XMLBigDecimal.obj
 0001:00009d07       ?toCompare@XMLBigDecimal@xercesc_3_1@@QBEHABV12@@Z 1200ad07 f   XMLBigDecimal.obj
 0001:00009d74       ?createObject@XMLBigDecimal@xercesc_3_1@@SAPAVXSerializable@2@PAVMemoryManager@2@@Z 1200ad74 f   XMLBigDecimal.obj
 0001:00009d97       ?getProtoType@XMLBigDecimal@xercesc_3_1@@UBEPAVXProtoType@2@XZ 1200ad97 f   XMLBigDecimal.obj
 0001:00009d9d       ??0XMLBigDecimal@xercesc_3_1@@QAE@QAVMemoryManager@1@@Z 1200ad9d f   XMLBigDecimal.obj
 0001:00009dc6       ?serialize@XMLBigDecimal@xercesc_3_1@@UAEXAAVXSerializeEngine@2@@Z 1200adc6 f   XMLBigDecimal.obj
 0001:00009f6c       ?getCanonicalRepresentation@XMLBigInteger@xercesc_3_1@@SAPA_WQB_WQAVMemoryManager@2@_N@Z 1200af6c f   XMLBigInteger.obj
 0001:0000a031       ?parseBigInteger@XMLBigInteger@xercesc_3_1@@SAXQB_WQA_WAAHQAVMemoryManager@2@@Z 1200b031 f   XMLBigInteger.obj
 0001:0000a1bd       ??0XMLBigInteger@xercesc_3_1@@QAE@QB_WQAVMemoryManager@1@@Z 1200b1bd f   XMLBigInteger.obj
 0001:0000a2b0       ??1XMLBigInteger@xercesc_3_1@@QAE@XZ 1200b2b0 f   XMLBigInteger.obj
 0001:0000a2d1       ??0XMLBigInteger@xercesc_3_1@@QAE@ABV01@@Z 1200b2d1 f   XMLBigInteger.obj
 0001:0000a312       ?compareValues@XMLBigInteger@xercesc_3_1@@SAHQBV12@0QAVMemoryManager@2@@Z 1200b312 f   XMLBigInteger.obj
 0001:0000a3c0       ?compareValues@XMLBigInteger@xercesc_3_1@@SAHQB_WABH01QAVMemoryManager@2@@Z 1200b3c0 f   XMLBigInteger.obj
 0001:0000a46e       ?multiply@XMLBigInteger@xercesc_3_1@@QAEXI@Z 1200b46e f   XMLBigInteger.obj
 0001:0000a4f4       ?divide@XMLBigInteger@xercesc_3_1@@QAEXI@Z 1200b4f4 f   XMLBigInteger.obj
 0001:0000a549       ?intValue@XMLBigInteger@xercesc_3_1@@QBEHXZ 1200b549 f   XMLBigInteger.obj
 0001:0000a56d       ?isAllSpaces@XMLChar1_0@xercesc_3_1@@SA_NQB_WK@Z 1200b56d f   XMLChar.obj
 0001:0000a59b       ?containsWhiteSpace@XMLChar1_0@xercesc_3_1@@SA_NQB_WK@Z 1200b59b f   XMLChar.obj
 0001:0000a5c9       ?isValidNCName@XMLChar1_0@xercesc_3_1@@SA_NQB_WK@Z 1200b5c9 f   XMLChar.obj
 0001:0000a609       ?isValidNmtoken@XMLChar1_0@xercesc_3_1@@SA_NQB_WK@Z 1200b609 f   XMLChar.obj
 0001:0000a637       ?isValidName@XMLChar1_0@xercesc_3_1@@SA_NQB_WK@Z 1200b637 f   XMLChar.obj
 0001:0000a672       ?isValidName@XMLChar1_0@xercesc_3_1@@SA_NQB_W@Z 1200b672 f   XMLChar.obj
 0001:0000a6a4       ?isValidQName@XMLChar1_0@xercesc_3_1@@SA_NQB_WK@Z 1200b6a4 f   XMLChar.obj
 0001:0000a71a       ?isPublicIdChar@XMLChar1_0@xercesc_3_1@@SA_N_W0@Z 1200b71a f   XMLChar.obj
 0001:0000a71a       ?isPublicIdChar@XMLChar1_1@xercesc_3_1@@SA_N_W0@Z 1200b71a f   XMLChar.obj
 0001:0000a76e       ?enableNELWS@XMLChar1_0@xercesc_3_1@@SAXXZ 1200b76e f   XMLChar.obj
 0001:0000a78e       ?isAllSpaces@XMLChar1_1@xercesc_3_1@@SA_NQB_WK@Z 1200b78e f   XMLChar.obj
 0001:0000a7bc       ?containsWhiteSpace@XMLChar1_1@xercesc_3_1@@SA_NQB_WK@Z 1200b7bc f   XMLChar.obj
 0001:0000a7ea       ?isValidNCName@XMLChar1_1@xercesc_3_1@@SA_NQB_WK@Z 1200b7ea f   XMLChar.obj
 0001:0000a89e       ?isValidNmtoken@XMLChar1_1@xercesc_3_1@@SA_NQB_WK@Z 1200b89e f   XMLChar.obj
 0001:0000a912       ?isValidName@XMLChar1_1@xercesc_3_1@@SA_NQB_WK@Z 1200b912 f   XMLChar.obj
 0001:0000a9c5       ?isValidName@XMLChar1_1@xercesc_3_1@@SA_NQB_W@Z 1200b9c5 f   XMLChar.obj
 0001:0000aa70       ?isValidQName@XMLChar1_1@xercesc_3_1@@SA_NQB_WK@Z 1200ba70 f   XMLChar.obj
 0001:0000aac8       ??_EXMLChTranscoder@xercesc_3_1@@UAEPAXI@Z 1200bac8 f i XMLChTranscoder.obj
 0001:0000ab19       ??0XMLChTranscoder@xercesc_3_1@@QAE@QB_WKQAVMemoryManager@1@@Z 1200bb19 f   XMLChTranscoder.obj
 0001:0000ab3a       ??1XMLChTranscoder@xercesc_3_1@@UAE@XZ 1200bb3a f   XMLChTranscoder.obj
 0001:0000ab45       ?transcodeFrom@XMLChTranscoder@xercesc_3_1@@UAEKQBEKQA_WKAAKQAE@Z 1200bb45 f   XMLChTranscoder.obj
 0001:0000ab83       ?transcodeTo@XMLChTranscoder@xercesc_3_1@@UAEKQB_WKQAEKAAKW4UnRepOpts@XMLTranscoder@2@@Z 1200bb83 f   XMLChTranscoder.obj
 0001:0000abb5       ?isPrefixUnknown@ValidationContext@xercesc_3_1@@UAE_NPA_W@Z 1200bbb5 f   XMLAttr.obj
 0001:0000abb5       ?canTranscodeTo@XMLUCS4Transcoder@xercesc_3_1@@UAE_NI@Z 1200bbb5 f   XMLUCS4Transcoder.obj
 0001:0000abb5       ?canTranscodeTo@XMLChTranscoder@xercesc_3_1@@UAE_NI@Z 1200bbb5 f   XMLChTranscoder.obj
 0001:0000abb5       ?isSubstitutableBy@AnySimpleTypeDatatypeValidator@xercesc_3_1@@UAE_NQBVDatatypeValidator@2@@Z 1200bbb5 f   AnySimpleTypeDatatypeValidator.obj
 0001:0000abb5       ?canTranscodeTo@XMLUTF16Transcoder@xercesc_3_1@@UAE_NI@Z 1200bbb5 f   XMLUTF16Transcoder.obj
 0001:0000abba       ??0SchemaDateTimeException@xercesc_3_1@@QAE@QBD_KW4Codes@XMLExcepts@1@PAVMemoryManager@1@@Z 1200bbba f i XMLDateTime.obj
 0001:0000abfa       ??0SchemaDateTimeException@xercesc_3_1@@QAE@ABV01@@Z 1200bbfa f i XMLDateTime.obj
 0001:0000ac15       ??0SchemaDateTimeException@xercesc_3_1@@QAE@QBD_KW4Codes@XMLExcepts@1@QB_W333PAVMemoryManager@1@@Z 1200bc15 f i XMLDateTime.obj
 0001:0000ac61       ??0SchemaDateTimeException@xercesc_3_1@@QAE@QBD_KW4Codes@XMLExcepts@1@0000PAVMemoryManager@1@@Z 1200bc61 f i XMLDateTime.obj
 0001:0000acad       ??1SchemaDateTimeException@xercesc_3_1@@UAE@XZ 1200bcad f i XMLDateTime.obj
 0001:0000acb8       ?duplicate@SchemaDateTimeException@xercesc_3_1@@UBEPAVXMLException@2@XZ 1200bcb8 f i XMLDateTime.obj
 0001:0000acfc       ?getType@SchemaDateTimeException@xercesc_3_1@@UBEPB_WXZ 1200bcfc f i XMLDateTime.obj
 0001:0000ad02       ??_ESchemaDateTimeException@xercesc_3_1@@UAEPAXI@Z 1200bd02 f i XMLDateTime.obj
 0001:0000ad53       ??_FXMLDateTime@xercesc_3_1@@QAEXXZ 1200bd53 f i XMLDateTime.obj
 0001:0000ad5f       ??_EXMLDateTime@xercesc_3_1@@UAEPAXI@Z 1200bd5f f i XMLDateTime.obj
 0001:0000adaa       ?setBuffer@XMLDateTime@xercesc_3_1@@QAEXQB_W@Z 1200bdaa f i XMLDateTime.obj
 0001:0000ae35       ?reset@XMLDateTime@xercesc_3_1@@AAEXXZ 1200be35 f i XMLDateTime.obj
 0001:0000ae67       ?copy@XMLDateTime@xercesc_3_1@@AAEXABV12@@Z 1200be67 f i XMLDateTime.obj
 0001:0000aefd       ?initParser@XMLDateTime@xercesc_3_1@@AAE_NXZ 1200befd f i XMLDateTime.obj
 0001:0000af14       ?isNormalized@XMLDateTime@xercesc_3_1@@ABE_NXZ 1200bf14 f i XMLDateTime.obj
 0001:0000af1c       ?getRetVal@XMLDateTime@xercesc_3_1@@CAHHH@Z 1200bf1c f i XMLDateTime.obj
 0001:0000afbf       ?compare@XMLDateTime@xercesc_3_1@@SAHQBV12@0_N@Z 1200bfbf f   XMLDateTime.obj
 0001:0000b19c       ?addDuration@XMLDateTime@xercesc_3_1@@CAXPAV12@QBV12@H@Z 1200c19c f   XMLDateTime.obj
 0001:0000b315       ?compareResult@XMLDateTime@xercesc_3_1@@CAHHH_N@Z 1200c315 f   XMLDateTime.obj
 0001:0000b346       ?compare@XMLDateTime@xercesc_3_1@@SAHQBV12@0@Z 1200c346 f   XMLDateTime.obj
 0001:0000b3af       ?compareResult@XMLDateTime@xercesc_3_1@@CAHQBV12@0_NH@Z 1200c3af f   XMLDateTime.obj
 0001:0000b46a       ?compareOrder@XMLDateTime@xercesc_3_1@@SAHQBV12@0@Z 1200c46a f   XMLDateTime.obj
 0001:0000b566       ??1XMLDateTime@xercesc_3_1@@UAE@XZ 1200c566 f   XMLDateTime.obj
 0001:0000b59e       ??0XMLDateTime@xercesc_3_1@@QAE@QAVMemoryManager@1@@Z 1200c59e f   XMLDateTime.obj
 0001:0000b5d5       ??0XMLDateTime@xercesc_3_1@@QAE@QB_WQAVMemoryManager@1@@Z 1200c5d5 f   XMLDateTime.obj
 0001:0000b620       ??0XMLDateTime@xercesc_3_1@@QAE@ABV01@@Z 1200c620 f   XMLDateTime.obj
 0001:0000b65b       ??4XMLDateTime@xercesc_3_1@@QAEAAV01@ABV01@@Z 1200c65b f   XMLDateTime.obj
 0001:0000b675       ?getMaxLength@AbstractStringValidator@xercesc_3_1@@QBEKXZ 1200c675 f   XMLGrammarPoolImpl.obj
 0001:0000b675       ?getErrorHandler@SAXParser@xercesc_3_1@@QAEPAVErrorHandler@2@XZ 1200c675 f   SAX2XMLReaderImpl.obj
 0001:0000b675       ?getContentSpec@ComplexTypeInfo@xercesc_3_1@@QBEPAVContentSpecNode@2@XZ 1200c675 f   XMLElementDecl.obj
 0001:0000b675       ?getAnnotations@XSNamespaceItem@xercesc_3_1@@QBEPBV?$RefVectorOf@VXSAnnotation@xercesc_3_1@@@2@XZ 1200c675 f   XSAttributeDeclaration.obj
 0001:0000b675       ?getAnnotations@XSNamespaceItem@xercesc_3_1@@QAEPAV?$RefVectorOf@VXSAnnotation@xercesc_3_1@@@2@XZ 1200c675 f   XSAttributeDeclaration.obj
 0001:0000b675       ?getAnnotations@XSSimpleTypeDefinition@xercesc_3_1@@QAEPAV?$RefVectorOf@VXSAnnotation@xercesc_3_1@@@2@XZ 1200c675 f   XMLAttr.obj
 0001:0000b675       ?getRawData@XMLDateTime@xercesc_3_1@@UBEPA_WXZ 1200c675 f   XMLDateTime.obj
 0001:0000b675       ?getSubstitutionGroupElem@SchemaElementDecl@xercesc_3_1@@QBEPAV12@XZ 1200c675 f   XMLElementDecl.obj
 0001:0000b675       ?getEnumString@UnionDatatypeValidator@xercesc_3_1@@UBEPBV?$RefArrayVectorOf@_W@2@XZ 1200c675 f   UnionDatatypeValidator.obj
 0001:0000b675       ?getEnumeration@UnionDatatypeValidator@xercesc_3_1@@ABEPAV?$RefArrayVectorOf@_W@2@XZ 1200c675 f   XMLElementDecl.obj
 0001:0000b675       ?getErrorHandler@SAXParser@xercesc_3_1@@QBEPBVErrorHandler@2@XZ 1200c675 f   SAX2XMLReaderImpl.obj
 0001:0000b679       ?getFormattedString@XMLDateTime@xercesc_3_1@@UBEPB_WXZ 1200c679 f   XMLDateTime.obj
 0001:0000b67e       ?parseDateTime@XMLDateTime@xercesc_3_1@@QAEXXZ 1200c67e f   XMLDateTime.obj
 0001:0000b79d       ?parseDate@XMLDateTime@xercesc_3_1@@QAEXXZ 1200c79d f   XMLDateTime.obj
 0001:0000b859       ?parseTime@XMLDateTime@xercesc_3_1@@QAEXXZ 1200c859 f   XMLDateTime.obj
 0001:0000b927       ?parseDay@XMLDateTime@xercesc_3_1@@QAEXXZ 1200c927 f   XMLDateTime.obj
 0001:0000bae3       ?parseMonth@XMLDateTime@xercesc_3_1@@QAEXXZ 1200cae3 f   XMLDateTime.obj
 0001:0000bcb2       ?parseYear@XMLDateTime@xercesc_3_1@@QAEXXZ 1200ccb2 f   XMLDateTime.obj
 0001:0000bda9       ?parseMonthDay@XMLDateTime@xercesc_3_1@@QAEXXZ 1200cda9 f   XMLDateTime.obj
 0001:0000bf65       ?parseYearMonth@XMLDateTime@xercesc_3_1@@QAEXXZ 1200cf65 f   XMLDateTime.obj
 0001:0000c028       ?parseDuration@XMLDateTime@xercesc_3_1@@QAEXXZ 1200d028 f   XMLDateTime.obj
 0001:0000c564       ?getDate@XMLDateTime@xercesc_3_1@@AAEXXZ 1200d564 f   XMLDateTime.obj
 0001:0000c675       ?getTime@XMLDateTime@xercesc_3_1@@AAEXXZ 1200d675 f   XMLDateTime.obj
 0001:0000c8c2       ?getYearMonth@XMLDateTime@xercesc_3_1@@AAEXXZ 1200d8c2 f   XMLDateTime.obj
 0001:0000ca42       ?parseTimeZone@XMLDateTime@xercesc_3_1@@AAEXXZ 1200da42 f   XMLDateTime.obj
 0001:0000cafb       ?getTimeZone@XMLDateTime@xercesc_3_1@@AAEXK@Z 1200dafb f   XMLDateTime.obj
 0001:0000cc1c       ?normalize@XMLDateTime@xercesc_3_1@@AAEXXZ 1200dc1c f   XMLDateTime.obj
 0001:0000cd48       ?validateDateTime@XMLDateTime@xercesc_3_1@@ABEXXZ 1200dd48 f   XMLDateTime.obj
 0001:0000d113       ?indexOf@XMLDateTime@xercesc_3_1@@ABEHKK_W@Z 1200e113 f   XMLDateTime.obj
 0001:0000d141       ?findUTCSign@XMLDateTime@xercesc_3_1@@AAEHK@Z 1200e141 f   XMLDateTime.obj
 0001:0000d189       ?parseInt@XMLDateTime@xercesc_3_1@@ABEHKK@Z 1200e189 f   XMLDateTime.obj
 0001:0000d1f5       ?parseMiliSecond@XMLDateTime@xercesc_3_1@@ABENKK@Z 1200e1f5 f   XMLDateTime.obj
 0001:0000d296       ?parseIntYear@XMLDateTime@xercesc_3_1@@ABEHK@Z 1200e296 f   XMLDateTime.obj
 0001:0000d3b1       ?getDateTimeCanonicalRepresentation@XMLDateTime@xercesc_3_1@@QBEPA_WQAVMemoryManager@2@@Z 1200e3b1 f   XMLDateTime.obj
 0001:0000d54c       ?getDateCanonicalRepresentation@XMLDateTime@xercesc_3_1@@QBEPA_WQAVMemoryManager@2@@Z 1200e54c f   XMLDateTime.obj
 0001:0000d807       ?getTimeCanonicalRepresentation@XMLDateTime@xercesc_3_1@@QBEPA_WQAVMemoryManager@2@@Z 1200e807 f   XMLDateTime.obj
 0001:0000d8f0       ?fillString@XMLDateTime@xercesc_3_1@@ABEXAAPA_WHK@Z 1200e8f0 f   XMLDateTime.obj
 0001:0000d967       ?fillYearString@XMLDateTime@xercesc_3_1@@ABEHAAPA_WH@Z 1200e967 f   XMLDateTime.obj
 0001:0000da05       ?searchMiliSeconds@XMLDateTime@xercesc_3_1@@ABEXAAPA_W0@Z 1200ea05 f   XMLDateTime.obj
 0001:0000da65       ?createObject@XMLDateTime@xercesc_3_1@@SAPAVXSerializable@2@PAVMemoryManager@2@@Z 1200ea65 f   XMLDateTime.obj
 0001:0000da88       ?getProtoType@XMLDateTime@xercesc_3_1@@UBEPAVXProtoType@2@XZ 1200ea88 f   XMLDateTime.obj
 0001:0000da8e       ?serialize@XMLDateTime@xercesc_3_1@@UAEXAAVXSerializeEngine@2@@Z 1200ea8e f   XMLDateTime.obj
 0001:0000db59       ??_FXMLDouble@xercesc_3_1@@QAEXXZ 1200eb59 f i XMLDouble.obj
 0001:0000db65       ??_EXMLDouble@xercesc_3_1@@UAEPAXI@Z 1200eb65 f i XMLDouble.obj
 0001:0000dbb6       ?compareValues@XMLFloat@xercesc_3_1@@SAHQBV12@0@Z 1200ebb6 f i XMLFloat.obj
 0001:0000dbb6       ?compareValues@XMLDouble@xercesc_3_1@@SAHQBV12@0@Z 1200ebb6 f i XMLDouble.obj
 0001:0000dbcd       ??0XMLDouble@xercesc_3_1@@QAE@QB_WQAVMemoryManager@1@@Z 1200ebcd f   XMLDouble.obj
 0001:0000dc04       ??1XMLDouble@xercesc_3_1@@UAE@XZ 1200ec04 f   XMLDouble.obj
 0001:0000dc0f       ?checkBoundary@XMLDouble@xercesc_3_1@@MAEXQAD@Z 1200ec0f f   XMLDouble.obj
 0001:0000dc18       ?createObject@XMLDouble@xercesc_3_1@@SAPAVXSerializable@2@PAVMemoryManager@2@@Z 1200ec18 f   XMLDouble.obj
 0001:0000dc3b       ?getProtoType@XMLDouble@xercesc_3_1@@UBEPAVXProtoType@2@XZ 1200ec3b f   XMLDouble.obj
 0001:0000dc41       ??0XMLDouble@xercesc_3_1@@QAE@QAVMemoryManager@1@@Z 1200ec41 f   XMLDouble.obj
 0001:0000dc5c       ?serialize@XMLFloat@xercesc_3_1@@UAEXAAVXSerializeEngine@2@@Z 1200ec5c f   XMLFloat.obj
 0001:0000dc5c       ?serialize@XMLDouble@xercesc_3_1@@UAEXAAVXSerializeEngine@2@@Z 1200ec5c f   XMLDouble.obj
 0001:0000dc65       ?xlatThisOne@XMLEBCDICTranscoder@xercesc_3_1@@SA_WE@Z 1200ec65 f   XMLEBCDICTranscoder.obj
 0001:0000dc78       ??0XMLEBCDICTranscoder@xercesc_3_1@@QAE@QB_WKQAVMemoryManager@1@@Z 1200ec78 f   XMLEBCDICTranscoder.obj
 0001:0000dca8       ??_EXMLException@xercesc_3_1@@UAEPAXI@Z 1200eca8 f i XMLException.obj
 0001:0000dcf3       ?initializeXMLException@XMLInitializer@xercesc_3_1@@CAXXZ 1200ecf3 f   XMLException.obj
 0001:0000dd10       ?terminateXMLException@XMLInitializer@xercesc_3_1@@CAXXZ 1200ed10 f   XMLException.obj
 0001:0000dd28       ??1XMLException@xercesc_3_1@@UAE@XZ 1200ed28 f   XMLException.obj
 0001:0000dd49       ?setPosition@XMLException@xercesc_3_1@@QAEXQBD_K@Z 1200ed49 f   XMLException.obj
 0001:0000dd7b       ??0XMLException@xercesc_3_1@@QAE@XZ 1200ed7b f   XMLException.obj
 0001:0000dda7       ??0XMLException@xercesc_3_1@@QAE@QBD_KQAVMemoryManager@1@@Z 1200eda7 f   XMLException.obj
 0001:0000ddf7       ??0XMLException@xercesc_3_1@@QAE@ABV01@@Z 1200edf7 f   XMLException.obj
 0001:0000de4f       ??4XMLException@xercesc_3_1@@QAEAAV01@ABV01@@Z 1200ee4f f   XMLException.obj
 0001:0000dec7       ?loadExceptText@XMLException@xercesc_3_1@@IAEXW4Codes@XMLExcepts@2@@Z 1200eec7 f   XMLException.obj
 0001:0000df31       ?loadExceptText@XMLException@xercesc_3_1@@IAEXW4Codes@XMLExcepts@2@QB_W111@Z 1200ef31 f   XMLException.obj
 0001:0000dfce       ?loadExceptText@XMLException@xercesc_3_1@@IAEXW4Codes@XMLExcepts@2@QBD111@Z 1200efce f   XMLException.obj
 0001:0000e06b       ??_FXMLFloat@xercesc_3_1@@QAEXXZ 1200f06b f i XMLFloat.obj
 0001:0000e077       ??_EXMLFloat@xercesc_3_1@@UAEPAXI@Z 1200f077 f i XMLFloat.obj
 0001:0000e0c8       ?pow@@YANNH@Z              1200f0c8 f i XMLFloat.obj
 0001:0000e109       ??0XMLFloat@xercesc_3_1@@QAE@QB_WQAVMemoryManager@1@@Z 1200f109 f   XMLFloat.obj
 0001:0000e140       ??1XMLFloat@xercesc_3_1@@UAE@XZ 1200f140 f   XMLFloat.obj
 0001:0000e14b       ?checkBoundary@XMLFloat@xercesc_3_1@@MAEXQAD@Z 1200f14b f   XMLFloat.obj
 0001:0000e27b       ?createObject@XMLFloat@xercesc_3_1@@SAPAVXSerializable@2@PAVMemoryManager@2@@Z 1200f27b f   XMLFloat.obj
 0001:0000e29e       ?getProtoType@XMLFloat@xercesc_3_1@@UBEPAVXProtoType@2@XZ 1200f29e f   XMLFloat.obj
 0001:0000e2a4       ??0XMLFloat@xercesc_3_1@@QAE@QAVMemoryManager@1@@Z 1200f2a4 f   XMLFloat.obj
 0001:0000e2bf       ?xlatThisOne@XMLIBM1047Transcoder@xercesc_3_1@@SA_WE@Z 1200f2bf f   XMLIBM1047Transcoder.obj
 0001:0000e2d2       ??0XMLIBM1047Transcoder@xercesc_3_1@@QAE@QB_WKQAVMemoryManager@1@@Z 1200f2d2 f   XMLIBM1047Transcoder.obj
 0001:0000e302       ?xlatThisOne@XMLIBM1140Transcoder@xercesc_3_1@@SA_WE@Z 1200f302 f   XMLIBM1140Transcoder.obj
 0001:0000e315       ??0XMLIBM1140Transcoder@xercesc_3_1@@QAE@QB_WKQAVMemoryManager@1@@Z 1200f315 f   XMLIBM1140Transcoder.obj
 0001:0000e345       ?initializeStaticData@XMLInitializer@xercesc_3_1@@KAXXZ 1200f345 f   XMLInitializer.obj
 0001:0000e3be       ?terminateStaticData@XMLInitializer@xercesc_3_1@@KAXXZ 1200f3be f   XMLInitializer.obj
 0001:0000e415       ?setLocale@XMLMsgLoader@xercesc_3_1@@SAXQBD@Z 1200f415 f   XMLMsgLoader.obj
 0001:0000e473       ?getLocale@XMLMsgLoader@xercesc_3_1@@SAPBDXZ 1200f473 f   XMLMsgLoader.obj
 0001:0000e479       ?setNLSHome@XMLMsgLoader@xercesc_3_1@@SAXQBD@Z 1200f479 f   XMLMsgLoader.obj
 0001:0000e4b6       ?getNLSHome@XMLMsgLoader@xercesc_3_1@@SAPBDXZ 1200f4b6 f   XMLMsgLoader.obj
 0001:0000e4bc       ??_EXMLNumber@xercesc_3_1@@UAEPAXI@Z 1200f4bc f i XMLNumber.obj
 0001:0000e4bc       ??_EGrammar@xercesc_3_1@@UAEPAXI@Z 1200f4bc f i XMLDTDDescription.obj
 0001:0000e508       ??0XMLNumber@xercesc_3_1@@IAE@XZ 1200f508 f   XMLNumber.obj
 0001:0000e511       ??0XMLNumber@xercesc_3_1@@IAE@ABV01@@Z 1200f511 f   XMLNumber.obj
 0001:0000e51c       ?getProtoType@XMLNumber@xercesc_3_1@@UBEPAVXProtoType@2@XZ 1200f51c f   XMLNumber.obj
 0001:0000e522       ?loadNumber@XMLNumber@xercesc_3_1@@SAPAV12@W4NumberType@12@AAVXSerializeEngine@2@@Z 1200f522 f   XMLNumber.obj
 0001:0000e55f       ??_FXMLUri@xercesc_3_1@@QAEXXZ 1200f55f f i XMLString.obj
 0001:0000e56b       ?getUriText@XMLUri@xercesc_3_1@@QBEPB_WXZ 1200f56b f i XMLString.obj
 0001:0000e57e       ?isReservedOrUnreservedCharacter@XMLUri@xercesc_3_1@@CA_N_W@Z 1200f57e f i XMLString.obj
 0001:0000e5ab       ?isReservedCharacter@XMLUri@xercesc_3_1@@CA_N_W@Z 1200f5ab f i XMLString.obj
 0001:0000e5c7       ?isPathCharacter@XMLUri@xercesc_3_1@@CA_N_W@Z 1200f5c7 f i XMLString.obj
 0001:0000e5e3       ?isUnreservedCharacter@XMLUri@xercesc_3_1@@CA_N_W@Z 1200f5e3 f i XMLString.obj
 0001:0000e610       ?sizeToText@XMLString@xercesc_3_1@@SAXKQADKIQAVMemoryManager@2@@Z 1200f610 f   XMLString.obj
 0001:0000e758       ?binToText@XMLString@xercesc_3_1@@SAXKQADKIQAVMemoryManager@2@@Z 1200f758 f   XMLString.obj
 0001:0000e8a3       ?binToText@XMLString@xercesc_3_1@@SAXIQADKIQAVMemoryManager@2@@Z 1200f8a3 f   XMLString.obj
 0001:0000e8a8       ?binToText@XMLString@xercesc_3_1@@SAXJQADKIQAVMemoryManager@2@@Z 1200f8a8 f   XMLString.obj
 0001:0000e8d4       ?binToText@XMLString@xercesc_3_1@@SAXHQADKIQAVMemoryManager@2@@Z 1200f8d4 f   XMLString.obj
 0001:0000e8d9       ?catString@XMLString@xercesc_3_1@@SAXQADQBD@Z 1200f8d9 f   XMLString.obj
 0001:0000e8df       ?compareIString@XMLString@xercesc_3_1@@SAHQBD0@Z 1200f8df f   XMLString.obj
 0001:0000e8e9       ?compareNString@XMLString@xercesc_3_1@@SAHQBD0K@Z 1200f8e9 f   XMLString.obj
 0001:0000e8fd       ?compareNIString@XMLString@xercesc_3_1@@SAHQBD0K@Z 1200f8fd f   XMLString.obj
 0001:0000e911       ?compareString@XMLString@xercesc_3_1@@SAHQBD0@Z 1200f911 f   XMLString.obj
 0001:0000e91b       ?copyString@XMLString@xercesc_3_1@@SAXQADQBD@Z 1200f91b f   XMLString.obj
 0001:0000e921       ?cut@XMLString@xercesc_3_1@@SAXQA_WK@Z 1200f921 f   XMLString.obj
 0001:0000e955       ?hash@XMLString@xercesc_3_1@@SAKQBDK@Z 1200f955 f   XMLString.obj
 0001:0000e982       ?indexOf@XMLString@xercesc_3_1@@SAHQBDD@Z 1200f982 f   XMLString.obj
 0001:0000e9ac       ?indexOf@XMLString@xercesc_3_1@@SAHQBDDKQAVMemoryManager@2@@Z 1200f9ac f   XMLString.obj
 0001:0000ea0b       ?lastIndexOf@XMLString@xercesc_3_1@@SAHQBDD@Z 1200fa0b f   XMLString.obj
 0001:0000ea2e       ?lastIndexOf@XMLString@xercesc_3_1@@SAHQBDDKQAVMemoryManager@2@@Z 1200fa2e f   XMLString.obj
 0001:0000ea8b       ?replaceTokens@XMLString@xercesc_3_1@@SAKQA_WKQB_W111QAVMemoryManager@2@@Z 1200fa8b f   XMLString.obj
 0001:0000eb94       ?replicate@XMLString@xercesc_3_1@@SAPADQBDQAVMemoryManager@2@@Z 1200fb94 f   XMLString.obj
 0001:0000ebcf       ?startsWith@XMLString@xercesc_3_1@@SA_NQBD0@Z 1200fbcf f   XMLString.obj
 0001:0000ebf2       ?startsWithI@XMLString@xercesc_3_1@@SA_NQBD0@Z 1200fbf2 f   XMLString.obj
 0001:0000ec15       ?stringLen@XMLString@xercesc_3_1@@SAKQBD@Z 1200fc15 f   XMLString.obj
 0001:0000ec1f       ?transcode@XMLString@xercesc_3_1@@SAPADQB_WQAVMemoryManager@2@@Z 1200fc1f f   XMLString.obj
 0001:0000ec35       ?transcode@XMLString@xercesc_3_1@@SA_NQB_WQADKQAVMemoryManager@2@@Z 1200fc35 f   XMLString.obj
 0001:0000ec51       ?transcode@XMLString@xercesc_3_1@@SAPA_WQBDQAVMemoryManager@2@@Z 1200fc51 f   XMLString.obj
 0001:0000ec67       ?transcode@XMLString@xercesc_3_1@@SA_NQBDQA_WKQAVMemoryManager@2@@Z 1200fc67 f   XMLString.obj
 0001:0000ec83       ?trim@XMLString@xercesc_3_1@@SAXQAD@Z 1200fc83 f   XMLString.obj
 0001:0000ecf8       ?subString@XMLString@xercesc_3_1@@SAXQADQBDKKQAVMemoryManager@2@@Z 1200fcf8 f   XMLString.obj
 0001:0000ed9a       ?isValidNOTATION@XMLString@xercesc_3_1@@SA_NQB_WQAVMemoryManager@2@@Z 1200fd9a f   XMLString.obj
 0001:0000ee63       ?isValidEncName@XMLString@xercesc_3_1@@SA_NQB_W@Z 1200fe63 f   XMLString.obj
 0001:0000eec3       ?isAlpha@XMLString@xercesc_3_1@@SA_N_W@Z 1200fec3 f   XMLString.obj
 0001:0000eee6       ?isDigit@XMLString@xercesc_3_1@@SA_N_W@Z 1200fee6 f   XMLString.obj
 0001:0000eefc       ?isAlphaNum@XMLString@xercesc_3_1@@SA_N_W@Z 1200fefc f   XMLString.obj
 0001:0000ef21       ?isHex@XMLString@xercesc_3_1@@SA_N_W@Z 1200ff21 f   XMLString.obj
 0001:0000ef51       ?sizeToText@XMLString@xercesc_3_1@@SAXKQA_WKIQAVMemoryManager@2@@Z 1200ff51 f   XMLString.obj
 0001:0000f0bd       ?binToText@XMLString@xercesc_3_1@@SAXKQA_WKIQAVMemoryManager@2@@Z 120100bd f   XMLString.obj
 0001:0000f229       ?binToText@XMLString@xercesc_3_1@@SAXIQA_WKIQAVMemoryManager@2@@Z 12010229 f   XMLString.obj
 0001:0000f22e       ?binToText@XMLString@xercesc_3_1@@SAXJQA_WKIQAVMemoryManager@2@@Z 1201022e f   XMLString.obj
 0001:0000f260       ?binToText@XMLString@xercesc_3_1@@SAXHQA_WKIQAVMemoryManager@2@@Z 12010260 f   XMLString.obj
 0001:0000f27e       ?catString@XMLString@xercesc_3_1@@SAXQA_WQB_W@Z 1201027e f   XMLString.obj
 0001:0000f2aa       ?compareIString@XMLString@xercesc_3_1@@SAHQB_W0@Z 120102aa f   XMLString.obj
 0001:0000f2c0       ?compareIStringASCII@XMLString@xercesc_3_1@@SAHQB_W0@Z 120102c0 f   XMLString.obj
 0001:0000f33c       ?compareNString@XMLString@xercesc_3_1@@SAHQB_W0K@Z 1201033c f   XMLString.obj
 0001:0000f375       ?compareNIString@XMLString@xercesc_3_1@@SAHQB_W0K@Z 12010375 f   XMLString.obj
 0001:0000f38e       ?compareString@XMLString@xercesc_3_1@@SAHQB_W0@Z 1201038e f   XMLString.obj
 0001:0000f3d3       ?regionMatches@XMLString@xercesc_3_1@@SA_NQB_WH0HK@Z 120103d3 f   XMLString.obj
 0001:0000f418       ?regionIMatches@XMLString@xercesc_3_1@@SA_NQB_WH0HK@Z 12010418 f   XMLString.obj
 0001:0000f45d       ?copyString@XMLString@xercesc_3_1@@SAXQA_WQB_W@Z 1201045d f   XMLString.obj
 0001:0000f49a       ?copyNString@XMLString@xercesc_3_1@@SA_NQA_WQB_WK@Z 1201049a f   XMLString.obj
 0001:0000f4e9       ?findAny@XMLString@xercesc_3_1@@SAPB_WQB_W0@Z 120104e9 f   XMLString.obj
 0001:0000f4e9       ?findAny@XMLString@xercesc_3_1@@SAPA_WQA_WQB_W@Z 120104e9 f   XMLString.obj
 0001:0000f531       ?patternMatch@XMLString@xercesc_3_1@@SAHQB_W0@Z 12010531 f   XMLString.obj
 0001:0000f598       ?indexOf@XMLString@xercesc_3_1@@SAHQB_W_W@Z 12010598 f   XMLString.obj
 0001:0000f5cc       ?indexOf@XMLString@xercesc_3_1@@SAHQB_W_WKQAVMemoryManager@2@@Z 120105cc f   XMLString.obj
 0001:0000f631       ?lastIndexOf@XMLString@xercesc_3_1@@SAH_WQB_WK@Z 12010631 f   XMLString.obj
 0001:0000f65d       ?lastIndexOf@XMLString@xercesc_3_1@@SAHQB_W_WKQAVMemoryManager@2@@Z 1201065d f   XMLString.obj
 0001:0000f6c3       ?makeUName@XMLString@xercesc_3_1@@SAPA_WQB_W0@Z 120106c3 f   XMLString.obj
 0001:0000f753       ?textToBin@XMLString@xercesc_3_1@@SA_NQB_WAAIQAVMemoryManager@2@@Z 12010753 f   XMLString.obj
 0001:0000f827       ?parseInt@XMLString@xercesc_3_1@@SAHQB_WQAVMemoryManager@2@@Z 12010827 f   XMLString.obj
 0001:0000f9b8       ?trim@XMLString@xercesc_3_1@@SAXQA_W@Z 120109b8 f   XMLString.obj
 0001:0000fa36       ?upperCase@XMLString@xercesc_3_1@@SAXQA_W@Z 12010a36 f   XMLString.obj
 0001:0000fa49       ?upperCaseASCII@XMLString@xercesc_3_1@@SAXQA_W@Z 12010a49 f   XMLString.obj
 0001:0000fa74       ?lowerCase@XMLString@xercesc_3_1@@SAXQA_W@Z 12010a74 f   XMLString.obj
 0001:0000fa87       ?lowerCaseASCII@XMLString@xercesc_3_1@@SAXQA_W@Z 12010a87 f   XMLString.obj
 0001:0000fab2       ?subString@XMLString@xercesc_3_1@@SAXQA_WQB_WKKQAVMemoryManager@2@@Z 12010ab2 f   XMLString.obj
 0001:0000fad8       ?subString@XMLString@xercesc_3_1@@SAXQA_WQB_WKKKQAVMemoryManager@2@@Z 12010ad8 f   XMLString.obj
 0001:0000fb75       ?tokenizeString@XMLString@xercesc_3_1@@SAPAV?$BaseRefVectorOf@_W@2@QB_WQAVMemoryManager@2@@Z 12010b75 f   XMLString.obj
 0001:0000fc6b       ?isInList@XMLString@xercesc_3_1@@SA_NQB_W0@Z 12010c6b f   XMLString.obj
 0001:0000fce6       ?isWSReplaced@XMLString@xercesc_3_1@@SA_NQB_W@Z 12010ce6 f   XMLString.obj
 0001:0000fd17       ?replaceWS@XMLString@xercesc_3_1@@SAXPA_WQAVMemoryManager@2@@Z 12010d17 f   XMLString.obj
 0001:0000fd47       ?isWSCollapsed@XMLString@xercesc_3_1@@SA_NQB_W@Z 12010d47 f   XMLString.obj
 0001:0000fda6       ?collapseWS@XMLString@xercesc_3_1@@SAXPA_WQAVMemoryManager@2@@Z 12010da6 f   XMLString.obj
 0001:0000fe6c       ?removeWS@XMLString@xercesc_3_1@@SAXPA_WQAVMemoryManager@2@@Z 12010e6c f   XMLString.obj
 0001:0000fead       ?removeChar@XMLString@xercesc_3_1@@SAXQB_WAB_WAAVXMLBuffer@2@@Z 12010ead f   XMLString.obj
 0001:0000fee8       ?fixURI@XMLString@xercesc_3_1@@SAXQB_WQA_W@Z 12010ee8 f   XMLString.obj
 0001:00010001       ?release@XMLString@xercesc_3_1@@SAXPAPADQAVMemoryManager@2@@Z 12011001 f   XMLString.obj
 0001:00010001       ?release@XMLString@xercesc_3_1@@SAXPAPA_WQAVMemoryManager@2@@Z 12011001 f   XMLString.obj
 0001:00010018       ?initString@XMLString@xercesc_3_1@@CAXQAVXMLLCPTranscoder@2@QAVMemoryManager@2@@Z 12011018 f   XMLString.obj
 0001:0001002d       ?termString@XMLString@xercesc_3_1@@CAXXZ 1201102d f   XMLString.obj
 0001:0001004c       ??1?$BaseRefVectorOf@_W@xercesc_3_1@@UAE@XZ 1201104c f i XMLString.obj
 0001:00010053       ?addElement@?$BaseRefVectorOf@_W@xercesc_3_1@@QAEXQA_W@Z 12011053 f i XMLString.obj
 0001:00010053       ?addElement@?$BaseRefVectorOf@VDOMNodeIteratorImpl@xercesc_3_1@@@xercesc_3_1@@QAEXQAVDOMNodeIteratorImpl@2@@Z 12011053 f i DOMDocumentImpl.obj
 0001:00010053       ?addElement@?$BaseRefVectorOf@VXMLElementDecl@xercesc_3_1@@@xercesc_3_1@@QAEXQAVXMLElementDecl@2@@Z 12011053 f i WFXMLScanner.obj
 0001:00010053       ?addElement@?$BaseRefVectorOf@VOp@xercesc_3_1@@@xercesc_3_1@@QAEXQAVOp@2@@Z 12011053 f i Op.obj
 0001:00010053       ?addElement@?$BaseRefVectorOf@VScope@InScopeNamespaces@DOMNormalizer@xercesc_3_1@@@xercesc_3_1@@QAEXQAVScope@InScopeNamespaces@DOMNormalizer@2@@Z 12011053 f i DOMNormalizer.obj
 0001:00010053       ?addElement@?$BaseRefVectorOf@VXSIDCDefinition@xercesc_3_1@@@xercesc_3_1@@QAEXQAVXSIDCDefinition@2@@Z 12011053 f i XSObjectFactory.obj
 0001:00010053       ?addElement@?$BaseRefVectorOf@VDOMBuffer@xercesc_3_1@@@xercesc_3_1@@QAEXQAVDOMBuffer@2@@Z 12011053 f i DOMDocumentImpl.obj
 0001:00010053       ?addElement@?$BaseRefVectorOf@VSchemaInfo@xercesc_3_1@@@xercesc_3_1@@QAEXQAVSchemaInfo@2@@Z 12011053 f i IGXMLScanner.obj
 0001:00010053       ?addElement@?$BaseRefVectorOf@VDOMRangeImpl@xercesc_3_1@@@xercesc_3_1@@QAEXQAVDOMRangeImpl@2@@Z 12011053 f i DOMDocumentImpl.obj
 0001:00010053       ?addElement@?$BaseRefVectorOf@VXSMultiValueFacet@xercesc_3_1@@@xercesc_3_1@@QAEXQAVXSMultiValueFacet@2@@Z 12011053 f i XSObjectFactory.obj
 0001:00010053       ?addElement@?$BaseRefVectorOf@VSchemaAttDef@xercesc_3_1@@@xercesc_3_1@@QAEXQAVSchemaAttDef@2@@Z 12011053 f i XMLGrammarPoolImpl.obj
 0001:00010053       ?addElement@?$BaseRefVectorOf@V?$RefHashTableOf@VValueStore@xercesc_3_1@@UPtrHasher@2@@xercesc_3_1@@@xercesc_3_1@@QAEXQAV?$RefHashTableOf@VValueStore@xercesc_3_1@@UPtrHasher@2@@2@@Z 12011053 f i ValueStoreCache.obj
 0001:00010053       ?addElement@?$BaseRefVectorOf@VXMLReader@xercesc_3_1@@@xercesc_3_1@@QAEXQAVXMLReader@2@@Z 12011053 f i ReaderMgr.obj
 0001:00010053       ?addElement@?$BaseRefVectorOf@VIdentityConstraint@xercesc_3_1@@@xercesc_3_1@@QAEXQAVIdentityConstraint@2@@Z 12011053 f i XMLElementDecl.obj
 0001:00010053       ?addElement@?$BaseRefVectorOf@VKVStringPair@xercesc_3_1@@@xercesc_3_1@@QAEXQAVKVStringPair@2@@Z 12011053 f i IGXMLScanner.obj
 0001:00010053       ?addElement@?$BaseRefVectorOf@VXercesLocationPath@xercesc_3_1@@@xercesc_3_1@@QAEXQAVXercesLocationPath@2@@Z 12011053 f i XTemplateSerializer.obj
 0001:00010053       ?addElement@?$BaseRefVectorOf@VContentSpecNode@xercesc_3_1@@@xercesc_3_1@@QAEXQAVContentSpecNode@2@@Z 12011053 f i XTemplateSerializer.obj
 0001:00010053       ?addElement@?$BaseRefVectorOf@VXSObject@xercesc_3_1@@@xercesc_3_1@@QAEXQAVXSObject@2@@Z 12011053 f i XSModel.obj
 0001:00010053       ?addElement@?$BaseRefVectorOf@VXSNamespaceItem@xercesc_3_1@@@xercesc_3_1@@QAEXQAVXSNamespaceItem@2@@Z 12011053 f i XSModel.obj
 0001:00010053       ?addElement@?$BaseRefVectorOf@VMatch@xercesc_3_1@@@xercesc_3_1@@QAEXQAVMatch@2@@Z 12011053 f i RegularExpression.obj
 0001:00010053       ?addElement@?$BaseRefVectorOf@VReferencePosition@RegxParser@xercesc_3_1@@@xercesc_3_1@@QAEXQAVReferencePosition@RegxParser@2@@Z 12011053 f i RegxParser.obj
 0001:00010053       ?addElement@?$BaseRefVectorOf@VXPathMatcher@xercesc_3_1@@@xercesc_3_1@@QAEXQAVXPathMatcher@2@@Z 12011053 f i IGXMLScanner.obj
 0001:00010053       ?addElement@?$BaseRefVectorOf@VXMLAttr@xercesc_3_1@@@xercesc_3_1@@QAEXQAVXMLAttr@2@@Z 12011053 f i DGXMLScanner.obj
 0001:00010053       ?addElement@?$BaseRefVectorOf@VDOMDocumentImpl@xercesc_3_1@@@xercesc_3_1@@QAEXQAVDOMDocumentImpl@2@@Z 12011053 f i AbstractDOMParser.obj
 0001:00010053       ?addElement@?$BaseRefVectorOf@VValueStore@xercesc_3_1@@@xercesc_3_1@@QAEXQAVValueStore@2@@Z 12011053 f i ValueStoreCache.obj
 0001:00010053       ?addElement@?$BaseRefVectorOf@VXSParticle@xercesc_3_1@@@xercesc_3_1@@QAEXQAVXSParticle@2@@Z 12011053 f i XSObjectFactory.obj
 0001:00010053       ?addElement@?$BaseRefVectorOf@VPSVIAttributeStorage@xercesc_3_1@@@xercesc_3_1@@QAEXQAVPSVIAttributeStorage@2@@Z 12011053 f i PSVIAttributeList.obj
 0001:00010053       ?addElement@?$BaseRefVectorOf@VXSFacet@xercesc_3_1@@@xercesc_3_1@@QAEXQAVXSFacet@2@@Z 12011053 f i XSObjectFactory.obj
 0001:00010053       ?addElement@?$BaseRefVectorOf@VXSSimpleTypeDefinition@xercesc_3_1@@@xercesc_3_1@@QAEXQAVXSSimpleTypeDefinition@2@@Z 12011053 f i XSObjectFactory.obj
 0001:00010053       ?addElement@?$BaseRefVectorOf@VToken@xercesc_3_1@@@xercesc_3_1@@QAEXQAVToken@2@@Z 12011053 f i TokenFactory.obj
 0001:00010053       ?addElement@?$BaseRefVectorOf@VXSAttributeUse@xercesc_3_1@@@xercesc_3_1@@QAEXQAVXSAttributeUse@2@@Z 12011053 f i XSObjectFactory.obj
 0001:00010053       ?addElement@?$BaseRefVectorOf@VIC_Field@xercesc_3_1@@@xercesc_3_1@@QAEXQAVIC_Field@2@@Z 12011053 f i XMLElementDecl.obj
 0001:00010053       ?addElement@?$BaseRefVectorOf@VDOMImplementation@xercesc_3_1@@@xercesc_3_1@@QAEXQAVDOMImplementation@2@@Z 12011053 f i DOMImplementationListImpl.obj
 0001:00010053       ?addElement@?$BaseRefVectorOf@VDOMNode@xercesc_3_1@@@xercesc_3_1@@QAEXQAVDOMNode@2@@Z 12011053 f i DOMDocumentImpl.obj
 0001:00010053       ?addElement@?$BaseRefVectorOf@VSchemaElementDecl@xercesc_3_1@@@xercesc_3_1@@QAEXQAVSchemaElementDecl@2@@Z 12011053 f i XMLElementDecl.obj
 0001:00010053       ?addElement@?$BaseRefVectorOf@VXMLEntityDecl@xercesc_3_1@@@xercesc_3_1@@QAEXQAVXMLEntityDecl@2@@Z 12011053 f i ReaderMgr.obj
 0001:00010053       ?addElement@?$BaseRefVectorOf@VXSAnnotation@xercesc_3_1@@@xercesc_3_1@@QAEXQAVXSAnnotation@2@@Z 12011053 f i XSComplexTypeDefinition.obj
 0001:00010053       ?addElement@?$BaseRefVectorOf@V?$RefHashTableOf@_WUStringHasher@xercesc_3_1@@@xercesc_3_1@@@xercesc_3_1@@QAEXQAV?$RefHashTableOf@_WUStringHasher@xercesc_3_1@@@2@@Z 12011053 f i DOMLSSerializerImpl.obj
 0001:00010053       ?addElement@?$BaseRefVectorOf@VDatatypeValidator@xercesc_3_1@@@xercesc_3_1@@QAEXQAVDatatypeValidator@2@@Z 12011053 f i XTemplateSerializer.obj
 0001:00010053       ?addElement@?$BaseRefVectorOf@V?$ValueStackOf@K@xercesc_3_1@@@xercesc_3_1@@QAEXQAV?$ValueStackOf@K@2@@Z 12011053 f i XPathMatcher.obj
 0001:000100d6       ?setElementAt@?$BaseRefVectorOf@_W@xercesc_3_1@@UAEXQA_WK@Z 120110d6 f i XMLString.obj
 0001:00010131       ?removeAllElements@?$BaseRefVectorOf@_W@xercesc_3_1@@UAEXXZ 12011131 f i XMLString.obj
 0001:00010163       ?removeElementAt@?$BaseRefVectorOf@_W@xercesc_3_1@@UAEXK@Z 12011163 f i XMLString.obj
 0001:000101ec       ?removeLastElement@?$BaseRefVectorOf@_W@xercesc_3_1@@UAEXXZ 120111ec f i XMLString.obj
 0001:0001020b       ?cleanup@?$BaseRefVectorOf@_W@xercesc_3_1@@UAEXXZ 1201120b f i XMLString.obj
 0001:0001023d       ??0?$RefArrayVectorOf@_W@xercesc_3_1@@QAE@K_NQAVMemoryManager@1@@Z 1201123d f i XMLString.obj
 0001:0001025e       ?setElementAt@?$RefArrayVectorOf@_W@xercesc_3_1@@UAEXQA_WK@Z 1201125e f i XMLString.obj
 0001:000102ba       ?removeAllElements@?$RefArrayVectorOf@_W@xercesc_3_1@@UAEXXZ 120112ba f i XMLString.obj
 0001:000102ed       ?removeElementAt@?$RefArrayVectorOf@_W@xercesc_3_1@@UAEXK@Z 120112ed f i XMLString.obj
 0001:00010374       ?removeLastElement@?$RefArrayVectorOf@_W@xercesc_3_1@@UAEXXZ 12011374 f i XMLString.obj
 0001:0001039a       ?cleanup@?$RefArrayVectorOf@_W@xercesc_3_1@@UAEXXZ 1201139a f i XMLString.obj
 0001:000103cd       ??_G?$BaseRefVectorOf@_W@xercesc_3_1@@UAEPAXI@Z 120113cd f i XMLString.obj
 0001:000103cd       ??_E?$BaseRefVectorOf@_W@xercesc_3_1@@UAEPAXI@Z 120113cd f i * CIL library *:* CIL module *
 0001:000103ed       ??_E?$RefArrayVectorOf@_W@xercesc_3_1@@UAEPAXI@Z 120113ed f i * CIL library *:* CIL module *
 0001:000103ed       ??_G?$RefArrayVectorOf@_W@xercesc_3_1@@UAEPAXI@Z 120113ed f i XMLString.obj
 0001:00010454       ??0?$BaseRefVectorOf@_W@xercesc_3_1@@QAE@K_NQAVMemoryManager@1@@Z 12011454 f i XMLString.obj
 0001:000104a3       ?isDelimeter@XMLStringTokenizer@xercesc_3_1@@AAE_N_W@Z 120114a3 f i XMLStringTokenizer.obj
 0001:000104bd       ?countTokens@XMLStringTokenizer@xercesc_3_1@@QAEIXZ 120114bd f i XMLStringTokenizer.obj
 0001:00010523       ??0XMLStringTokenizer@xercesc_3_1@@QAE@QB_WQAVMemoryManager@1@@Z 12011523 f   XMLStringTokenizer.obj
 0001:000105c1       ??0XMLStringTokenizer@xercesc_3_1@@QAE@QB_W0QAVMemoryManager@1@@Z 120115c1 f   XMLStringTokenizer.obj
 0001:00010664       ??1XMLStringTokenizer@xercesc_3_1@@QAE@XZ 12011664 f   XMLStringTokenizer.obj
 0001:00010669       ?cleanUp@XMLStringTokenizer@xercesc_3_1@@AAEXXZ 12011669 f   XMLStringTokenizer.obj
 0001:0001069a       ?nextToken@XMLStringTokenizer@xercesc_3_1@@QAEPA_WXZ 1201169a f   XMLStringTokenizer.obj
 0001:00010734       ?hasMoreTokens@XMLStringTokenizer@xercesc_3_1@@QAE_NXZ 12011734 f   XMLStringTokenizer.obj
 0001:0001073f       ??1?$JanitorMemFunCall@VXPathMatcherStack@xercesc_3_1@@@xercesc_3_1@@QAE@XZ 1201173f f i XPathMatcherStack.obj
 0001:0001073f       ??1?$JanitorMemFunCall@VValueStoreCache@xercesc_3_1@@@xercesc_3_1@@QAE@XZ 1201173f f i ValueStoreCache.obj
 0001:0001073f       ??1?$JanitorMemFunCall@VRangeTokenMap@xercesc_3_1@@@xercesc_3_1@@QAE@XZ 1201173f f i RangeTokenMap.obj
 0001:0001073f       ??1?$JanitorMemFunCall@VXMLStringTokenizer@xercesc_3_1@@@xercesc_3_1@@QAE@XZ 1201173f f i XMLStringTokenizer.obj
 0001:0001073f       ??1?$JanitorMemFunCall@VDOMXPathExpression@xercesc_3_1@@@xercesc_3_1@@QAE@XZ 1201173f f i DOMDocumentImpl.obj
 0001:0001073f       ??1?$JanitorMemFunCall@VBMPattern@xercesc_3_1@@@xercesc_3_1@@QAE@XZ 1201173f f i BMPattern.obj
 0001:0001073f       ??1?$JanitorMemFunCall@VXMLAttr@xercesc_3_1@@@xercesc_3_1@@QAE@XZ 1201173f f i XMLAttr.obj
 0001:0001073f       ??1?$JanitorMemFunCall@VTraverseSchema@xercesc_3_1@@@xercesc_3_1@@QAE@XZ 1201173f f i TraverseSchema.obj
 0001:0001073f       ??1?$JanitorMemFunCall@VFieldValueMap@xercesc_3_1@@@xercesc_3_1@@QAE@XZ 1201173f f i FieldValueMap.obj
 0001:00010756       ??_EXMLUCS4Transcoder@xercesc_3_1@@UAEPAXI@Z 12011756 f i XMLUCS4Transcoder.obj
 0001:000107a7       ??0XMLUCS4Transcoder@xercesc_3_1@@QAE@QB_WK_NQAVMemoryManager@1@@Z 120117a7 f   XMLUCS4Transcoder.obj
 0001:000107ce       ??1XMLUCS4Transcoder@xercesc_3_1@@UAE@XZ 120117ce f   XMLUCS4Transcoder.obj
 0001:000107d9       ?transcodeFrom@XMLUCS4Transcoder@xercesc_3_1@@UAEKQBEKQA_WKAAKQAE@Z 120117d9 f   XMLUCS4Transcoder.obj
 0001:000108a6       ?transcodeTo@XMLUCS4Transcoder@xercesc_3_1@@UAEKQB_WKQAEKAAKW4UnRepOpts@XMLTranscoder@2@@Z 120118a6 f   XMLUCS4Transcoder.obj
 0001:0001098f       ??_EXMLUri@xercesc_3_1@@UAEPAXI@Z 1201198f f i XMLUri.obj
 0001:000109da       ??0XMLUri@xercesc_3_1@@QAE@QB_WQAVMemoryManager@1@@Z 120119da f   XMLUri.obj
 0001:00010a5e       ??0XMLUri@xercesc_3_1@@QAE@QBV01@QB_WQAVMemoryManager@1@@Z 12011a5e f   XMLUri.obj
 0001:00010ae4       ??0XMLUri@xercesc_3_1@@QAE@ABV01@@Z 12011ae4 f   XMLUri.obj
 0001:00010b6a       ??4XMLUri@xercesc_3_1@@QAEAAV01@ABV01@@Z 12011b6a f   XMLUri.obj
 0001:00010bc3       ??1XMLUri@xercesc_3_1@@UAE@XZ 12011bc3 f   XMLUri.obj
 0001:00010bef       ?cleanUp@XMLUri@xercesc_3_1@@AAEXXZ 12011bef f   XMLUri.obj
 0001:00010c84       ?initialize@XMLUri@xercesc_3_1@@AAEXABV12@@Z 12011c84 f   XMLUri.obj
 0001:00010d03       ?initialize@XMLUri@xercesc_3_1@@AAEXQBV12@QB_W@Z 12011d03 f   XMLUri.obj
 0001:000114fb       ?initializeAuthority@XMLUri@xercesc_3_1@@AAEXQB_W@Z 120124fb f   XMLUri.obj
 0001:0001178d       ?initializeScheme@XMLUri@xercesc_3_1@@AAEXQB_W@Z 1201278d f   XMLUri.obj
 0001:00011870       ?initializePath@XMLUri@xercesc_3_1@@AAEXQB_W@Z 12012870 f   XMLUri.obj
 0001:0001203b       ?setScheme@XMLUri@xercesc_3_1@@QAEXQB_W@Z 1201303b f   XMLUri.obj
 0001:00012152       ?setUserInfo@XMLUri@xercesc_3_1@@QAEXQB_W@Z 12013152 f   XMLUri.obj
 0001:0001222b       ?setHost@XMLUri@xercesc_3_1@@QAEXQB_W@Z 1201322b f   XMLUri.obj
 0001:00012328       ?setPort@XMLUri@xercesc_3_1@@QAEXH@Z 12013328 f   XMLUri.obj
 0001:00012486       ?setRegBasedAuthority@XMLUri@xercesc_3_1@@QAEXQB_W@Z 12013486 f   XMLUri.obj
 0001:00012539       ?setPath@XMLUri@xercesc_3_1@@QAEXQB_W@Z 12013539 f   XMLUri.obj
 0001:00012581       ?setFragment@XMLUri@xercesc_3_1@@QAEXQB_W@Z 12013581 f   XMLUri.obj
 0001:00012708       ?setQueryString@XMLUri@xercesc_3_1@@QAEXQB_W@Z 12013708 f   XMLUri.obj
 0001:0001288f       ?isConformantSchemeName@XMLUri@xercesc_3_1@@CA_NQB_W@Z 1201388f f   XMLUri.obj
 0001:000128e1       ?isConformantUserInfo@XMLUri@xercesc_3_1@@CAXQB_WQAVMemoryManager@2@@Z 120138e1 f   XMLUri.obj
 0001:00012a86       ?isValidServerBasedAuthority@XMLUri@xercesc_3_1@@CA_NQB_WKH0K@Z 12013a86 f   XMLUri.obj
 0001:00012b29       ?isValidServerBasedAuthority@XMLUri@xercesc_3_1@@CA_NQB_WH0QAVMemoryManager@2@@Z 12013b29 f   XMLUri.obj
 0001:00012bbd       ?isValidRegistryBasedAuthority@XMLUri@xercesc_3_1@@CA_NQB_WK@Z 12013bbd f   XMLUri.obj
 0001:00012c38       ?isValidRegistryBasedAuthority@XMLUri@xercesc_3_1@@CA_NQB_W@Z 12013c38 f   XMLUri.obj
 0001:00012ca8       ?isURIString@XMLUri@xercesc_3_1@@SA_NQB_W@Z 12013ca8 f   XMLUri.obj
 0001:00012d05       ?isWellFormedAddress@XMLUri@xercesc_3_1@@CA_NQB_WQAVMemoryManager@2@@Z 12013d05 f   XMLUri.obj
 0001:00012e8a       ?isWellFormedIPv4Address@XMLUri@xercesc_3_1@@CA_NQB_WK@Z 12013e8a f   XMLUri.obj
 0001:00012f4c       ?isWellFormedIPv6Reference@XMLUri@xercesc_3_1@@CA_NQB_WK@Z 12013f4c f   XMLUri.obj
 0001:0001301a       ?scanHexSequence@XMLUri@xercesc_3_1@@CAHQB_WKKAAH@Z 1201401a f   XMLUri.obj
 0001:000130cb       ?isGenericURI@XMLUri@xercesc_3_1@@AAE_NXZ 120140cb f   XMLUri.obj
 0001:000130d4       ?buildFullText@XMLUri@xercesc_3_1@@AAEXXZ 120140d4 f   XMLUri.obj
 0001:000132a6       ?isValidURI@XMLUri@xercesc_3_1@@SA_NQBV12@QB_W_N@Z 120142a6 f   XMLUri.obj
 0001:0001343d       ?isValidURI@XMLUri@xercesc_3_1@@SA_N_NQB_W0@Z 1201443d f   XMLUri.obj
 0001:000135d4       ?isWellFormedAddress@XMLUri@xercesc_3_1@@CA_NQB_WK@Z 120145d4 f   XMLUri.obj
 0001:000136ed       ?processScheme@XMLUri@xercesc_3_1@@CA_NQB_WAAK@Z 120146ed f   XMLUri.obj
 0001:0001371e       ?isConformantSchemeName@XMLUri@xercesc_3_1@@CA_NQB_WK@Z 1201471e f   XMLUri.obj
 0001:0001376f       ?processAuthority@XMLUri@xercesc_3_1@@CA_NQB_WK@Z 1201476f f   XMLUri.obj
 0001:000138e5       ?processPath@XMLUri@xercesc_3_1@@CA_NQB_WK_N1@Z 120148e5 f   XMLUri.obj
 0001:00013a72       ?normalizeURI@XMLUri@xercesc_3_1@@SAXQB_WAAVXMLBuffer@2@@Z 12014a72 f   XMLUri.obj
 0001:00013abf       ?createObject@XMLUri@xercesc_3_1@@SAPAVXSerializable@2@PAVMemoryManager@2@@Z 12014abf f   XMLUri.obj
 0001:00013ae2       ?getProtoType@XMLUri@xercesc_3_1@@UBEPAVXProtoType@2@XZ 12014ae2 f   XMLUri.obj
 0001:00013ae8       ?serialize@XMLUri@xercesc_3_1@@UAEXAAVXSerializeEngine@2@@Z 12014ae8 f   XMLUri.obj
 0001:00013c1c       ??0XMLUri@xercesc_3_1@@QAE@QAVMemoryManager@1@@Z 12014c1c f   XMLUri.obj
 0001:00013c4f       ??_EXMLURL@xercesc_3_1@@UAEPAXI@Z 12014c4f f i XMLURL.obj
 0001:00013ceb       ?lookupByName@XMLURL@xercesc_3_1@@SA?AW4Protocols@12@QB_W@Z 12014ceb f   XMLURL.obj
 0001:00013d23       ??0XMLURL@xercesc_3_1@@QAE@QAVMemoryManager@1@@Z 12014d23 f   XMLURL.obj
 0001:00013d5c       ??0XMLURL@xercesc_3_1@@QAE@QB_W0QAVMemoryManager@1@@Z 12014d5c f   XMLURL.obj
 0001:00013ddf       ??0XMLURL@xercesc_3_1@@QAE@QB_WQBDQAVMemoryManager@1@@Z 12014ddf f   XMLURL.obj
 0001:00013e88       ??0XMLURL@xercesc_3_1@@QAE@ABV01@QB_W@Z 12014e88 f   XMLURL.obj
 0001:00013f0e       ??0XMLURL@xercesc_3_1@@QAE@ABV01@QBD@Z 12014f0e f   XMLURL.obj
 0001:00013fb8       ??0XMLURL@xercesc_3_1@@QAE@QB_WQAVMemoryManager@1@@Z 12014fb8 f   XMLURL.obj
 0001:00014038       ??0XMLURL@xercesc_3_1@@QAE@QBDQAVMemoryManager@1@@Z 12015038 f   XMLURL.obj
 0001:000140de       ??0XMLURL@xercesc_3_1@@QAE@ABV01@@Z 120150de f   XMLURL.obj
 0001:000141cc       ??1XMLURL@xercesc_3_1@@UAE@XZ 120151cc f   XMLURL.obj
 0001:000141d7       ??4XMLURL@xercesc_3_1@@QAEAAV01@ABV01@@Z 120151d7 f   XMLURL.obj
 0001:00014271       ??8XMLURL@xercesc_3_1@@QBE_NABV01@@Z 12015271 f   XMLURL.obj
 0001:000142ae       ?getPortNum@XMLURL@xercesc_3_1@@QBEIXZ 120152ae f   XMLURL.obj
 0001:000142ca       ?getProtocolName@XMLURL@xercesc_3_1@@QBEPB_WXZ 120152ca f   XMLURL.obj
 0001:0001430d       ?setURL@XMLURL@xercesc_3_1@@QAEXQB_W@Z 1201530d f   XMLURL.obj
 0001:00014327       ?setURL@XMLURL@xercesc_3_1@@QAEXQB_W0@Z 12015327 f   XMLURL.obj
 0001:000143f7       ?setURL@XMLURL@xercesc_3_1@@QAE_NQB_W0AAV12@@Z 120153f7 f   XMLURL.obj
 0001:000144cd       ?setURL@XMLURL@xercesc_3_1@@QAEXABV12@QB_W@Z 120154cd f   XMLURL.obj
 0001:00014504       ?isRelative@XMLURL@xercesc_3_1@@QBE_NXZ 12015504 f   XMLURL.obj
 0001:0001451c       ?hasInvalidChar@XMLURL@xercesc_3_1@@QBE_NXZ 1201551c f   XMLURL.obj
 0001:0001451c       ?getDeclaredInIntSubset@DTDEntityDecl@xercesc_3_1@@UBE_NXZ 1201551c f   XMLGrammarPoolImpl.obj
 0001:00014520       ?makeNewStream@XMLURL@xercesc_3_1@@QBEPAVBinInputStream@2@XZ 12015520 f   XMLURL.obj
 0001:00014733       ?makeRelativeTo@XMLURL@xercesc_3_1@@QAEXQB_W@Z 12015733 f   XMLURL.obj
 0001:000147b3       ?makeRelativeTo@XMLURL@xercesc_3_1@@QAEXABV12@@Z 120157b3 f   XMLURL.obj
 0001:000147d3       ?buildFullText@XMLURL@xercesc_3_1@@AAEXXZ 120157d3 f   XMLURL.obj
 0001:000149ac       ?cleanUp@XMLURL@xercesc_3_1@@AAEXXZ 120159ac f   XMLURL.obj
 0001:00014a22       ?conglomerateWithBase@XMLURL@xercesc_3_1@@AAE_NABV12@_N@Z 12015a22 f   XMLURL.obj
 0001:00014c0a       ?parse@XMLURL@xercesc_3_1@@AAEXQB_W@Z 12015c0a f   XMLURL.obj
 0001:0001510a       ?parse@XMLURL@xercesc_3_1@@SA_NQB_WAAV12@@Z 1201610a f   XMLURL.obj
 0001:0001548c       ??_EXMLUTF16Transcoder@xercesc_3_1@@UAEPAXI@Z 1201648c f i XMLUTF16Transcoder.obj
 0001:000154dd       ??0XMLUTF16Transcoder@xercesc_3_1@@QAE@QB_WK_NQAVMemoryManager@1@@Z 120164dd f   XMLUTF16Transcoder.obj
 0001:00015504       ??1XMLUTF16Transcoder@xercesc_3_1@@UAE@XZ 12016504 f   XMLUTF16Transcoder.obj
 0001:0001550f       ?transcodeFrom@XMLUTF16Transcoder@xercesc_3_1@@UAEKQBEKQA_WKAAKQAE@Z 1201650f f   XMLUTF16Transcoder.obj
 0001:00015578       ?transcodeTo@XMLUTF16Transcoder@xercesc_3_1@@UAEKQB_WKQAEKAAKW4UnRepOpts@XMLTranscoder@2@@Z 12016578 f   XMLUTF16Transcoder.obj
 0001:000155cf       ??_EXMLUTF8Transcoder@xercesc_3_1@@UAEPAXI@Z 120165cf f i XMLUTF8Transcoder.obj
 0001:00015620       ??0XMLUTF8Transcoder@xercesc_3_1@@QAE@QB_WKQAVMemoryManager@1@@Z 12016620 f   XMLUTF8Transcoder.obj
 0001:00015641       ??1XMLUTF8Transcoder@xercesc_3_1@@UAE@XZ 12016641 f   XMLUTF8Transcoder.obj
 0001:0001564c       ?transcodeFrom@XMLUTF8Transcoder@xercesc_3_1@@UAEKQBEKQA_WKAAKQAE@Z 1201664c f   XMLUTF8Transcoder.obj
 0001:00015b9c       ?transcodeTo@XMLUTF8Transcoder@xercesc_3_1@@UAEKQB_WKQAEKAAKW4UnRepOpts@XMLTranscoder@2@@Z 12016b9c f   XMLUTF8Transcoder.obj
 0001:00015da0       ?canTranscodeTo@XMLUTF8Transcoder@xercesc_3_1@@UAE_NI@Z 12016da0 f   XMLUTF8Transcoder.obj
 0001:00015db2       ??0XMLWin1252Transcoder@xercesc_3_1@@QAE@QB_WKQAVMemoryManager@1@@Z 12016db2 f   XMLWin1252Transcoder.obj
 0001:00015de2       ??_EWin32MsgLoader@xercesc_3_1@@UAEPAXI@Z 12016de2 f i Win32MsgLoader.obj
 0001:00015e2d       _DllMain@12                12016e2d f   Win32MsgLoader.obj
 0001:00015e44       ??0Win32MsgLoader@xercesc_3_1@@QAE@QB_W@Z 12016e44 f   Win32MsgLoader.obj
 0001:00015f0a       ??1Win32MsgLoader@xercesc_3_1@@UAE@XZ 12016f0a f   Win32MsgLoader.obj
 0001:00015f3f       ?loadMsg@Win32MsgLoader@xercesc_3_1@@UAE_NIQA_WK@Z 12016f3f f   Win32MsgLoader.obj
 0001:00015fca       ?loadMsg@Win32MsgLoader@xercesc_3_1@@UAE_NIQA_WKQB_W111QAVMemoryManager@2@@Z 12016fca f   Win32MsgLoader.obj
 0001:00016002       ?loadMsg@Win32MsgLoader@xercesc_3_1@@UAE_NIQA_WKQBD111QAVMemoryManager@2@@Z 12017002 f   Win32MsgLoader.obj
 0001:000160c6       ??_EWin32TransService@xercesc_3_1@@UAEPAXI@Z 120170c6 f i Win32TransService.obj
 0001:00016111       ??_EWin32Transcoder@xercesc_3_1@@UAEPAXI@Z 12017111 f i Win32TransService.obj
 0001:00016162       ??_EWin32LCPTranscoder@xercesc_3_1@@UAEPAXI@Z 12017162 f i Win32TransService.obj
 0001:000161ae       ??0CPMapEntry@xercesc_3_1@@QAE@QBDIPAVMemoryManager@1@@Z 120171ae f   Win32TransService.obj
 0001:00016219       ??0Win32TransService@xercesc_3_1@@QAE@PAVMemoryManager@1@@Z 12017219 f   Win32TransService.obj
 0001:000166c8       ??1Win32TransService@xercesc_3_1@@UAE@XZ 120176c8 f   Win32TransService.obj
 0001:00016712       ?compareIString@Win32TransService@xercesc_3_1@@UAEHQB_W0@Z 12017712 f   Win32TransService.obj
 0001:00016727       ?compareNIString@Win32TransService@xercesc_3_1@@UAEHQB_W0K@Z 12017727 f   Win32TransService.obj
 0001:00016740       ?getId@Win32TransService@xercesc_3_1@@UBEPB_WXZ 12017740 f   Win32TransService.obj
 0001:00016746       ?makeNewLCPTranscoder@Win32TransService@xercesc_3_1@@UAEPAVXMLLCPTranscoder@2@PAVMemoryManager@2@@Z 12017746 f   Win32TransService.obj
 0001:00016767       ?upperCase@Win32TransService@xercesc_3_1@@UAEXQA_W@Z 12017767 f   Win32TransService.obj
 0001:00016778       ?lowerCase@Win32TransService@xercesc_3_1@@UAEXQA_W@Z 12017778 f   Win32TransService.obj
 0001:00016789       ?makeNewXMLTranscoder@Win32TransService@xercesc_3_1@@MAEPAVXMLTranscoder@2@QB_WAAW4Codes@XMLTransService@2@KQAVMemoryManager@2@@Z 12017789 f   Win32TransService.obj
 0001:00016844       ?getFlagsValue@xercesc_3_1@@YAKIK@Z 12017844 f i Win32TransService.obj
 0001:0001687e       ??0Win32Transcoder@xercesc_3_1@@QAE@QB_WIKQAVMemoryManager@1@@Z 1201787e f   Win32TransService.obj
 0001:000168d6       ??1Win32Transcoder@xercesc_3_1@@UAE@XZ 120178d6 f   Win32TransService.obj
 0001:000168e1       ?transcodeFrom@Win32Transcoder@xercesc_3_1@@UAEKQBEKQA_WKAAKQAE@Z 120178e1 f   Win32TransService.obj
 0001:00016a92       ?transcodeTo@Win32Transcoder@xercesc_3_1@@UAEKQB_WKQAEKAAKW4UnRepOpts@XMLTranscoder@2@@Z 12017a92 f   Win32TransService.obj
 0001:00016bda       ?canTranscodeTo@Win32Transcoder@xercesc_3_1@@UAE_NI@Z 12017bda f   Win32TransService.obj
 0001:00016c63       ??0Win32LCPTranscoder@xercesc_3_1@@QAE@XZ 12017c63 f   Win32TransService.obj
 0001:00016c6c       ?calcRequiredSize@Win32LCPTranscoder@xercesc_3_1@@UAEKQBDQAVMemoryManager@2@@Z 12017c6c f   Win32TransService.obj
 0001:00016c8a       ?calcRequiredSize@Win32LCPTranscoder@xercesc_3_1@@UAEKQB_WQAVMemoryManager@2@@Z 12017c8a f   Win32TransService.obj
 0001:00016ca9       ?transcode@Win32LCPTranscoder@xercesc_3_1@@UAEPADQB_WQAVMemoryManager@2@@Z 12017ca9 f   Win32TransService.obj
 0001:00016d0e       ?transcode@Win32LCPTranscoder@xercesc_3_1@@UAEPA_WQBDQAVMemoryManager@2@@Z 12017d0e f   Win32TransService.obj
 0001:00016d87       ?transcode@Win32LCPTranscoder@xercesc_3_1@@UAE_NQBDQA_WKQAVMemoryManager@2@@Z 12017d87 f   Win32TransService.obj
 0001:00016dc4       ?transcode@Win32LCPTranscoder@xercesc_3_1@@UAE_NQB_WQADKQAVMemoryManager@2@@Z 12017dc4 f   Win32TransService.obj
 0001:00016e17       ??0?$RefHashTableOf@VCPMapEntry@xercesc_3_1@@UStringHasher@2@@xercesc_3_1@@QAE@KQAVMemoryManager@1@@Z 12017e17 f i Win32TransService.obj
 0001:00016e60       ?put@?$RefHashTableOf@VCPMapEntry@xercesc_3_1@@UStringHasher@2@@xercesc_3_1@@QAEXPAXQAVCPMapEntry@2@@Z 12017e60 f i Win32TransService.obj
 0001:00016ef2       ?removeAll@?$RefHashTableOf@VCPMapEntry@xercesc_3_1@@UStringHasher@2@@xercesc_3_1@@QAEXXZ 12017ef2 f i Win32TransService.obj
 0001:00016f64       ??0CharBuffer@xercesc_3_1@@QAE@KPAVMemoryManager@1@@Z 12017f64 f i BinHTTPInputStreamCommon.obj
 0001:00016f8a       ??1CharBuffer@xercesc_3_1@@QAE@XZ 12017f8a f i BinHTTPInputStreamCommon.obj
 0001:00016f97       ?getRawBuffer@CharBuffer@xercesc_3_1@@QBEPBDXZ 12017f97 f i BinHTTPInputStreamCommon.obj
 0001:00016f97       ?getRawBuffer@CharBuffer@xercesc_3_1@@QAEPADXZ 12017f97 f i BinHTTPInputStreamCommon.obj
 0001:00016fa3       ?Reset@?$BaseRefVectorEnumerator@VSchemaInfo@xercesc_3_1@@@xercesc_3_1@@UAEXXZ 12017fa3 f i IGXMLScanner.obj
 0001:00016fa3       ?Reset@?$ValueVectorEnumerator@H@xercesc_3_1@@UAEXXZ 12017fa3 f i DOMDocumentImpl.obj
 0001:00016fa3       ?reset@CharBuffer@xercesc_3_1@@QAEXXZ 12017fa3 f i BinHTTPInputStreamCommon.obj
 0001:00016fa3       ?reset@PSVIAttributeList@xercesc_3_1@@QAEXXZ 12017fa3 f i PSVIAttributeList.obj
 0001:00016fa8       ?append@CharBuffer@xercesc_3_1@@QAEXPBD@Z 12017fa8 f i BinHTTPInputStreamCommon.obj
 0001:00016ff0       ?append@CharBuffer@xercesc_3_1@@QAEXPBDK@Z 12017ff0 f i BinHTTPInputStreamCommon.obj
 0001:00017030       ?appendDecimalNumber@CharBuffer@xercesc_3_1@@QAEXI@Z 12018030 f i BinHTTPInputStreamCommon.obj
 0001:00017077       ?set@CharBuffer@xercesc_3_1@@QAEXPBD@Z 12018077 f i BinHTTPInputStreamCommon.obj
 0001:00017084       ?ensureCapacity@CharBuffer@xercesc_3_1@@AAEXK@Z 12018084 f i BinHTTPInputStreamCommon.obj
 0001:000170cc       ??_FCharBuffer@xercesc_3_1@@QAEXXZ 120180cc f i BinHTTPInputStreamCommon.obj
 0001:000170f1       ??_EBinHTTPInputStreamCommon@xercesc_3_1@@MAEPAXI@Z 120180f1 f i BinHTTPInputStreamCommon.obj
 0001:0001713c       ?curPos@BinHTTPInputStreamCommon@xercesc_3_1@@UBE_KXZ 1201813c f i BinHTTPInputStreamCommon.obj
 0001:00017142       ??0BinHTTPInputStreamCommon@xercesc_3_1@@IAE@PAVMemoryManager@1@@Z 12018142 f   BinHTTPInputStreamCommon.obj
 0001:00017190       ??1BinHTTPInputStreamCommon@xercesc_3_1@@MAE@XZ 12018190 f   BinHTTPInputStreamCommon.obj
 0001:000171da       ?createHTTPRequest@BinHTTPInputStreamCommon@xercesc_3_1@@AAEXABVXMLURL@2@PBVXMLNetHTTPInfo@2@AAVCharBuffer@2@@Z 120181da f   BinHTTPInputStreamCommon.obj
 0001:0001757e       ?findHeader@BinHTTPInputStreamCommon@xercesc_3_1@@IAEPA_WPBD@Z 1201857e f   BinHTTPInputStreamCommon.obj
 0001:0001761f       ?sendRequest@BinHTTPInputStreamCommon@xercesc_3_1@@IAEHABVXMLURL@2@PBVXMLNetHTTPInfo@2@@Z 1201861f f   BinHTTPInputStreamCommon.obj
 0001:000179b6       ?getContentType@BinHTTPInputStreamCommon@xercesc_3_1@@UBEPB_WXZ 120189b6 f   BinHTTPInputStreamCommon.obj
 0001:000179d1       ?readBytes@BinHTTPInputStreamCommon@xercesc_3_1@@UAEKQAEK@Z 120189d1 f   BinHTTPInputStreamCommon.obj
 0001:00017a51       ??_EBinHTTPURLInputStream@xercesc_3_1@@UAEPAXI@Z 12018a51 f i BinHTTPURLInputStream.obj
 0001:00017a9c       ??1SocketJanitor@xercesc_3_1@@QAE@XZ 12018a9c f i BinHTTPURLInputStream.obj
 0001:00017aa4       ?reset@SocketJanitor@xercesc_3_1@@QAEXPAI@Z 12018aa4 f i BinHTTPURLInputStream.obj
 0001:00017ace       ?Initialize@BinHTTPURLInputStream@xercesc_3_1@@CAXQAVMemoryManager@2@@Z 12018ace f   BinHTTPURLInputStream.obj
 0001:00017cf2       ?Cleanup@BinHTTPURLInputStream@xercesc_3_1@@SAXXZ 12018cf2 f   BinHTTPURLInputStream.obj
 0001:00017d93       ??0BinHTTPURLInputStream@xercesc_3_1@@QAE@ABVXMLURL@1@PBVXMLNetHTTPInfo@1@@Z 12018d93 f   BinHTTPURLInputStream.obj
 0001:000182a6       ??1BinHTTPURLInputStream@xercesc_3_1@@UAE@XZ 120192a6 f   BinHTTPURLInputStream.obj
 0001:000182e6       ?send@BinHTTPURLInputStream@xercesc_3_1@@UAE_NPBDK@Z 120192e6 f   BinHTTPURLInputStream.obj
 0001:00018323       ?receive@BinHTTPURLInputStream@xercesc_3_1@@UAEHPADK@Z 12019323 f   BinHTTPURLInputStream.obj
 0001:00018343       ??_EWinSockNetAccessor@xercesc_3_1@@UAEPAXI@Z 12019343 f i WinSockNetAccessor.obj
 0001:0001838e       ??0WinSockNetAccessor@xercesc_3_1@@QAE@XZ 1201938e f   WinSockNetAccessor.obj
 0001:00018397       ??1WinSockNetAccessor@xercesc_3_1@@UAE@XZ 12019397 f   WinSockNetAccessor.obj
 0001:000183c3       ?makeNew@WinSockNetAccessor@xercesc_3_1@@UAEPAVBinInputStream@2@ABVXMLURL@2@PBVXMLNetHTTPInfo@2@@Z 120193c3 f   WinSockNetAccessor.obj
 0001:00018459       ??_EASCIIRangeFactory@xercesc_3_1@@UAEPAXI@Z 12019459 f i ASCIIRangeFactory.obj
 0001:00018459       ??_EBlockRangeFactory@xercesc_3_1@@UAEPAXI@Z 12019459 f i BlockRangeFactory.obj
 0001:00018459       ??_EXMLRangeFactory@xercesc_3_1@@UAEPAXI@Z 12019459 f i XMLRangeFactory.obj
 0001:00018459       ??_ERangeFactory@xercesc_3_1@@UAEPAXI@Z 12019459 f i RangeFactory.obj
 0001:00018459       ??_EUnicodeRangeFactory@xercesc_3_1@@UAEPAXI@Z 12019459 f i UnicodeRangeFactory.obj
 0001:000184a5       ?getChild@Token@xercesc_3_1@@UBEPAV12@K@Z 120194a5 f i ASCIIRangeFactory.obj
 0001:000184a5       ?getURIForPrefix@ValidationContext@xercesc_3_1@@UAEPB_WPA_W@Z 120194a5 f i XMLAttr.obj
 0001:000184aa       ?getChar@Token@xercesc_3_1@@UBEHXZ 120194aa f i ASCIIRangeFactory.obj
 0001:000184aa       ?getMax@Token@xercesc_3_1@@UBEHXZ 120194aa f i ASCIIRangeFactory.obj
 0001:000184aa       ?getMin@Token@xercesc_3_1@@UBEHXZ 120194aa f i ASCIIRangeFactory.obj
 0001:000184ae       ?setBlockDefault@SchemaInfo@xercesc_3_1@@QAEXH@Z 120194ae f i IGXMLScanner.obj
 0001:000184ae       ?setType@XMLAttr@xercesc_3_1@@QAEXW4AttTypes@XMLAttDef@2@@Z 120194ae f i XMLAttr.obj
 0001:000184ae       ?setId@XMLNotationDecl@xercesc_3_1@@QAEXK@Z 120194ae f i XMLDTDDescription.obj
 0001:000184ae       ?setDefaultType@XMLAttDef@xercesc_3_1@@QAEXW4DefAttTypes@12@@Z 120194ae f i XMLAttDef.obj
 0001:000184ae       ?setTokenType@Token@xercesc_3_1@@QAEXW4tokType@12@@Z 120194ae f i ASCIIRangeFactory.obj
 0001:000184ae       ?setId@XMLEntityDecl@xercesc_3_1@@QAEXK@Z 120194ae f i XMLDTDDescription.obj
 0001:000184ae       ?setByteStream@DOMLSOutputImpl@xercesc_3_1@@UAEXPAVXMLFormatTarget@2@@Z 120194ae f i DOMLSOutputImpl.obj
 0001:000184ae       ?setOwnerDocument@DOMParentNode@xercesc_3_1@@QAEXPAVDOMDocument@2@@Z 120194ae f i DOMParentNode.obj
 0001:000184ae       ?setEntityExpansionLimit@SecurityManager@xercesc_3_1@@UAEXK@Z 120194ae f i XMLValidator.obj
 0001:000184ae       ?setMatcherStack@FieldActivator@xercesc_3_1@@QAEXQAVXPathMatcherStack@2@@Z 120194ae f i FieldActivator.obj
 0001:000184bb       ?isSet@Token@xercesc_3_1@@AAE_NHI@Z 120194bb f i ASCIIRangeFactory.obj
 0001:000184d0       ?addChild@Token@xercesc_3_1@@UAEXQAV12@QAVTokenFactory@2@@Z 120194d0 f i ASCIIRangeFactory.obj
 0001:00018501       ?addRange@Token@xercesc_3_1@@UAEXHH@Z 12019501 f i ASCIIRangeFactory.obj
 0001:00018532       ?mergeRanges@Token@xercesc_3_1@@UAEXQBV12@@Z 12019532 f i ASCIIRangeFactory.obj
 0001:00018563       ?sortRanges@Token@xercesc_3_1@@UAEXXZ 12019563 f i ASCIIRangeFactory.obj
 0001:00018594       ?compactRanges@Token@xercesc_3_1@@UAEXXZ 12019594 f i ASCIIRangeFactory.obj
 0001:000185c5       ?subtractRanges@Token@xercesc_3_1@@UAEXQAVRangeToken@2@@Z 120195c5 f i ASCIIRangeFactory.obj
 0001:000185f6       ?intersectRanges@Token@xercesc_3_1@@UAEXQAVRangeToken@2@@Z 120195f6 f i ASCIIRangeFactory.obj
 0001:00018627       ??_FTokenFactory@xercesc_3_1@@QAEXXZ 12019627 f i ASCIIRangeFactory.obj
 0001:00018633       ?getRange@TokenFactory@xercesc_3_1@@QAEPAVRangeToken@2@QB_W_N@Z 12019633 f i ASCIIRangeFactory.obj
 0001:00018647       ?setElemId@DTDAttDef@xercesc_3_1@@QAEXK@Z 12019647 f i XMLElementDecl.obj
 0001:00018647       ?setSchemaTypeInfo@DOMAttrImpl@xercesc_3_1@@UAEXPBVDOMTypeInfoImpl@2@@Z 12019647 f i DOMAttrImpl.obj
 0001:00018647       ?setFinalSet@SchemaElementDecl@xercesc_3_1@@QAEXH@Z 12019647 f i XMLElementDecl.obj
 0001:00018647       ?setEnclosingCTDefinition@XSAttributeDeclaration@xercesc_3_1@@AAEXQAVXSComplexTypeDefinition@2@@Z 12019647 f i PSVIAttributeList.obj
 0001:00018647       ?setEnclosingCTDefinition@XSElementDeclaration@xercesc_3_1@@AAEXQAVXSComplexTypeDefinition@2@@Z 12019647 f i PSVIElement.obj
 0001:00018647       ?setElemId@SchemaAttDef@xercesc_3_1@@QAEXK@Z 12019647 f i XMLElementDecl.obj
 0001:00018647       ?setAttGroupInfoRegistry@SchemaGrammar@xercesc_3_1@@QAEXQAV?$RefHashTableOf@VXercesAttGroupInfo@xercesc_3_1@@UStringHasher@2@@2@@Z 12019647 f i XMLGrammarPoolImpl.obj
 0001:00018647       ?setMaxOccurs@ContentSpecNode@xercesc_3_1@@QAEXH@Z 12019647 f i XMLGrammarPoolImpl.obj
 0001:00018647       ?setErrorHandler@SAX2XMLFilterImpl@xercesc_3_1@@UAEXQAVErrorHandler@2@@Z 12019647 f i SAX2XMLFilterImpl.obj
 0001:00018647       ?setCaseInsensitiveToken@RangeToken@xercesc_3_1@@QAEXPAV12@@Z 12019647 f i ASCIIRangeFactory.obj
 0001:00018654       ?createMap@RangeToken@xercesc_3_1@@QAEXXZ 12019654 f i ASCIIRangeFactory.obj
 0001:0001865f       ?empty@RangeToken@xercesc_3_1@@QBE_NXZ 1201965f f i ASCIIRangeFactory.obj
 0001:00018668       ?getRangeToken@RangeTokenElemMap@xercesc_3_1@@QBEPAVRangeToken@2@_N@Z 12019668 f i ASCIIRangeFactory.obj
 0001:0001867d       ?setRangeToken@RangeTokenElemMap@xercesc_3_1@@QAEXQAVRangeToken@2@_N@Z 1201967d f i ASCIIRangeFactory.obj
 0001:00018695       ??0ASCIIRangeFactory@xercesc_3_1@@QAE@XZ 12019695 f   ASCIIRangeFactory.obj
 0001:000186a4       ??1UnicodeRangeFactory@xercesc_3_1@@UAE@XZ 120196a4 f   UnicodeRangeFactory.obj
 0001:000186a4       ??1RangeFactory@xercesc_3_1@@UAE@XZ 120196a4 f   RangeFactory.obj
 0001:000186a4       ??1ASCIIRangeFactory@xercesc_3_1@@UAE@XZ 120196a4 f   ASCIIRangeFactory.obj
 0001:000186a4       ??1BlockRangeFactory@xercesc_3_1@@UAE@XZ 120196a4 f   BlockRangeFactory.obj
 0001:000186a4       ??1XMLRangeFactory@xercesc_3_1@@UAE@XZ 120196a4 f   XMLRangeFactory.obj
 0001:000186ab       ?buildRanges@ASCIIRangeFactory@xercesc_3_1@@MAEXPAVRangeTokenMap@2@@Z 120196ab f   ASCIIRangeFactory.obj
 0001:00018929       ?initializeKeywordMap@ASCIIRangeFactory@xercesc_3_1@@UAEXPAVRangeTokenMap@2@@Z 12019929 f   ASCIIRangeFactory.obj
 0001:00018991       ??0BlockRangeFactory@xercesc_3_1@@QAE@XZ 12019991 f   BlockRangeFactory.obj
 0001:000189a0       ?buildRanges@BlockRangeFactory@xercesc_3_1@@MAEXPAVRangeTokenMap@2@@Z 120199a0 f   BlockRangeFactory.obj
 0001:00018ae4       ?initializeKeywordMap@BlockRangeFactory@xercesc_3_1@@UAEXPAVRangeTokenMap@2@@Z 12019ae4 f   BlockRangeFactory.obj
 0001:00018b1e       ??0BMPattern@xercesc_3_1@@QAE@QB_W_NQAVMemoryManager@1@@Z 12019b1e f   BMPattern.obj
 0001:00018b86       ??0BMPattern@xercesc_3_1@@QAE@QB_WH_NQAVMemoryManager@1@@Z 12019b86 f   BMPattern.obj
 0001:00018bed       ??1BMPattern@xercesc_3_1@@QAE@XZ 12019bed f   BMPattern.obj
 0001:00018bf2       ?matches@BMPattern@xercesc_3_1@@QBEHQB_WKK@Z 12019bf2 f   BMPattern.obj
 0001:00018ce5       ?initialize@BMPattern@xercesc_3_1@@AAEXXZ 12019ce5 f   BMPattern.obj
 0001:00018dd0       ?cleanUp@BMPattern@xercesc_3_1@@AAEXXZ 12019dd0 f   BMPattern.obj
 0001:00018df6       ??_ECharToken@xercesc_3_1@@UAEPAXI@Z 12019df6 f i CharToken.obj
 0001:00018e42       ?match@CharToken@xercesc_3_1@@QAE_NH@Z 12019e42 f i CharToken.obj
 0001:00018e54       ??0CharToken@xercesc_3_1@@QAE@W4tokType@Token@1@HQAVMemoryManager@1@@Z 12019e54 f   CharToken.obj
 0001:00018e75       ??1ConcatToken@xercesc_3_1@@UAE@XZ 12019e75 f   ConcatToken.obj
 0001:00018e75       ??1ClosureToken@xercesc_3_1@@UAE@XZ 12019e75 f   ClosureToken.obj
 0001:00018e75       ??1Token@xercesc_3_1@@UAE@XZ 12019e75 f   Token.obj
 0001:00018e75       ??1CharToken@xercesc_3_1@@UAE@XZ 12019e75 f   CharToken.obj
 0001:00018e75       ??1ParenToken@xercesc_3_1@@UAE@XZ 12019e75 f   ParenToken.obj
 0001:00018e7c       ??_EClosureToken@xercesc_3_1@@UAEPAXI@Z 12019e7c f i ClosureToken.obj
 0001:00018ec8       ?size@ParenToken@xercesc_3_1@@UBEKXZ 12019ec8 f i ParenToken.obj
 0001:00018ec8       ?getGrammarType@SchemaGrammar@xercesc_3_1@@UBE?AW4GrammarType@Grammar@2@XZ 12019ec8 f i XMLGrammarPoolImpl.obj
 0001:00018ec8       ?getObjectType@DTDElementDecl@xercesc_3_1@@UBE?AW4objectType@XMLElementDecl@2@XZ 12019ec8 f i DTDElementDecl.obj
 0001:00018ec8       ?getType@IC_Key@xercesc_3_1@@UBEFXZ 12019ec8 f i TraverseSchema.obj
 0001:00018ec8       ?getNodeType@DOMElementImpl@xercesc_3_1@@UBE?AW4NodeType@DOMNode@2@XZ 12019ec8 f i DOMElementImpl.obj
 0001:00018ec8       ?size@ClosureToken@xercesc_3_1@@UBEKXZ 12019ec8 f i ClosureToken.obj
 0001:00018ec8       ?getGrammarType@XMLSchemaDescription@xercesc_3_1@@UBE?AW4GrammarType@Grammar@2@XZ 12019ec8 f i XMLGrammarPoolImpl.obj
 0001:00018ecc       ?getChild@ClosureToken@xercesc_3_1@@UBEPAVToken@2@K@Z 12019ecc f i ClosureToken.obj
 0001:00018ed2       ?setDocTypeHandler@DTDScanner@xercesc_3_1@@QAEXQAVDocTypeHandler@2@@Z 12019ed2 f i DGXMLScanner.obj
 0001:00018ed2       ?setMessage@DOMErrorImpl@xercesc_3_1@@QAEXQB_W@Z 12019ed2 f i DOMLSParserImpl.obj
 0001:00018ed2       ?setDerivedBy@ComplexTypeInfo@xercesc_3_1@@QAEXH@Z 12019ed2 f i XMLElementDecl.obj
 0001:00018ed2       ?setNextOp@Op@xercesc_3_1@@QAEXQBV12@@Z 12019ed2 f i Op.obj
 0001:00018ed2       ?setCreateReason@XMLElementDecl@xercesc_3_1@@QAEXW4CreateReasons@12@@Z 12019ed2 f i XMLDTDDescription.obj
 0001:00018ed2       ?setMin@ClosureToken@xercesc_3_1@@UAEXH@Z 12019ed2 f i ClosureToken.obj
 0001:00018ed2       ?setCreateReason@XMLAttDef@xercesc_3_1@@QAEXW4CreateReasons@12@@Z 12019ed2 f i XMLAttDef.obj
 0001:00018ed2       ?setEntityHandler@ReaderMgr@xercesc_3_1@@QAEXQAVXMLEntityHandler@2@@Z 12019ed2 f i XMLValidator.obj
 0001:00018ed2       ?setUnRepFlags@XMLFormatter@xercesc_3_1@@QAEXW4UnRepFlags@12@@Z 12019ed2 f i LocalFileFormatTarget.obj
 0001:00018ed2       ?setSchemaType@DOMConfigurationImpl@xercesc_3_1@@QAEXPB_W@Z 12019ed2 f i DOMConfigurationImpl.obj
 0001:00018ed2       ?setOptions@RegxParser@xercesc_3_1@@QAEXH@Z 12019ed2 f i ParserForXMLSchema.obj
 0001:00018edf       ??0ClosureToken@xercesc_3_1@@QAE@W4tokType@Token@1@QAV31@QAVMemoryManager@1@@Z 12019edf f   ClosureToken.obj
 0001:00018f08       ??_EConcatToken@xercesc_3_1@@UAEPAXI@Z 12019f08 f i ConcatToken.obj
 0001:00018f08       ??_EParenToken@xercesc_3_1@@UAEPAXI@Z 12019f08 f i ParenToken.obj
 0001:00018f54       ?getCurrentGrammarType@XMLScanner@xercesc_3_1@@UBE?AW4GrammarType@Grammar@2@XZ 12019f54 f i XMLValidator.obj
 0001:00018f54       ?getType@IC_KeyRef@xercesc_3_1@@UBEFXZ 12019f54 f i XSIDCDefinition.obj
 0001:00018f54       ?getNodeType@DOMAttrImpl@xercesc_3_1@@UBE?AW4NodeType@DOMNode@2@XZ 12019f54 f i DOMAttrImpl.obj
 0001:00018f54       ?size@ConcatToken@xercesc_3_1@@UBEKXZ 12019f54 f i ConcatToken.obj
 0001:00018f58       ?getChild@ConcatToken@xercesc_3_1@@UBEPAVToken@2@K@Z 12019f58 f i ConcatToken.obj
 0001:00018f6d       ??0ConcatToken@xercesc_3_1@@QAE@QAVToken@1@0QAVMemoryManager@1@@Z 12019f6d f   ConcatToken.obj
 0001:00018f95       ??_FMatch@xercesc_3_1@@QAEXXZ 12019f95 f i Match.obj
 0001:00018fa1       ??_EMatch@xercesc_3_1@@UAEPAXI@Z 12019fa1 f i Match.obj
 0001:00018ff2       ?getNoGroups@Match@xercesc_3_1@@QBEHXZ 12019ff2 f i Match.obj
 0001:0001902b       ?getStartPos@Match@xercesc_3_1@@QBEHH@Z 1201a02b f i Match.obj
 0001:0001909c       ?getEndPos@Match@xercesc_3_1@@QBEHH@Z 1201a09c f i Match.obj
 0001:00019113       ?setStartPos@Match@xercesc_3_1@@QAEXHH@Z 1201a113 f i Match.obj
 0001:0001918f       ?setEndPos@Match@xercesc_3_1@@QAEXHH@Z 1201a18f f i Match.obj
 0001:0001920b       ??0Match@xercesc_3_1@@QAE@QAVMemoryManager@1@@Z 1201a20b f   Match.obj
 0001:0001922e       ??0Match@xercesc_3_1@@QAE@ABV01@@Z 1201a22e f   Match.obj
 0001:0001925a       ??4Match@xercesc_3_1@@QAEAAV01@ABV01@@Z 1201a25a f   Match.obj
 0001:0001926f       ??1Match@xercesc_3_1@@UAE@XZ 1201a26f f   Match.obj
 0001:0001927a       ?setNoGroups@Match@xercesc_3_1@@QAEXH@Z 1201a27a f   Match.obj
 0001:000192df       ?initialize@Match@xercesc_3_1@@AAEXABV12@@Z 1201a2df f   Match.obj
 0001:00019341       ?cleanUp@Match@xercesc_3_1@@AAEXXZ 1201a341 f   Match.obj
 0001:00019364       ??1RangeOp@xercesc_3_1@@UAE@XZ 1201a364 f i Op.obj
 0001:00019364       ??1ChildOp@xercesc_3_1@@UAE@XZ 1201a364 f i Op.obj
 0001:00019364       ??1CharOp@xercesc_3_1@@UAE@XZ 1201a364 f i Op.obj
 0001:00019364       ??1Op@xercesc_3_1@@UAE@XZ  1201a364 f i Op.obj
 0001:00019364       ??1ModifierOp@xercesc_3_1@@UAE@XZ 1201a364 f i Op.obj
 0001:0001936b       ??_EOp@xercesc_3_1@@UAEPAXI@Z 1201a36b f i Op.obj
 0001:000193b7       ??_ECharOp@xercesc_3_1@@UAEPAXI@Z 1201a3b7 f i Op.obj
 0001:000193b7       ??_ERangeOp@xercesc_3_1@@UAEPAXI@Z 1201a3b7 f i Op.obj
 0001:000193b7       ??_EChildOp@xercesc_3_1@@UAEPAXI@Z 1201a3b7 f i Op.obj
 0001:00019403       ??1UnionOp@xercesc_3_1@@UAE@XZ 1201a403 f i Op.obj
 0001:00019437       ??_EUnionOp@xercesc_3_1@@UAEPAXI@Z 1201a437 f i Op.obj
 0001:00019482       ??_EModifierOp@xercesc_3_1@@UAEPAXI@Z 1201a482 f i Op.obj
 0001:000194ce       ??1StringOp@xercesc_3_1@@UAE@XZ 1201a4ce f i Op.obj
 0001:00019500       ??_EStringOp@xercesc_3_1@@UAEPAXI@Z 1201a500 f i Op.obj
 0001:0001954b       ?setNameSpaceId@XMLNotationDecl@xercesc_3_1@@QAEXI@Z 1201a54b f i XMLDTDDescription.obj
 0001:0001954b       ?setSeverity@DOMErrorImpl@xercesc_3_1@@QAEXW4ErrorSeverity@DOMError@2@@Z 1201a54b f i DOMLSParserImpl.obj
 0001:0001954b       ?setByteStream@DOMLSInputImpl@xercesc_3_1@@UAEXPAVInputSource@2@@Z 1201a54b f i DOMLSInputImpl.obj
 0001:0001954b       ?setErrorReporter@XSDErrorReporter@xercesc_3_1@@QAEXQAVXMLErrorReporter@2@@Z 1201a54b f i IGXMLScanner.obj
 0001:0001954b       ?setScope@XercesGroupInfo@xercesc_3_1@@QAEXI@Z 1201a54b f i XMLGrammarPoolImpl.obj
 0001:0001954b       ?setContextType@XMLSchemaDescriptionImpl@xercesc_3_1@@UAEXW4ContextType@XMLSchemaDescription@2@@Z 1201a54b f i XMLSchemaDescriptionImpl.obj
 0001:0001954b       ?setType@XMLAttDef@xercesc_3_1@@QAEXW4AttTypes@12@@Z 1201a54b f i XMLAttDef.obj
 0001:0001954b       ?setErrorReporter@XMLValidator@xercesc_3_1@@QAEXQAVXMLErrorReporter@2@@Z 1201a54b f i XMLValidator.obj
 0001:0001954b       ?setOpType@Op@xercesc_3_1@@QAEXW4opType@12@@Z 1201a54b f i Op.obj
 0001:0001954b       ?setErrorHandler@DOMConfigurationImpl@xercesc_3_1@@QAEXPAVDOMErrorHandler@2@@Z 1201a54b f i DOMConfigurationImpl.obj
 0001:0001954b       ?setFinalDefault@SchemaInfo@xercesc_3_1@@QAEXH@Z 1201a54b f i IGXMLScanner.obj
 0001:0001954b       ?setLowWaterMark@XMLScanner@xercesc_3_1@@QAEXK@Z 1201a54b f i XMLValidator.obj
 0001:00019558       ??0Op@xercesc_3_1@@IAE@W4opType@01@QAVMemoryManager@1@@Z 1201a558 f   Op.obj
 0001:00019577       ?getSize@Op@xercesc_3_1@@UBEKXZ 1201a577 f   Op.obj
 0001:000195a5       ?getData@Op@xercesc_3_1@@UBEHXZ 1201a5a5 f   Op.obj
 0001:000195d3       ?getData2@Op@xercesc_3_1@@UBEHXZ 1201a5d3 f   Op.obj
 0001:00019601       ?elementAt@Op@xercesc_3_1@@UBEPBV12@K@Z 1201a601 f   Op.obj
 0001:0001962f       ?getChild@Op@xercesc_3_1@@UBEPBV12@XZ 1201a62f f   Op.obj
 0001:0001965d       ?getLiteral@Op@xercesc_3_1@@UBEPB_WXZ 1201a65d f   Op.obj
 0001:0001968b       ?getToken@Op@xercesc_3_1@@UBEPBVToken@2@XZ 1201a68b f   Op.obj
 0001:000196b9       ??0CharOp@xercesc_3_1@@QAE@W4opType@Op@1@HQAVMemoryManager@1@@Z 1201a6b9 f   Op.obj
 0001:000196de       ??0UnionOp@xercesc_3_1@@QAE@W4opType@Op@1@KQAVMemoryManager@1@@Z 1201a6de f   Op.obj
 0001:00019739       ?getSize@UnionOp@xercesc_3_1@@UBEKXZ 1201a739 f   Op.obj
 0001:00019740       ?elementAt@UnionOp@xercesc_3_1@@UBEPBVOp@2@K@Z 1201a740 f   Op.obj
 0001:00019785       ?addElement@UnionOp@xercesc_3_1@@QAEXQAVOp@2@@Z 1201a785 f   Op.obj
 0001:00019791       ??0ChildOp@xercesc_3_1@@QAE@W4opType@Op@1@QAVMemoryManager@1@@Z 1201a791 f   Op.obj
 0001:000197b4       ??0ModifierOp@xercesc_3_1@@QAE@W4opType@Op@1@HHQAVMemoryManager@1@@Z 1201a7b4 f   Op.obj
 0001:000197de       ??0RangeOp@xercesc_3_1@@QAE@W4opType@Op@1@QBVToken@1@QAVMemoryManager@1@@Z 1201a7de f   Op.obj
 0001:00019803       ??0StringOp@xercesc_3_1@@QAE@W4opType@Op@1@QB_WQAVMemoryManager@1@@Z 1201a803 f   Op.obj
 0001:00019846       ??1?$BaseRefVectorOf@VOp@xercesc_3_1@@@xercesc_3_1@@UAE@XZ 1201a846 f i Op.obj
 0001:0001984d       ??0?$RefVectorOf@VOp@xercesc_3_1@@@xercesc_3_1@@QAE@K_NQAVMemoryManager@1@@Z 1201a84d f i Op.obj
 0001:000198a2       ??_E?$BaseRefVectorOf@VOp@xercesc_3_1@@@xercesc_3_1@@UAEPAXI@Z 1201a8a2 f i * CIL library *:* CIL module *
 0001:000198a2       ??_G?$BaseRefVectorOf@VOp@xercesc_3_1@@@xercesc_3_1@@UAEPAXI@Z 1201a8a2 f i Op.obj
 0001:000198c2       ??_G?$RefVectorOf@VOp@xercesc_3_1@@@xercesc_3_1@@UAEPAXI@Z 1201a8c2 f i Op.obj
 0001:000198c2       ??_E?$RefVectorOf@VOp@xercesc_3_1@@@xercesc_3_1@@UAEPAXI@Z 1201a8c2 f i * CIL library *:* CIL module *
 0001:0001992b       ??_FOpFactory@xercesc_3_1@@QAEXXZ 1201a92b f i OpFactory.obj
 0001:00019937       ?reset@OpFactory@xercesc_3_1@@QAEXXZ 1201a937 f i OpFactory.obj
 0001:0001993e       ??0OpFactory@xercesc_3_1@@QAE@QAVMemoryManager@1@@Z 1201a93e f   OpFactory.obj
 0001:00019989       ?createDotOp@OpFactory@xercesc_3_1@@QAEPAVOp@2@XZ 1201a989 f   OpFactory.obj
 0001:000199c4       ?createCharOp@OpFactory@xercesc_3_1@@QAEPAVCharOp@2@H@Z 1201a9c4 f   OpFactory.obj
 0001:00019a0e       ?createAnchorOp@OpFactory@xercesc_3_1@@QAEPAVCharOp@2@H@Z 1201aa0e f   OpFactory.obj
 0001:00019a58       ?createCaptureOp@OpFactory@xercesc_3_1@@QAEPAVCharOp@2@HQBVOp@2@@Z 1201aa58 f   OpFactory.obj
 0001:00019aa8       ?createUnionOp@OpFactory@xercesc_3_1@@QAEPAVUnionOp@2@K@Z 1201aaa8 f   OpFactory.obj
 0001:00019af8       ?createClosureOp@OpFactory@xercesc_3_1@@QAEPAVChildOp@2@H@Z 1201aaf8 f   OpFactory.obj
 0001:00019b36       ?createNonGreedyClosureOp@OpFactory@xercesc_3_1@@QAEPAVChildOp@2@XZ 1201ab36 f   OpFactory.obj
 0001:00019b78       ?createQuestionOp@OpFactory@xercesc_3_1@@QAEPAVChildOp@2@_N@Z 1201ab78 f   OpFactory.obj
 0001:00019bbb       ?createRangeOp@OpFactory@xercesc_3_1@@QAEPAVRangeOp@2@QBVToken@2@@Z 1201abbb f   OpFactory.obj
 0001:00019c05       ?createBackReferenceOp@OpFactory@xercesc_3_1@@QAEPAVCharOp@2@H@Z 1201ac05 f   OpFactory.obj
 0001:00019c4f       ?createStringOp@OpFactory@xercesc_3_1@@QAEPAVStringOp@2@QB_W@Z 1201ac4f f   OpFactory.obj
 0001:00019c9f       ?getChild@ParenToken@xercesc_3_1@@UBEPAVToken@2@K@Z 1201ac9f f i ParenToken.obj
 0001:00019ca5       ??0ParenToken@xercesc_3_1@@QAE@W4tokType@Token@1@QAV31@HQAVMemoryManager@1@@Z 1201aca5 f   ParenToken.obj
 0001:00019ccc       ??_FRegxParser@xercesc_3_1@@QAEXXZ 1201accc f i ParserForXMLSchema.obj
 0001:00019cd8       ?getIgnoreSerializedAnnotations@XMLGrammarPool@xercesc_3_1@@QBE_NXZ 1201acd8 f i XMLGrammarPoolImpl.obj
 0001:00019cd8       ?hasBackReferences@RegxParser@xercesc_3_1@@QBE_NXZ 1201acd8 f i ParserForXMLSchema.obj
 0001:00019cd8       ?getPreprocessed@ComplexTypeInfo@xercesc_3_1@@QBE_NXZ 1201acd8 f i XMLElementDecl.obj
 0001:00019cdc       ?getNotationDeclaration@PSVIElement@xercesc_3_1@@QAEPAVXSNotationDeclaration@2@XZ 1201acdc f i PSVIElement.obj
 0001:00019cdc       ?getInputEncoding@DOMDocumentImpl@xercesc_3_1@@UBEPB_WXZ 1201acdc f i DOMDocumentImpl.obj
 0001:00019cdc       ?getRecursingAnonTypes@SchemaInfo@xercesc_3_1@@QBEPAV?$ValueVectorOf@PBVDOMElement@xercesc_3_1@@@2@XZ 1201acdc f i IGXMLScanner.obj
 0001:00019cdc       ?getNodeIDMap@DOMDocumentImpl@xercesc_3_1@@QAEPAVDOMNodeIDMap@2@XZ 1201acdc f i AbstractDOMParser.obj
 0001:00019cdc       ?getEntityRef@DOMEntityImpl@xercesc_3_1@@UBEPAVDOMEntityReference@2@XZ 1201acdc f i DOMEntityImpl.obj
 0001:00019cdc       ?getFacets@XSSimpleTypeDefinition@xercesc_3_1@@QAEPAV?$RefVectorOf@VXSFacet@xercesc_3_1@@@2@XZ 1201acdc f i XMLAttr.obj
 0001:00019cdc       ?getTypeLocalName@ComplexTypeInfo@xercesc_3_1@@QBEPB_WXZ 1201acdc f i XMLElementDecl.obj
 0001:00019cdc       ?getDatatypeValidator@SchemaAttDef@xercesc_3_1@@QBEPAVDatatypeValidator@2@XZ 1201acdc f i XMLElementDecl.obj
 0001:00019cdc       ?getAnnotations@XSComplexTypeDefinition@xercesc_3_1@@QAEPAV?$RefVectorOf@VXSAnnotation@xercesc_3_1@@@2@XZ 1201acdc f i XSComplexTypeDefinition.obj
 0001:00019cdc       ?getPrefix@DOMAttrNSImpl@xercesc_3_1@@UBEPB_WXZ 1201acdc f i DOMAttrNSImpl.obj
 0001:00019cdc       ?getNotations@DOMDocumentTypeImpl@xercesc_3_1@@UBEPAVDOMNamedNodeMap@2@XZ 1201acdc f i DOMDocumentTypeImpl.obj
 0001:00019cdc       ?getIdentityConstraints@XSElementDeclaration@xercesc_3_1@@QAEPAV?$XSNamedMap@VXSIDCDefinition@xercesc_3_1@@@2@XZ 1201acdc f i PSVIElement.obj
 0001:00019cdc       ?getTagName@DOMElementImpl@xercesc_3_1@@UBEPB_WXZ 1201acdc f i DOMElementImpl.obj
 0001:00019cdc       ?getTypeName@DatatypeValidator@xercesc_3_1@@QBEPB_WXZ 1201acdc f i XMLAttr.obj
 0001:00019cdc       ?getTokenFactory@RegxParser@xercesc_3_1@@QBEPAVTokenFactory@2@XZ 1201acdc f i ParserForXMLSchema.obj
 0001:00019cdc       ?getNodeName@DOMElementImpl@xercesc_3_1@@UBEPB_WXZ 1201acdc f i DOMElementImpl.obj
 0001:00019cdc       ?getDefaultValue@SchemaElementDecl@xercesc_3_1@@QBEPA_WXZ 1201acdc f i XMLElementDecl.obj
 0001:00019ce0       ?setRelatedData@DOMErrorImpl@xercesc_3_1@@QAEXPAX@Z 1201ace0 f i DOMLSParserImpl.obj
 0001:00019ce0       ?setNamespaceURI@IdentityConstraint@xercesc_3_1@@QAEXH@Z 1201ace0 f i XMLElementDecl.obj
 0001:00019ce0       ?setModelType@SchemaElementDecl@xercesc_3_1@@QAEXW4ModelTypes@12@@Z 1201ace0 f i XMLElementDecl.obj
 0001:00019ce0       ?setParseContext@RegxParser@xercesc_3_1@@QAEXW4parserStateContext@12@@Z 1201ace0 f i ParserForXMLSchema.obj
 0001:00019ce0       ?setScopeDefined@ComplexTypeInfo@xercesc_3_1@@QAEXI@Z 1201ace0 f i XMLElementDecl.obj
 0001:00019ce0       ?setGrammar@SchemaValidator@xercesc_3_1@@UAEXPAVGrammar@2@@Z 1201ace0 f i IGXMLScanner.obj
 0001:00019ce0       ?updateValidity@PSVIAttribute@xercesc_3_1@@QAEXW4VALIDITY_STATE@PSVIItem@2@@Z 1201ace0 f i PSVIAttribute.obj
 0001:00019ce0       ?setType@DatatypeValidator@xercesc_3_1@@IAEXW4ValidatorType@12@@Z 1201ace0 f i XMLAttr.obj
 0001:00019ce0       ?setValidity@PSVIItem@xercesc_3_1@@QAEXW4VALIDITY_STATE@12@@Z 1201ace0 f i PSVIItem.obj
 0001:00019ce0       ?setModelType@DTDElementDecl@xercesc_3_1@@QAEXW4ModelTypes@12@@Z 1201ace0 f i XMLElementDecl.obj
 0001:00019ce0       ?setType@ContentSpecNode@xercesc_3_1@@QAEXW4NodeTypes@12@@Z 1201ace0 f i XMLGrammarPoolImpl.obj
 0001:00019ce0       ?setElemStack@ValidationContextImpl@xercesc_3_1@@UAEXPAVElemStack@2@@Z 1201ace0 f i ValidationContextImpl.obj
 0001:00019ce0       ?setAttributeDeclRegistry@SchemaGrammar@xercesc_3_1@@QAEXQAV?$RefHashTableOf@VXMLAttDef@xercesc_3_1@@UStringHasher@2@@2@@Z 1201ace0 f i XMLGrammarPoolImpl.obj
 0001:00019ce0       ?setContentHandler@SAX2XMLFilterImpl@xercesc_3_1@@UAEXQAVContentHandler@2@@Z 1201ace0 f i SAX2XMLFilterImpl.obj
 0001:00019ced       ?setDatatypeValidator@SchemaAttDef@xercesc_3_1@@QAEXPAVDatatypeValidator@2@@Z 1201aced f i XMLElementDecl.obj
 0001:00019ced       ?setEntityRef@DOMEntityImpl@xercesc_3_1@@UAEXPAVDOMEntityReference@2@@Z 1201aced f i DOMEntityImpl.obj
 0001:00019ced       ?setTokenFactory@RegxParser@xercesc_3_1@@QAEXQAVTokenFactory@2@@Z 1201aced f i ParserForXMLSchema.obj
 0001:00019cfa       ?isSet@RegxParser@xercesc_3_1@@IAE_NH@Z 1201acfa f i ParserForXMLSchema.obj
 0001:00019d0f       ?hexChar@RegxParser@xercesc_3_1@@AAEHH@Z 1201ad0f f i ParserForXMLSchema.obj
 0001:00019d47       ??_FParserForXMLSchema@xercesc_3_1@@QAEXXZ 1201ad47 f i ParserForXMLSchema.obj
 0001:00019d53       ??_EParserForXMLSchema@xercesc_3_1@@UAEPAXI@Z 1201ad53 f i ParserForXMLSchema.obj
 0001:00019da4       ?setString@StringToken@xercesc_3_1@@QAEXQB_W@Z 1201ada4 f i ParserForXMLSchema.obj
 0001:00019dce       ?size@UnionToken@xercesc_3_1@@UBEKXZ 1201adce f i ParserForXMLSchema.obj
 0001:00019dda       ?getChild@UnionToken@xercesc_3_1@@UBEPAVToken@2@K@Z 1201adda f i ParserForXMLSchema.obj
 0001:00019dfb       ??0ParseException@xercesc_3_1@@QAE@QBD_KW4Codes@XMLExcepts@1@PAVMemoryManager@1@@Z 1201adfb f i ParserForXMLSchema.obj
 0001:00019e3b       ??0ParseException@xercesc_3_1@@QAE@ABV01@@Z 1201ae3b f i ParserForXMLSchema.obj
 0001:00019e56       ??0ParseException@xercesc_3_1@@QAE@QBD_KW4Codes@XMLExcepts@1@QB_W333PAVMemoryManager@1@@Z 1201ae56 f i ParserForXMLSchema.obj
 0001:00019ea2       ??0ParseException@xercesc_3_1@@QAE@QBD_KW4Codes@XMLExcepts@1@0000PAVMemoryManager@1@@Z 1201aea2 f i ParserForXMLSchema.obj
 0001:00019eee       ??1ParseException@xercesc_3_1@@UAE@XZ 1201aeee f i ParserForXMLSchema.obj
 0001:00019ef9       ?duplicate@ParseException@xercesc_3_1@@UBEPAVXMLException@2@XZ 1201aef9 f i ParserForXMLSchema.obj
 0001:00019f3d       ?getType@ParseException@xercesc_3_1@@UBEPB_WXZ 1201af3d f i ParserForXMLSchema.obj
 0001:00019f43       ??_EParseException@xercesc_3_1@@UAEPAXI@Z 1201af43 f i ParserForXMLSchema.obj
 0001:00019f94       ??0ParserForXMLSchema@xercesc_3_1@@QAE@QAVMemoryManager@1@@Z 1201af94 f   ParserForXMLSchema.obj
 0001:00019faf       ??1ParserForXMLSchema@xercesc_3_1@@UAE@XZ 1201afaf f   ParserForXMLSchema.obj
 0001:00019fba       ?processCaret@ParserForXMLSchema@xercesc_3_1@@MAEPAVToken@2@XZ 1201afba f   ParserForXMLSchema.obj
 0001:00019fd0       ?processDollar@ParserForXMLSchema@xercesc_3_1@@MAEPAVToken@2@XZ 1201afd0 f   ParserForXMLSchema.obj
 0001:00019fe6       ?processPlus@ParserForXMLSchema@xercesc_3_1@@MAEPAVToken@2@QAV32@@Z 1201afe6 f   ParserForXMLSchema.obj
 0001:0001a010       ?processStar@ParserForXMLSchema@xercesc_3_1@@MAEPAVToken@2@QAV32@@Z 1201b010 f   ParserForXMLSchema.obj
 0001:0001a02d       ?processQuestion@ParserForXMLSchema@xercesc_3_1@@MAEPAVToken@2@QAV32@@Z 1201b02d f   ParserForXMLSchema.obj
 0001:0001a06e       ?processParen@ParserForXMLSchema@xercesc_3_1@@MAEPAVToken@2@XZ 1201b06e f   ParserForXMLSchema.obj
 0001:0001a0d4       ?processBackReference@ParserForXMLSchema@xercesc_3_1@@MAEPAVToken@2@XZ 1201b0d4 f   ParserForXMLSchema.obj
 0001:0001a102       ?checkQuestion@ParserForXMLSchema@xercesc_3_1@@MAE_NK@Z 1201b102 f   ParserForXMLSchema.obj
 0001:0001a102       ?removeAdvDocHandler@SAX2XMLFilterImpl@xercesc_3_1@@UAE_NQAVXMLDocumentHandler@2@@Z 1201b102 f   SAX2XMLFilterImpl.obj
 0001:0001a102       ?checkTextIsValidForInclude@XIncludeUtils@xercesc_3_1@@AAE_NPA_W@Z 1201b102 f   XIncludeUtils.obj
 0001:0001a107       ?decodeEscaped@ParserForXMLSchema@xercesc_3_1@@MAEHXZ 1201b107 f   ParserForXMLSchema.obj
 0001:0001a242       ?elementAt@?$BaseRefVectorOf@VIdentityConstraint@xercesc_3_1@@@xercesc_3_1@@QAEPAVIdentityConstraint@2@K@Z 1201b242 f i XMLElementDecl.obj
 0001:0001a242       ?elementAt@?$BaseRefVectorOf@VXercesLocationPath@xercesc_3_1@@@xercesc_3_1@@QAEPAVXercesLocationPath@2@K@Z 1201b242 f i XTemplateSerializer.obj
 0001:0001a242       ?elementAt@?$BaseRefVectorOf@VSchemaInfo@xercesc_3_1@@@xercesc_3_1@@QAEPAVSchemaInfo@2@K@Z 1201b242 f i IGXMLScanner.obj
 0001:0001a242       ?elementAt@?$BaseRefVectorOf@VToken@xercesc_3_1@@@xercesc_3_1@@QAEPAVToken@2@K@Z 1201b242 f i ParserForXMLSchema.obj
 0001:0001a242       ?elementAt@?$BaseRefVectorOf@VMatch@xercesc_3_1@@@xercesc_3_1@@QAEPAVMatch@2@K@Z 1201b242 f i RegularExpression.obj
 0001:0001a242       ?elementAt@?$BaseRefVectorOf@VDOMNodeIteratorImpl@xercesc_3_1@@@xercesc_3_1@@QAEPAVDOMNodeIteratorImpl@2@K@Z 1201b242 f i DOMDocumentImpl.obj
 0001:0001a242       ?elementAt@?$BaseRefVectorOf@VXSNamespaceItem@xercesc_3_1@@@xercesc_3_1@@QAEPAVXSNamespaceItem@2@K@Z 1201b242 f i XSModel.obj
 0001:0001a242       ?elementAt@?$BaseRefVectorOf@VSchemaElementDecl@xercesc_3_1@@@xercesc_3_1@@QAEPAVSchemaElementDecl@2@K@Z 1201b242 f i XMLElementDecl.obj
 0001:0001a242       ?elementAt@?$BaseRefVectorOf@VIC_Field@xercesc_3_1@@@xercesc_3_1@@QAEPAVIC_Field@2@K@Z 1201b242 f i XMLElementDecl.obj
 0001:0001a242       ?elementAt@?$BaseRefVectorOf@VKVStringPair@xercesc_3_1@@@xercesc_3_1@@QAEPAVKVStringPair@2@K@Z 1201b242 f i IGXMLScanner.obj
 0001:0001a242       ?elementAt@?$BaseRefVectorOf@VPSVIAttributeStorage@xercesc_3_1@@@xercesc_3_1@@QAEPAVPSVIAttributeStorage@2@K@Z 1201b242 f i PSVIAttributeList.obj
 0001:0001a242       ?elementAt@?$BaseRefVectorOf@VScope@InScopeNamespaces@DOMNormalizer@xercesc_3_1@@@xercesc_3_1@@QAEPAVScope@InScopeNamespaces@DOMNormalizer@2@K@Z 1201b242 f i DOMNormalizer.obj
 0001:0001a242       ?elementAt@?$BaseRefVectorOf@VXSObject@xercesc_3_1@@@xercesc_3_1@@QAEPAVXSObject@2@K@Z 1201b242 f i XSModel.obj
 0001:0001a242       ?elementAt@?$BaseRefVectorOf@V?$ValueStackOf@K@xercesc_3_1@@@xercesc_3_1@@QAEPAV?$ValueStackOf@K@2@K@Z 1201b242 f i XPathMatcher.obj
 0001:0001a242       ?elementAt@?$BaseRefVectorOf@VDOMNode@xercesc_3_1@@@xercesc_3_1@@QAEPAVDOMNode@2@K@Z 1201b242 f i DOMRangeImpl.obj
 0001:0001a242       ?elementAt@?$BaseRefVectorOf@VDOMImplementationSource@xercesc_3_1@@@xercesc_3_1@@QAEPAVDOMImplementationSource@2@K@Z 1201b242 f i DOMImplementationRegistry.obj
 0001:0001a242       ?elementAt@?$BaseRefVectorOf@VXMLNumber@xercesc_3_1@@@xercesc_3_1@@QAEPAVXMLNumber@2@K@Z 1201b242 f i XTemplateSerializer.obj
 0001:0001a242       ?elementAt@?$BaseRefVectorOf@VXercesStep@xercesc_3_1@@@xercesc_3_1@@QAEPAVXercesStep@2@K@Z 1201b242 f i XMLGrammarPoolImpl.obj
 0001:0001a242       ?elementAt@?$BaseRefVectorOf@VSchemaAttDef@xercesc_3_1@@@xercesc_3_1@@QAEPAVSchemaAttDef@2@K@Z 1201b242 f i XMLGrammarPoolImpl.obj
 0001:0001a242       ?elementAt@?$BaseRefVectorOf@V?$RefHashTableOf@_WUStringHasher@xercesc_3_1@@@xercesc_3_1@@@xercesc_3_1@@QAEPAV?$RefHashTableOf@_WUStringHasher@xercesc_3_1@@@2@K@Z 1201b242 f i DOMLSSerializerImpl.obj
 0001:0001a242       ?elementAt@?$BaseRefVectorOf@VDOMRangeImpl@xercesc_3_1@@@xercesc_3_1@@QAEPAVDOMRangeImpl@2@K@Z 1201b242 f i DOMCDATASectionImpl.obj
 0001:0001a242       ?elementAt@?$BaseRefVectorOf@VXSFacet@xercesc_3_1@@@xercesc_3_1@@QAEPAVXSFacet@2@K@Z 1201b242 f i XSSimpleTypeDefinition.obj
 0001:0001a242       ?elementAt@?$BaseRefVectorOf@VXMLAttr@xercesc_3_1@@@xercesc_3_1@@QAEPAVXMLAttr@2@K@Z 1201b242 f i DGXMLScanner.obj
 0001:0001a270       ??0RangeFactory@xercesc_3_1@@IAE@XZ 1201b270 f   RangeFactory.obj
 0001:0001a27f       ??_ERangeToken@xercesc_3_1@@UAEPAXI@Z 1201b27f f i RangeToken.obj
 0001:0001a2ca       ??0RangeToken@xercesc_3_1@@QAE@W4tokType@Token@1@QAVMemoryManager@1@@Z 1201b2ca f   RangeToken.obj
 0001:0001a304       ??1RangeToken@xercesc_3_1@@UAE@XZ 1201b304 f   RangeToken.obj
 0001:0001a351       ?getCaseInsensitiveToken@RangeToken@xercesc_3_1@@QAEPAV12@QAVTokenFactory@2@@Z 1201b351 f   RangeToken.obj
 0001:0001a489       ?setRangeValues@RangeToken@xercesc_3_1@@QAEXQAHI@Z 1201b489 f   RangeToken.obj
 0001:0001a4d0       ?addRange@RangeToken@xercesc_3_1@@UAEXHH@Z 1201b4d0 f   RangeToken.obj
 0001:0001a607       ?sortRanges@RangeToken@xercesc_3_1@@UAEXXZ 1201b607 f   RangeToken.obj
 0001:0001a681       ?compactRanges@RangeToken@xercesc_3_1@@UAEXXZ 1201b681 f   RangeToken.obj
 0001:0001a70a       ?mergeRanges@RangeToken@xercesc_3_1@@UAEXQBVToken@2@@Z 1201b70a f   RangeToken.obj
 0001:0001a8b2       ?subtractRanges@RangeToken@xercesc_3_1@@UAEXQAV12@@Z 1201b8b2 f   RangeToken.obj
 0001:0001aa26       ?intersectRanges@RangeToken@xercesc_3_1@@UAEXQAV12@@Z 1201ba26 f   RangeToken.obj
 0001:0001ab5b       ?complementRanges@RangeToken@xercesc_3_1@@SAPAV12@QAV12@QAVTokenFactory@2@QAVMemoryManager@2@@Z 1201bb5b f   RangeToken.obj
 0001:0001ac2f       ?match@RangeToken@xercesc_3_1@@QAE_NH@Z 1201bc2f f   RangeToken.obj
 0001:0001acf6       ?expand@RangeToken@xercesc_3_1@@AAEXI@Z 1201bcf6 f   RangeToken.obj
 0001:0001ad6a       ?doCreateMap@RangeToken@xercesc_3_1@@AAEXXZ 1201bd6a f   RangeToken.obj
 0001:0001ae0b       ?initializeRangeTokenMap@XMLInitializer@xercesc_3_1@@CAXXZ 1201be0b f   RangeTokenMap.obj
 0001:0001ae52       ?terminateRangeTokenMap@XMLInitializer@xercesc_3_1@@CAXXZ 1201be52 f   RangeTokenMap.obj
 0001:0001ae74       ??0RangeTokenElemMap@xercesc_3_1@@QAE@I@Z 1201be74 f   RangeTokenMap.obj
 0001:0001ae8a       ??0RangeTokenMap@xercesc_3_1@@IAE@PAVMemoryManager@1@@Z 1201be8a f   RangeTokenMap.obj
 0001:0001af84       ??1RangeTokenMap@xercesc_3_1@@IAE@XZ 1201bf84 f   RangeTokenMap.obj
 0001:0001afb0       ?getRange@RangeTokenMap@xercesc_3_1@@IAEPAVRangeToken@2@QB_W_N@Z 1201bfb0 f   RangeTokenMap.obj
 0001:0001b0a7       ?addCategory@RangeTokenMap@xercesc_3_1@@QAEXQB_W@Z 1201c0a7 f   RangeTokenMap.obj
 0001:0001b0b3       ?addRangeMap@RangeTokenMap@xercesc_3_1@@QAEXQB_WQAVRangeFactory@2@@Z 1201c0b3 f   RangeTokenMap.obj
 0001:0001b0bf       ?addKeywordMap@RangeTokenMap@xercesc_3_1@@QAEXQB_W0@Z 1201c0bf f   RangeTokenMap.obj
 0001:0001b181       ?setRangeToken@RangeTokenMap@xercesc_3_1@@QAEXQB_WQAVRangeToken@2@_N@Z 1201c181 f   RangeTokenMap.obj
 0001:0001b215       ?initializeRegistry@RangeTokenMap@xercesc_3_1@@AAEXXZ 1201c215 f   RangeTokenMap.obj
 0001:0001b322       ?buildTokenRanges@RangeTokenMap@xercesc_3_1@@AAEXXZ 1201c322 f   RangeTokenMap.obj
 0001:0001b3b4       ?instance@RangeTokenMap@xercesc_3_1@@SAPAV12@XZ 1201c3b4 f   RangeTokenMap.obj
 0001:0001b3ba       ?cleanUp@RangeTokenMap@xercesc_3_1@@AAEXXZ 1201c3ba f   RangeTokenMap.obj
 0001:0001b40b       ??_G?$RefHashTableOf@VXSerializedObjectId@xercesc_3_1@@UPtrHasher@2@@xercesc_3_1@@QAEPAXI@Z 1201c40b f i XSerializeEngine.obj
 0001:0001b40b       ??_G?$RefHashTableOf@VXMLCanRepGroup@xercesc_3_1@@UPtrHasher@2@@xercesc_3_1@@QAEPAXI@Z 1201c40b f i DatatypeValidatorFactory.obj
 0001:0001b40b       ??_G?$RefHashTableOf@VXMLInteger@xercesc_3_1@@UCMStateSetHasher@2@@xercesc_3_1@@QAEPAXI@Z 1201c40b f i DFAContentModel.obj
 0001:0001b40b       ??_G?$RefHashTableOf@VRangeTokenElemMap@xercesc_3_1@@UStringHasher@2@@xercesc_3_1@@QAEPAXI@Z 1201c40b f i RangeTokenMap.obj
 0001:0001b486       ??0?$RefHashTableOf@VRangeTokenElemMap@xercesc_3_1@@UStringHasher@2@@xercesc_3_1@@QAE@KQAVMemoryManager@1@@Z 1201c486 f i RangeTokenMap.obj
 0001:0001b4cf       ?containsKey@?$RefHashTableOf@VKVStringPair@xercesc_3_1@@UStringHasher@2@@xercesc_3_1@@QBE_NQBX@Z 1201c4cf f i TraverseSchema.obj
 0001:0001b4cf       ?containsKey@?$RefHashTableOf@VRangeTokenElemMap@xercesc_3_1@@UStringHasher@2@@xercesc_3_1@@QBE_NQBX@Z 1201c4cf f i RangeTokenMap.obj
 0001:0001b4cf       ?containsKey@?$RefHashTableOf@VXercesGroupInfo@xercesc_3_1@@UStringHasher@2@@xercesc_3_1@@QBE_NQBX@Z 1201c4cf f i TraverseSchema.obj
 0001:0001b4cf       ?containsKey@?$RefHashTableOf@VXercesAttGroupInfo@xercesc_3_1@@UStringHasher@2@@xercesc_3_1@@QBE_NQBX@Z 1201c4cf f i TraverseSchema.obj
 0001:0001b4cf       ?containsKey@?$RefHashTableOf@VGrammar@xercesc_3_1@@UStringHasher@2@@xercesc_3_1@@QBE_NQBX@Z 1201c4cf f i XMLGrammarPoolImpl.obj
 0001:0001b4cf       ?containsKey@?$RefHashTableOf@VXMLAttDef@xercesc_3_1@@UStringHasher@2@@xercesc_3_1@@QBE_NQBX@Z 1201c4cf f i TraverseSchema.obj
 0001:0001b4cf       ?containsKey@?$RefHashTableOf@VDatatypeValidator@xercesc_3_1@@UStringHasher@2@@xercesc_3_1@@QBE_NQBX@Z 1201c4cf f i XMLGrammarPoolImpl.obj
 0001:0001b50e       ?put@?$RefHashTableOf@VRangeTokenElemMap@xercesc_3_1@@UStringHasher@2@@xercesc_3_1@@QAEXPAXQAVRangeTokenElemMap@2@@Z 1201c50e f i RangeTokenMap.obj
 0001:0001b596       ??0?$RefHashTableOf@VRangeFactory@xercesc_3_1@@UStringHasher@2@@xercesc_3_1@@QAE@KQAVMemoryManager@1@@Z 1201c596 f i RangeTokenMap.obj
 0001:0001b5dc       ?put@?$RefHashTableOf@VKVStringPair@xercesc_3_1@@UStringHasher@2@@xercesc_3_1@@QAEXPAXQAVKVStringPair@2@@Z 1201c5dc f i XTemplateSerializer.obj
 0001:0001b5dc       ?put@?$RefHashTableOf@VDTDElementDecl@xercesc_3_1@@UStringHasher@2@@xercesc_3_1@@QAEXPAXQAVDTDElementDecl@2@@Z 1201c5dc f i XMLGrammarPoolImpl.obj
 0001:0001b5dc       ?put@?$RefHashTableOf@VXercesAttGroupInfo@xercesc_3_1@@UStringHasher@2@@xercesc_3_1@@QAEXPAXQAVXercesAttGroupInfo@2@@Z 1201c5dc f i XTemplateSerializer.obj
 0001:0001b5dc       ?put@?$RefHashTableOf@VXercesGroupInfo@xercesc_3_1@@UStringHasher@2@@xercesc_3_1@@QAEXPAXQAVXercesGroupInfo@2@@Z 1201c5dc f i XTemplateSerializer.obj
 0001:0001b5dc       ?put@?$RefHashTableOf@VXMLRefInfo@xercesc_3_1@@UStringHasher@2@@xercesc_3_1@@QAEXPAXQAVXMLRefInfo@2@@Z 1201c5dc f i ValidationContextImpl.obj
 0001:0001b5dc       ?put@?$RefHashTableOf@VDTDEntityDecl@xercesc_3_1@@UStringHasher@2@@xercesc_3_1@@QAEXPAXQAVDTDEntityDecl@2@@Z 1201c5dc f i XMLGrammarPoolImpl.obj
 0001:0001b5dc       ?put@?$RefHashTableOf@VDTDAttDef@xercesc_3_1@@UStringHasher@2@@xercesc_3_1@@QAEXPAXQAVDTDAttDef@2@@Z 1201c5dc f i XTemplateSerializer.obj
 0001:0001b5dc       ?put@?$RefHashTableOf@VDatatypeValidator@xercesc_3_1@@UStringHasher@2@@xercesc_3_1@@QAEXPAXQAVDatatypeValidator@2@@Z 1201c5dc f i XTemplateSerializer.obj
 0001:0001b5dc       ?put@?$RefHashTableOf@VGrammar@xercesc_3_1@@UStringHasher@2@@xercesc_3_1@@QAEXPAXQAVGrammar@2@@Z 1201c5dc f i XMLGrammarPoolImpl.obj
 0001:0001b5dc       ?put@?$RefHashTableOf@VXMLAttDef@xercesc_3_1@@UStringHasher@2@@xercesc_3_1@@QAEXPAXQAVXMLAttDef@2@@Z 1201c5dc f i XTemplateSerializer.obj
 0001:0001b5dc       ?put@?$RefHashTableOf@VXMLNotationDecl@xercesc_3_1@@UStringHasher@2@@xercesc_3_1@@QAEXPAXQAVXMLNotationDecl@2@@Z 1201c5dc f i XMLGrammarPoolImpl.obj
 0001:0001b5dc       ?put@?$RefHashTableOf@VXMLElementDecl@xercesc_3_1@@UStringHasher@2@@xercesc_3_1@@QAEXPAXQAVXMLElementDecl@2@@Z 1201c5dc f i WFXMLScanner.obj
 0001:0001b5dc       ?put@?$RefHashTableOf@VRangeFactory@xercesc_3_1@@UStringHasher@2@@xercesc_3_1@@QAEXPAXQAVRangeFactory@2@@Z 1201c5dc f i RangeTokenMap.obj
 0001:0001b5dc       ?put@?$RefHashTableOf@VDOMElement@xercesc_3_1@@UStringHasher@2@@xercesc_3_1@@QAEXPAXQAVDOMElement@2@@Z 1201c5dc f i SchemaInfo.obj
 0001:0001b5dc       ?put@?$RefHashTableOf@VComplexTypeInfo@xercesc_3_1@@UStringHasher@2@@xercesc_3_1@@QAEXPAXQAVComplexTypeInfo@2@@Z 1201c5dc f i XTemplateSerializer.obj
 0001:0001b663       ?isEOLChar@RegxUtil@xercesc_3_1@@SA_N_W@Z 1201c663 f i RegularExpression.obj
 0001:0001b68f       ?composeFromSurrogate@RegxUtil@xercesc_3_1@@SAH_W0@Z 1201c68f f i RegularExpression.obj
 0001:0001b6aa       ?isLowSurrogate@RegxUtil@xercesc_3_1@@SA_N_W@Z 1201c6aa f i RegularExpression.obj
 0001:0001b6c5       ?isHighSurrogate@RegxUtil@xercesc_3_1@@SA_N_W@Z 1201c6c5 f i RegularExpression.obj
 0001:0001b6e0       ?decomposeToSurrogates@RegxUtil@xercesc_3_1@@SAXHAA_W0@Z 1201c6e0 f i RegularExpression.obj
 0001:0001b70b       ?isWordChar@RegxUtil@xercesc_3_1@@SA_N_W@Z 1201c70b f i RegularExpression.obj
 0001:0001b744       ??_FContext@RegularExpression@xercesc_3_1@@QAEXXZ 1201c744 f i RegularExpression.obj
 0001:0001b750       ??_ERegularExpression@xercesc_3_1@@UAEPAXI@Z 1201c750 f i RegularExpression.obj
 0001:0001b79b       ?staticCleanup@RegularExpression@xercesc_3_1@@SAXXZ 1201c79b f i RegularExpression.obj
 0001:0001b79b       ?terminateRegularExpression@XMLInitializer@xercesc_3_1@@CAXXZ 1201c79b f i RegularExpression.obj
 0001:0001b7a3       ?cleanUp@RegularExpression@xercesc_3_1@@IAEXXZ 1201c7a3 f i RegularExpression.obj
 0001:0001b7ea       ?isSet@RegularExpression@xercesc_3_1@@SA_NHH@Z 1201c7ea f i RegularExpression.obj
 0001:0001b7fd       ?compileUnion@RegularExpression@xercesc_3_1@@IAEPAVOp@2@QBVToken@2@QAV32@_N@Z 1201c7fd f i RegularExpression.obj
 0001:0001b85f       ?compileParenthesis@RegularExpression@xercesc_3_1@@IAEPAVOp@2@QBVToken@2@QAV32@_N@Z 1201c85f f i RegularExpression.obj
 0001:0001b8f8       ?compileConcat@RegularExpression@xercesc_3_1@@IAEPAVOp@2@QBVToken@2@QAV32@_N@Z 1201c8f8 f i RegularExpression.obj
 0001:0001b96e       ?compileClosure@RegularExpression@xercesc_3_1@@IAEPAVOp@2@QBVToken@2@QAV32@_NW4tokType@42@@Z 1201c96e f i RegularExpression.obj
 0001:0001bac9       ?matchIgnoreCase@RegularExpression@xercesc_3_1@@IBE_NHH@Z 1201cac9 f   RegularExpression.obj
 0001:0001bb62       ??0Context@RegularExpression@xercesc_3_1@@QAE@QAVMemoryManager@2@@Z 1201cb62 f   RegularExpression.obj
 0001:0001bb90       ??0Context@RegularExpression@xercesc_3_1@@QAE@PAV012@@Z 1201cb90 f   RegularExpression.obj
 0001:0001bc42       ??4Context@RegularExpression@xercesc_3_1@@QAEAAV012@ABV012@@Z 1201cc42 f   RegularExpression.obj
 0001:0001bd76       ??1Context@RegularExpression@xercesc_3_1@@QAE@XZ 1201cd76 f   RegularExpression.obj
 0001:0001bd9e       ?reset@Context@RegularExpression@xercesc_3_1@@QAEXQB_WKKKHI@Z 1201cd9e f   RegularExpression.obj
 0001:0001be24       ?nextCh@Context@RegularExpression@xercesc_3_1@@QAE_NAAHAAK@Z 1201ce24 f   RegularExpression.obj
 0001:0001bea4       ??0RegularExpression@xercesc_3_1@@QAE@QBDQAVMemoryManager@1@@Z 1201cea4 f   RegularExpression.obj
 0001:0001bf5e       ??0RegularExpression@xercesc_3_1@@QAE@QBD0QAVMemoryManager@1@@Z 1201cf5e f   RegularExpression.obj
 0001:0001c03e       ??0RegularExpression@xercesc_3_1@@QAE@QB_WQAVMemoryManager@1@@Z 1201d03e f   RegularExpression.obj
 0001:0001c0d6       ??0RegularExpression@xercesc_3_1@@QAE@QB_W0QAVMemoryManager@1@@Z 1201d0d6 f   RegularExpression.obj
 0001:0001c170       ??1RegularExpression@xercesc_3_1@@UAE@XZ 1201d170 f   RegularExpression.obj
 0001:0001c1a2       ?getRegexParser@RegularExpression@xercesc_3_1@@MAEPAVRegxParser@2@HQAVMemoryManager@2@@Z 1201d1a2 f   RegularExpression.obj
 0001:0001c1e8       ?setPattern@RegularExpression@xercesc_3_1@@IAEXQB_W0@Z 1201d1e8 f   RegularExpression.obj
 0001:0001c29b       ?matches@RegularExpression@xercesc_3_1@@QBE_NQBDQAVMemoryManager@2@@Z 1201d29b f   RegularExpression.obj
 0001:0001c2f0       ?matches@RegularExpression@xercesc_3_1@@QBE_NQBDKKQAVMemoryManager@2@@Z 1201d2f0 f   RegularExpression.obj
 0001:0001c33f       ?matches@RegularExpression@xercesc_3_1@@QBE_NQBDQAVMatch@2@QAVMemoryManager@2@@Z 1201d33f f   RegularExpression.obj
 0001:0001c395       ?matches@RegularExpression@xercesc_3_1@@QBE_NQBDKKQAVMatch@2@QAVMemoryManager@2@@Z 1201d395 f   RegularExpression.obj
 0001:0001c3e5       ?matches@RegularExpression@xercesc_3_1@@QBE_NQB_WQAVMemoryManager@2@@Z 1201d3e5 f   RegularExpression.obj
 0001:0001c40b       ?matches@RegularExpression@xercesc_3_1@@QBE_NQB_WKKQAVMemoryManager@2@@Z 1201d40b f   RegularExpression.obj
 0001:0001c425       ?matches@RegularExpression@xercesc_3_1@@QBE_NQB_WQAVMatch@2@QAVMemoryManager@2@@Z 1201d425 f   RegularExpression.obj
 0001:0001c44c       ?matches@RegularExpression@xercesc_3_1@@QBE_NQB_WKKQAVMatch@2@QAVMemoryManager@2@@Z 1201d44c f   RegularExpression.obj
 0001:0001c7a4       ?tokenize@RegularExpression@xercesc_3_1@@QBEPAV?$RefArrayVectorOf@_W@2@QBDQAVMemoryManager@2@@Z 1201d7a4 f   RegularExpression.obj
 0001:0001c7f7       ?tokenize@RegularExpression@xercesc_3_1@@QBEPAV?$RefArrayVectorOf@_W@2@QBDKKQAVMemoryManager@2@@Z 1201d7f7 f   RegularExpression.obj
 0001:0001c844       ?tokenize@RegularExpression@xercesc_3_1@@QBEPAV?$RefArrayVectorOf@_W@2@QB_WQAVMemoryManager@2@@Z 1201d844 f   RegularExpression.obj
 0001:0001c868       ?tokenize@RegularExpression@xercesc_3_1@@QBEPAV?$RefArrayVectorOf@_W@2@QB_WKKQAVMemoryManager@2@@Z 1201d868 f   RegularExpression.obj
 0001:0001c9f1       ?allMatches@RegularExpression@xercesc_3_1@@QBEXQB_WKKPAV?$RefVectorOf@VMatch@xercesc_3_1@@@2@QAVMemoryManager@2@@Z 1201d9f1 f   RegularExpression.obj
 0001:0001cae4       ?replace@RegularExpression@xercesc_3_1@@QBEPA_WQBD0QAVMemoryManager@2@@Z 1201dae4 f   RegularExpression.obj
 0001:0001cb95       ?replace@RegularExpression@xercesc_3_1@@QBEPA_WQBD0KKQAVMemoryManager@2@@Z 1201db95 f   RegularExpression.obj
 0001:0001cc3c       ?replace@RegularExpression@xercesc_3_1@@QBEPA_WQB_W0QAVMemoryManager@2@@Z 1201dc3c f   RegularExpression.obj
 0001:0001cc63       ?replace@RegularExpression@xercesc_3_1@@QBEPA_WQB_W0KKQAVMemoryManager@2@@Z 1201dc63 f   RegularExpression.obj
 0001:0001cdca       ?subInExp@RegularExpression@xercesc_3_1@@IBEXQB_W0PBVMatch@2@AAVXMLBuffer@2@QAVMemoryManager@2@@Z 1201ddca f   RegularExpression.obj
 0001:0001cf0b       ?initializeRegularExpression@XMLInitializer@xercesc_3_1@@CAXXZ 1201df0b f   RegularExpression.obj
 0001:0001cf18       ?staticInitialize@RegularExpression@xercesc_3_1@@SAXPAVMemoryManager@2@@Z 1201df18 f   RegularExpression.obj
 0001:0001cf8a       ?getOptionValue@RegularExpression@xercesc_3_1@@SAH_W@Z 1201df8a f   RegularExpression.obj
 0001:0001cfdf       ?match@RegularExpression@xercesc_3_1@@IBEHQAVContext@12@QBVOp@2@K@Z 1201dfdf f   RegularExpression.obj
 0001:0001d48f       ?matchChar@RegularExpression@xercesc_3_1@@IBE_NQAVContext@12@HAAK_N@Z 1201e48f f   RegularExpression.obj
 0001:0001d4e5       ?matchDot@RegularExpression@xercesc_3_1@@IBE_NQAVContext@12@AAK@Z 1201e4e5 f   RegularExpression.obj
 0001:0001d530       ?matchRange@RegularExpression@xercesc_3_1@@IBE_NQAVContext@12@QBVOp@2@AAK_N@Z 1201e530 f   RegularExpression.obj
 0001:0001d58a       ?matchAnchor@RegularExpression@xercesc_3_1@@IBE_NQAVContext@12@HK@Z 1201e58a f   RegularExpression.obj
 0001:0001d63d       ?matchBackReference@RegularExpression@xercesc_3_1@@IBE_NQAVContext@12@HAAK_N@Z 1201e63d f   RegularExpression.obj
 0001:0001d706       ?matchString@RegularExpression@xercesc_3_1@@IBE_NQAVContext@12@QB_WAAK_N@Z 1201e706 f   RegularExpression.obj
 0001:0001d755       ?matchCapture@RegularExpression@xercesc_3_1@@IBEHQAVContext@12@QBVOp@2@K@Z 1201e755 f   RegularExpression.obj
 0001:0001d7f9       ?matchUnion@RegularExpression@xercesc_3_1@@IBEHQAVContext@12@QBVOp@2@K@Z 1201e7f9 f   RegularExpression.obj
 0001:0001d91f       ?parseOptions@RegularExpression@xercesc_3_1@@IAEHQB_W@Z 1201e91f f   RegularExpression.obj
 0001:0001d9b5       ?compile@RegularExpression@xercesc_3_1@@IAEXQBVToken@2@@Z 1201e9b5 f   RegularExpression.obj
 0001:0001d9d7       ?compile@RegularExpression@xercesc_3_1@@IAEPAVOp@2@QBVToken@2@QAV32@_N@Z 1201e9d7 f   RegularExpression.obj
 0001:0001db13       ?prepare@RegularExpression@xercesc_3_1@@IAEXXZ 1201eb13 f   RegularExpression.obj
 0001:0001dd3e       ?doTokenOverlap@RegularExpression@xercesc_3_1@@IAE_NPBVOp@2@PAVToken@2@@Z 1201ed3e f   RegularExpression.obj
 0001:0001de39       ??1?$BaseRefVectorOf@VMatch@xercesc_3_1@@@xercesc_3_1@@UAE@XZ 1201ee39 f i RegularExpression.obj
 0001:0001de40       ??0?$RefVectorOf@VMatch@xercesc_3_1@@@xercesc_3_1@@QAE@K_NQAVMemoryManager@1@@Z 1201ee40 f i RegularExpression.obj
 0001:0001de8d       ??1?$Janitor@V?$ValueStackOf@URE_RuntimeContext@xercesc_3_1@@@xercesc_3_1@@@xercesc_3_1@@QAE@XZ 1201ee8d f i RegularExpression.obj
 0001:0001de95       ?reset@?$Janitor@V?$ValueStackOf@URE_RuntimeContext@xercesc_3_1@@@xercesc_3_1@@@xercesc_3_1@@QAEXPAV?$ValueStackOf@URE_RuntimeContext@xercesc_3_1@@@2@@Z 1201ee95 f i RegularExpression.obj
 0001:0001debf       ?pop@?$ValueStackOf@URE_RuntimeContext@xercesc_3_1@@@xercesc_3_1@@QAE?AURE_RuntimeContext@2@XZ 1201eebf f i RegularExpression.obj
 0001:0001df40       ??_E?$BaseRefVectorOf@VMatch@xercesc_3_1@@@xercesc_3_1@@UAEPAXI@Z 1201ef40 f i * CIL library *:* CIL module *
 0001:0001df40       ??_G?$BaseRefVectorOf@VMatch@xercesc_3_1@@@xercesc_3_1@@UAEPAXI@Z 1201ef40 f i RegularExpression.obj
 0001:0001df60       ??_G?$RefVectorOf@VMatch@xercesc_3_1@@@xercesc_3_1@@UAEPAXI@Z 1201ef60 f i RegularExpression.obj
 0001:0001df60       ??_E?$RefVectorOf@VMatch@xercesc_3_1@@@xercesc_3_1@@UAEPAXI@Z 1201ef60 f i * CIL library *:* CIL module *
 0001:0001dfc9       ?addElement@?$ValueVectorOf@URE_RuntimeContext@xercesc_3_1@@@xercesc_3_1@@QAEXABURE_RuntimeContext@2@@Z 1201efc9 f i RegularExpression.obj
 0001:0001e060       ?removeElementAt@?$ValueVectorOf@URE_RuntimeContext@xercesc_3_1@@@xercesc_3_1@@QAEXK@Z 1201f060 f i RegularExpression.obj
 0001:0001e0c2       ??_ERegxParser@xercesc_3_1@@UAEPAXI@Z 1201f0c2 f i RegxParser.obj
 0001:0001e10d       ??0RegxParser@xercesc_3_1@@QAE@QAVMemoryManager@1@@Z 1201f10d f   RegxParser.obj
 0001:0001e148       ??1RegxParser@xercesc_3_1@@UAE@XZ 1201f148 f   RegxParser.obj
 0001:0001e16b       ?parse@RegxParser@xercesc_3_1@@QAEPAVToken@2@QB_WH@Z 1201f16b f   RegxParser.obj
 0001:0001e345       ?processNext@RegxParser@xercesc_3_1@@IAEXXZ 1201f345 f   RegxParser.obj
 0001:0001e580       ?parseRegx@RegxParser@xercesc_3_1@@IAEPAVToken@2@_N@Z 1201f580 f   RegxParser.obj
 0001:0001e5ef       ?parseTerm@RegxParser@xercesc_3_1@@AAEPAVToken@2@_N@Z 1201f5ef f   RegxParser.obj
 0001:0001e686       ?processCaret@RegxParser@xercesc_3_1@@MAEPAVToken@2@XZ 1201f686 f   RegxParser.obj
 0001:0001e697       ?processDollar@RegxParser@xercesc_3_1@@MAEPAVToken@2@XZ 1201f697 f   RegxParser.obj
 0001:0001e6a8       ?processStar@RegxParser@xercesc_3_1@@MAEPAVToken@2@QAV32@@Z 1201f6a8 f   RegxParser.obj
 0001:0001e6dc       ?processPlus@RegxParser@xercesc_3_1@@MAEPAVToken@2@QAV32@@Z 1201f6dc f   RegxParser.obj
 0001:0001e71c       ?processQuestion@RegxParser@xercesc_3_1@@MAEPAVToken@2@QAV32@@Z 1201f71c f   RegxParser.obj
 0001:0001e793       ?processParen@RegxParser@xercesc_3_1@@MAEPAVToken@2@XZ 1201f793 f   RegxParser.obj
 0001:0001e802       ?processBackReference@RegxParser@xercesc_3_1@@MAEPAVToken@2@XZ 1201f802 f   RegxParser.obj
 0001:0001e8bd       ?parseFactor@RegxParser@xercesc_3_1@@AAEPAVToken@2@XZ 1201f8bd f   RegxParser.obj
 0001:0001ec96       ?parseAtom@RegxParser@xercesc_3_1@@AAEPAVToken@2@XZ 1201fc96 f   RegxParser.obj
 0001:0001eea8       ?processBacksolidus_pP@RegxParser@xercesc_3_1@@IAEPAVRangeToken@2@H@Z 1201fea8 f   RegxParser.obj
 0001:0001efd6       ?parseCharacterClass@RegxParser@xercesc_3_1@@IAEPAVRangeToken@2@_N@Z 1201ffd6 f   RegxParser.obj
 0001:0001f416       ?getTokenForShorthand@RegxParser@xercesc_3_1@@IAEPAVRangeToken@2@H@Z 12020416 f   RegxParser.obj
 0001:0001f4a2       ?decodeEscaped@RegxParser@xercesc_3_1@@MAEHXZ 120204a2 f   RegxParser.obj
 0001:0001f5e8       ?checkQuestion@RegxParser@xercesc_3_1@@MAE_NK@Z 120205e8 f   RegxParser.obj
 0001:0001f608       ??1?$BaseRefVectorOf@VReferencePosition@RegxParser@xercesc_3_1@@@xercesc_3_1@@UAE@XZ 12020608 f i RegxParser.obj
 0001:0001f60f       ?setElementAt@?$BaseRefVectorOf@VReferencePosition@RegxParser@xercesc_3_1@@@xercesc_3_1@@UAEXQAVReferencePosition@RegxParser@2@K@Z 1202060f f i RegxParser.obj
 0001:0001f669       ?removeAllElements@?$BaseRefVectorOf@VReferencePosition@RegxParser@xercesc_3_1@@@xercesc_3_1@@UAEXXZ 12020669 f i RegxParser.obj
 0001:0001f69a       ?removeElementAt@?$BaseRefVectorOf@VReferencePosition@RegxParser@xercesc_3_1@@@xercesc_3_1@@UAEXK@Z 1202069a f i RegxParser.obj
 0001:0001f722       ?removeLastElement@?$BaseRefVectorOf@VReferencePosition@RegxParser@xercesc_3_1@@@xercesc_3_1@@UAEXXZ 12020722 f i RegxParser.obj
 0001:0001f740       ?cleanup@?$BaseRefVectorOf@VReferencePosition@RegxParser@xercesc_3_1@@@xercesc_3_1@@UAEXXZ 12020740 f i RegxParser.obj
 0001:0001f771       ??0?$RefVectorOf@VReferencePosition@RegxParser@xercesc_3_1@@@xercesc_3_1@@QAE@K_NQAVMemoryManager@1@@Z 12020771 f i RegxParser.obj
 0001:0001f7be       ??_G?$BaseRefVectorOf@VReferencePosition@RegxParser@xercesc_3_1@@@xercesc_3_1@@UAEPAXI@Z 120207be f i RegxParser.obj
 0001:0001f7be       ??_E?$BaseRefVectorOf@VReferencePosition@RegxParser@xercesc_3_1@@@xercesc_3_1@@UAEPAXI@Z 120207be f i * CIL library *:* CIL module *
 0001:0001f7de       ??_G?$RefVectorOf@VReferencePosition@RegxParser@xercesc_3_1@@@xercesc_3_1@@UAEPAXI@Z 120207de f i RegxParser.obj
 0001:0001f7de       ??_E?$RefVectorOf@VReferencePosition@RegxParser@xercesc_3_1@@@xercesc_3_1@@UAEPAXI@Z 120207de f i * CIL library *:* CIL module *
 0001:0001f843       ?decomposeToSurrogates@RegxUtil@xercesc_3_1@@SAPA_WHQAVMemoryManager@2@@Z 12020843 f   RegxUtil.obj
 0001:0001f86e       ?stripExtendedComment@RegxUtil@xercesc_3_1@@SAPA_WQB_WQAVMemoryManager@2@@Z 1202086e f   RegxUtil.obj
 0001:0001f9a7       ??_EStringToken@xercesc_3_1@@UAEPAXI@Z 120209a7 f i StringToken.obj
 0001:0001f9f2       ??0StringToken@xercesc_3_1@@QAE@W4tokType@Token@1@QB_WHQAVMemoryManager@1@@Z 120209f2 f   StringToken.obj
 0001:0001fa3a       ??1StringToken@xercesc_3_1@@UAE@XZ 12020a3a f   StringToken.obj
 0001:0001fa6c       ??_EToken@xercesc_3_1@@UAEPAXI@Z 12020a6c f i Token.obj
 0001:0001fab8       ??0Token@xercesc_3_1@@QAE@W4tokType@01@QAVMemoryManager@1@@Z 12020ab8 f   Token.obj
 0001:0001fad3       ?getMinLength@Token@xercesc_3_1@@QBEKXZ 12020ad3 f   Token.obj
 0001:0001fbfb       ?getMaxLength@Token@xercesc_3_1@@QBEHXZ 12020bfb f   Token.obj
 0001:0001fd37       ?analyzeFirstCharacter@Token@xercesc_3_1@@QAE?AW4firstCharacterOptions@12@QAVRangeToken@2@HQAVTokenFactory@2@@Z 12020d37 f   Token.obj
 0001:0001ff07       ?findFixedString@Token@xercesc_3_1@@QAEPAV12@HAAH@Z 12020f07 f   Token.obj
 0001:0001ffcc       ?isShorterThan@Token@xercesc_3_1@@AAE_NQAV12@@Z 12020fcc f   Token.obj
 0001:00020010       ??0TokenFactory@xercesc_3_1@@QAE@QAVMemoryManager@1@@Z 12021010 f   TokenFactory.obj
 0001:00020062       ?createToken@TokenFactory@xercesc_3_1@@QAEPAVToken@2@W4tokType@32@@Z 12021062 f   TokenFactory.obj
 0001:000200b7       ?createParenthesis@TokenFactory@xercesc_3_1@@QAEPAVParenToken@2@QAVToken@2@H@Z 120210b7 f   TokenFactory.obj
 0001:00020103       ?createClosure@TokenFactory@xercesc_3_1@@QAEPAVClosureToken@2@QAVToken@2@_N@Z 12021103 f   TokenFactory.obj
 0001:00020153       ?createConcat@TokenFactory@xercesc_3_1@@QAEPAVConcatToken@2@QAVToken@2@0@Z 12021153 f   TokenFactory.obj
 0001:00020190       ?createUnion@TokenFactory@xercesc_3_1@@QAEPAVUnionToken@2@_N@Z 12021190 f   TokenFactory.obj
 0001:000201ea       ?createRange@TokenFactory@xercesc_3_1@@QAEPAVRangeToken@2@_N@Z 120211ea f   TokenFactory.obj
 0001:00020234       ?createChar@TokenFactory@xercesc_3_1@@QAEPAVCharToken@2@I_N@Z 12021234 f   TokenFactory.obj
 0001:0002028d       ?createBackReference@TokenFactory@xercesc_3_1@@QAEPAVStringToken@2@H@Z 1202128d f   TokenFactory.obj
 0001:000202de       ?createString@TokenFactory@xercesc_3_1@@QAEPAVStringToken@2@QB_W@Z 120212de f   TokenFactory.obj
 0001:0002032f       ?staticGetRange@TokenFactory@xercesc_3_1@@SAPAVRangeToken@2@QB_W_N@Z 1202132f f   TokenFactory.obj
 0001:00020345       ?getLineBegin@TokenFactory@xercesc_3_1@@QAEPAVToken@2@XZ 12021345 f   TokenFactory.obj
 0001:0002035f       ?getLineEnd@TokenFactory@xercesc_3_1@@QAEPAVToken@2@XZ 1202135f f   TokenFactory.obj
 0001:00020379       ?getDot@TokenFactory@xercesc_3_1@@QAEPAVToken@2@XZ 12021379 f   TokenFactory.obj
 0001:00020391       ??1?$BaseRefVectorOf@VToken@xercesc_3_1@@@xercesc_3_1@@UAE@XZ 12021391 f i TokenFactory.obj
 0001:00020398       ??0?$RefVectorOf@VToken@xercesc_3_1@@@xercesc_3_1@@QAE@K_NQAVMemoryManager@1@@Z 12021398 f i TokenFactory.obj
 0001:000203ed       ??_E?$BaseRefVectorOf@VToken@xercesc_3_1@@@xercesc_3_1@@UAEPAXI@Z 120213ed f i * CIL library *:* CIL module *
 0001:000203ed       ??_G?$BaseRefVectorOf@VToken@xercesc_3_1@@@xercesc_3_1@@UAEPAXI@Z 120213ed f i TokenFactory.obj
 0001:0002040d       ??_E?$RefVectorOf@VToken@xercesc_3_1@@@xercesc_3_1@@UAEPAXI@Z 1202140d f i * CIL library *:* CIL module *
 0001:0002040d       ??_G?$RefVectorOf@VToken@xercesc_3_1@@@xercesc_3_1@@UAEPAXI@Z 1202140d f i TokenFactory.obj
 0001:00020476       ??0UnicodeRangeFactory@xercesc_3_1@@QAE@XZ 12021476 f   UnicodeRangeFactory.obj
 0001:00020485       ?buildRanges@UnicodeRangeFactory@xercesc_3_1@@MAEXPAVRangeTokenMap@2@@Z 12021485 f   UnicodeRangeFactory.obj
 0001:000207a8       ?initializeKeywordMap@UnicodeRangeFactory@xercesc_3_1@@UAEXPAVRangeTokenMap@2@@Z 120217a8 f   UnicodeRangeFactory.obj
 0001:0002083a       ?getUniCategory@UnicodeRangeFactory@xercesc_3_1@@SAGG@Z 1202183a f   UnicodeRangeFactory.obj
 0001:000208b4       ??_EUnionToken@xercesc_3_1@@UAEPAXI@Z 120218b4 f i UnionToken.obj
 0001:000208ff       ??0UnionToken@xercesc_3_1@@QAE@W4tokType@Token@1@QAVMemoryManager@1@@Z 120218ff f   UnionToken.obj
 0001:0002091e       ??1UnionToken@xercesc_3_1@@UAE@XZ 1202191e f   UnionToken.obj
 0001:00020952       ?addChild@UnionToken@xercesc_3_1@@UAEXQAVToken@2@QAVTokenFactory@2@@Z 12021952 f   UnionToken.obj
 0001:00020bc3       ??0XMLRangeFactory@xercesc_3_1@@QAE@XZ 12021bc3 f   XMLRangeFactory.obj
 0001:00020bd2       ?buildRanges@XMLRangeFactory@xercesc_3_1@@MAEXPAVRangeTokenMap@2@@Z 12021bd2 f   XMLRangeFactory.obj
 0001:0002109b       ?initializeKeywordMap@XMLRangeFactory@xercesc_3_1@@UAEXPAVRangeTokenMap@2@@Z 1202209b f   XMLRangeFactory.obj
 0001:00021103       ?getType@XMLUniCharacter@xercesc_3_1@@SAG_W@Z 12022103 f   XMLUniCharacter.obj
 0001:00021115       ??_EWindowsFileMgr@xercesc_3_1@@UAEPAXI@Z 12022115 f i * CIL library *:* CIL module *
 0001:00021115       ??_GXMLFileMgr@xercesc_3_1@@UAEPAXI@Z 12022115 f i WindowsFileMgr.obj
 0001:00021115       ??_GWindowsFileMgr@xercesc_3_1@@UAEPAXI@Z 12022115 f i WindowsFileMgr.obj
 0001:00021115       ??_EXMLFileMgr@xercesc_3_1@@UAEPAXI@Z 12022115 f i * CIL library *:* CIL module *
 0001:00021135       ?fileOpen@WindowsFileMgr@xercesc_3_1@@UAEPAXPB_W_NQAVMemoryManager@2@@Z 12022135 f   WindowsFileMgr.obj
 0001:000212c2       ?fileOpen@WindowsFileMgr@xercesc_3_1@@UAEPAXPBD_NQAVMemoryManager@2@@Z 120222c2 f   WindowsFileMgr.obj
 0001:0002130c       ?openStdIn@WindowsFileMgr@xercesc_3_1@@UAEPAXQAVMemoryManager@2@@Z 1202230c f   WindowsFileMgr.obj
 0001:0002143d       ?fileClose@WindowsFileMgr@xercesc_3_1@@UAEXPAXQAVMemoryManager@2@@Z 1202243d f   WindowsFileMgr.obj
 0001:000214ad       ?fileReset@WindowsFileMgr@xercesc_3_1@@UAEXPAXQAVMemoryManager@2@@Z 120224ad f   WindowsFileMgr.obj
 0001:00021525       ?curPos@WindowsFileMgr@xercesc_3_1@@UAE_KPAXQAVMemoryManager@2@@Z 12022525 f   WindowsFileMgr.obj
 0001:000215c3       ?fileSize@WindowsFileMgr@xercesc_3_1@@UAE_KPAXQAVMemoryManager@2@@Z 120225c3 f   WindowsFileMgr.obj
 0001:00021655       ?fileRead@WindowsFileMgr@xercesc_3_1@@UAEKPAXKPAEQAVMemoryManager@2@@Z 12022655 f   WindowsFileMgr.obj
 0001:000216ed       ?fileWrite@WindowsFileMgr@xercesc_3_1@@UAEXPAXKPBEQAVMemoryManager@2@@Z 120226ed f   WindowsFileMgr.obj
 0001:00021788       ?getFullPath@WindowsFileMgr@xercesc_3_1@@UAEPA_WQB_WQAVMemoryManager@2@@Z 12022788 f   WindowsFileMgr.obj
 0001:00021841       ?getCurrentDirectory@WindowsFileMgr@xercesc_3_1@@UAEPA_WQAVMemoryManager@2@@Z 12022841 f   WindowsFileMgr.obj
 0001:000218bd       ?isRelative@WindowsFileMgr@xercesc_3_1@@UAE_NQB_WQAVMemoryManager@2@@Z 120228bd f   WindowsFileMgr.obj
 0001:0002190d       ??_EWindowsMutexMgr@xercesc_3_1@@UAEPAXI@Z 1202290d f i * CIL library *:* CIL module *
 0001:0002190d       ??_EXMLMutexMgr@xercesc_3_1@@UAEPAXI@Z 1202290d f i * CIL library *:* CIL module *
 0001:0002190d       ??_GXMLMutexMgr@xercesc_3_1@@UAEPAXI@Z 1202290d f i WindowsMutexMgr.obj
 0001:0002190d       ??_GWindowsMutexMgr@xercesc_3_1@@UAEPAXI@Z 1202290d f i WindowsMutexMgr.obj
 0001:0002192d       ?create@WindowsMutexMgr@xercesc_3_1@@UAEPAXQAVMemoryManager@2@@Z 1202292d f   WindowsMutexMgr.obj
 0001:0002194b       ?destroy@WindowsMutexMgr@xercesc_3_1@@UAEXPAXQAVMemoryManager@2@@Z 1202294b f   WindowsMutexMgr.obj
 0001:00021966       ?lock@WindowsMutexMgr@xercesc_3_1@@UAEXPAX@Z 12022966 f   WindowsMutexMgr.obj
 0001:0002196c       ?unlock@WindowsMutexMgr@xercesc_3_1@@UAEXPAX@Z 1202296c f   WindowsMutexMgr.obj
 0001:00021972       ??1XMLFormatTarget@xercesc_3_1@@UAE@XZ 12022972 f i LocalFileFormatTarget.obj
 0001:00021979       ??0XMLFormatTarget@xercesc_3_1@@IAE@XZ 12022979 f i LocalFileFormatTarget.obj
 0001:00021982       ??_EXMLFormatTarget@xercesc_3_1@@UAEPAXI@Z 12022982 f i LocalFileFormatTarget.obj
 0001:000219ce       ??6XMLFormatter@xercesc_3_1@@QAEAAV01@W4EscapeFlags@01@@Z 120229ce f i LocalFileFormatTarget.obj
 0001:000219ce       ??0XMLCanRepGroup@xercesc_3_1@@QAE@W4CanRepGroup@01@@Z 120229ce f i XMLCanRepGroup.obj
 0001:000219ce       ??0XMLInteger@xercesc_3_1@@QAE@H@Z 120229ce f i DFAContentModel.obj
 0001:000219dc       ??6XMLFormatter@xercesc_3_1@@QAEAAV01@W4UnRepFlags@01@@Z 120229dc f i LocalFileFormatTarget.obj
 0001:000219eb       ??_ELocalFileFormatTarget@xercesc_3_1@@UAEPAXI@Z 120229eb f i LocalFileFormatTarget.obj
 0001:00021a36       ??0LocalFileFormatTarget@xercesc_3_1@@QAE@QB_WQAVMemoryManager@1@@Z 12022a36 f   LocalFileFormatTarget.obj
 0001:00021ad1       ??0LocalFileFormatTarget@xercesc_3_1@@QAE@QBDQAVMemoryManager@1@@Z 12022ad1 f   LocalFileFormatTarget.obj
 0001:00021b6c       ??1LocalFileFormatTarget@xercesc_3_1@@UAE@XZ 12022b6c f   LocalFileFormatTarget.obj
 0001:00021be4       ?flush@LocalFileFormatTarget@xercesc_3_1@@UAEXXZ 12022be4 f   LocalFileFormatTarget.obj
 0001:00021c01       ?writeChars@LocalFileFormatTarget@xercesc_3_1@@UAEXQBEKQAVXMLFormatter@2@@Z 12022c01 f   LocalFileFormatTarget.obj
 0001:00021c7e       ?ensureCapacity@LocalFileFormatTarget@xercesc_3_1@@AAEXK@Z 12022c7e f   LocalFileFormatTarget.obj
 0001:00021ccc       ??_FInputSource@xercesc_3_1@@QAEXXZ 12022ccc f i LocalFileInputSource.obj
 0001:00021cd8       ?setIssueFatalErrorIfNotFound@InputSource@xercesc_3_1@@UAEX_N@Z 12022cd8 f i LocalFileInputSource.obj
 0001:00021cd8       ?setExternalElemDeclaration@XMLElementDecl@xercesc_3_1@@QAEX_N@Z 12022cd8 f i XMLDTDDescription.obj
 0001:00021cd8       ?setCreateEntityReferenceNodes@AbstractDOMParser@xercesc_3_1@@QAEX_N@Z 12022cd8 f i XSAnnotation.obj
 0001:00021ce5       ??_ELocalFileInputSource@xercesc_3_1@@UAEPAXI@Z 12022ce5 f i LocalFileInputSource.obj
 0001:00021d36       ??0LocalFileInputSource@xercesc_3_1@@QAE@QB_W0QAVMemoryManager@1@@Z 12022d36 f   LocalFileInputSource.obj
 0001:00021da7       ??0LocalFileInputSource@xercesc_3_1@@QAE@QB_WQAVMemoryManager@1@@Z 12022da7 f   LocalFileInputSource.obj
 0001:00021e84       ??1LocalFileInputSource@xercesc_3_1@@UAE@XZ 12022e84 f   LocalFileInputSource.obj
 0001:00021e8f       ?makeStream@LocalFileInputSource@xercesc_3_1@@UBEPAVBinInputStream@2@XZ 12022e8f f   LocalFileInputSource.obj
 0001:00021eee       ??_FMemBufFormatTarget@xercesc_3_1@@QAEXXZ 12022eee f i MemBufFormatTarget.obj
 0001:00021eff       ??_EMemBufFormatTarget@xercesc_3_1@@UAEPAXI@Z 12022eff f i MemBufFormatTarget.obj
 0001:00021f4a       ??0MemBufFormatTarget@xercesc_3_1@@QAE@KQAVMemoryManager@1@@Z 12022f4a f   MemBufFormatTarget.obj
 0001:00021f90       ??1MemBufFormatTarget@xercesc_3_1@@UAE@XZ 12022f90 f   MemBufFormatTarget.obj
 0001:00021fc2       ?writeChars@MemBufFormatTarget@xercesc_3_1@@UAEXQBEKQAVXMLFormatter@2@@Z 12022fc2 f   MemBufFormatTarget.obj
 0001:00021ffd       ?getRawBuffer@BinMemOutputStream@xercesc_3_1@@QBEPBEXZ 12022ffd f   BinMemOutputStream.obj
 0001:00021ffd       ?getRawBuffer@MemBufFormatTarget@xercesc_3_1@@QBEPBEXZ 12022ffd f   MemBufFormatTarget.obj
 0001:00022030       ?reset@MemBufFormatTarget@xercesc_3_1@@QAEXXZ 12023030 f   MemBufFormatTarget.obj
 0001:0002205f       ?ensureCapacity@MemBufFormatTarget@xercesc_3_1@@AAEXK@Z 1202305f f   MemBufFormatTarget.obj
 0001:000220a5       ??_EMemBufInputSource@xercesc_3_1@@UAEPAXI@Z 120230a5 f i MemBufInputSource.obj
 0001:000220f0       ?setIgnoredCachedDTD@XMLScanner@xercesc_3_1@@QAEX_N@Z 120230f0 f i XMLValidator.obj
 0001:000220f0       ?setCopyBufToStream@MemBufInputSource@xercesc_3_1@@QAEX_N@Z 120230f0 f i MemBufInputSource.obj
 0001:000220fd       ??0MemBufInputSource@xercesc_3_1@@QAE@QBEKQB_W_NQAVMemoryManager@1@@Z 120230fd f   MemBufInputSource.obj
 0001:00022131       ??0MemBufInputSource@xercesc_3_1@@QAE@QBEKQBD_NQAVMemoryManager@1@@Z 12023131 f   MemBufInputSource.obj
 0001:00022165       ??1MemBufInputSource@xercesc_3_1@@UAE@XZ 12023165 f   MemBufInputSource.obj
 0001:00022186       ?resetMemBufInputSource@MemBufInputSource@xercesc_3_1@@QAEXQBEK@Z 12023186 f   MemBufInputSource.obj
 0001:00022199       ?makeStream@MemBufInputSource@xercesc_3_1@@UBEPAVBinInputStream@2@XZ 12023199 f   MemBufInputSource.obj
 0001:000221e1       ??_FStdInInputSource@xercesc_3_1@@QAEXXZ 120231e1 f i StdInInputSource.obj
 0001:000221fc       ??_EStdInInputSource@xercesc_3_1@@UAEPAXI@Z 120231fc f i StdInInputSource.obj
 0001:0002224d       ??0StdInInputSource@xercesc_3_1@@QAE@QAVMemoryManager@1@@Z 1202324d f i StdInInputSource.obj
 0001:0002226d       ??1StdInInputSource@xercesc_3_1@@UAE@XZ 1202326d f i StdInInputSource.obj
 0001:00022278       ?makeStream@StdInInputSource@xercesc_3_1@@UBEPAVBinInputStream@2@XZ 12023278 f   StdInInputSource.obj
 0001:000222e0       ??_EStdOutFormatTarget@xercesc_3_1@@UAEPAXI@Z 120232e0 f i StdOutFormatTarget.obj
 0001:0002232b       ??0StdOutFormatTarget@xercesc_3_1@@QAE@XZ 1202332b f   StdOutFormatTarget.obj
 0001:00022334       ??1StdOutFormatTarget@xercesc_3_1@@UAE@XZ 12023334 f   StdOutFormatTarget.obj
 0001:0002234a       ?flush@StdOutFormatTarget@xercesc_3_1@@UAEXXZ 1202334a f   StdOutFormatTarget.obj
 0001:0002235c       ?writeChars@StdOutFormatTarget@xercesc_3_1@@UAEXQBEKQAVXMLFormatter@2@@Z 1202335c f   StdOutFormatTarget.obj
 0001:000223d8       ??_EURLInputSource@xercesc_3_1@@UAEPAXI@Z 120233d8 f i URLInputSource.obj
 0001:00022423       ?getChildNodes@DOMDocumentImpl@xercesc_3_1@@UBEPAVDOMNodeList@2@XZ 12023423 f i DOMDocumentImpl.obj
 0001:00022423       ?getChildNodes@DOMDocumentTypeImpl@xercesc_3_1@@UBEPAVDOMNodeList@2@XZ 12023423 f i DOMDocumentTypeImpl.obj
 0001:00022423       ?getChildNodes@DOMAttrImpl@xercesc_3_1@@UBEPAVDOMNodeList@2@XZ 12023423 f i DOMAttrImpl.obj
 0001:00022423       ?getChildNodes@DOMEntityReferenceImpl@xercesc_3_1@@UBEPAVDOMNodeList@2@XZ 12023423 f i DOMEntityReferenceImpl.obj
 0001:00022423       ?getChildNodes@DOMDocumentFragmentImpl@xercesc_3_1@@UBEPAVDOMNodeList@2@XZ 12023423 f i DOMDocumentFragmentImpl.obj
 0001:00022423       ?getChildNodes@DOMElementImpl@xercesc_3_1@@UBEPAVDOMNodeList@2@XZ 12023423 f i DOMElementImpl.obj
 0001:00022423       ?urlSrc@URLInputSource@xercesc_3_1@@QBEABVXMLURL@2@XZ 12023423 f i URLInputSource.obj
 0001:00022427       ??0URLInputSource@xercesc_3_1@@QAE@ABVXMLURL@1@QAVMemoryManager@1@@Z 12023427 f   URLInputSource.obj
 0001:0002247b       ??0URLInputSource@xercesc_3_1@@QAE@QB_W0QAVMemoryManager@1@@Z 1202347b f   URLInputSource.obj
 0001:000224d8       ??0URLInputSource@xercesc_3_1@@QAE@QB_W00QAVMemoryManager@1@@Z 120234d8 f   URLInputSource.obj
 0001:0002253a       ??0URLInputSource@xercesc_3_1@@QAE@QB_WQBDQAVMemoryManager@1@@Z 1202353a f   URLInputSource.obj
 0001:00022597       ??0URLInputSource@xercesc_3_1@@QAE@QB_WQBD1QAVMemoryManager@1@@Z 12023597 f   URLInputSource.obj
 0001:000225f9       ??1URLInputSource@xercesc_3_1@@UAE@XZ 120235f9 f   URLInputSource.obj
 0001:00022633       ?makeStream@URLInputSource@xercesc_3_1@@UBEPAVBinInputStream@2@XZ 12023633 f   URLInputSource.obj
 0001:0002263e       ??_EWrapper4DOMLSInput@xercesc_3_1@@UAEPAXI@Z 1202363e f i Wrapper4DOMLSInput.obj
 0001:00022689       ??0DOMLSInput@xercesc_3_1@@IAE@XZ 12023689 f i Wrapper4DOMLSInput.obj
 0001:00022692       ??1DOMLSInput@xercesc_3_1@@UAE@XZ 12023692 f i Wrapper4DOMLSInput.obj
 0001:00022699       ??_EDOMLSInput@xercesc_3_1@@UAEPAXI@Z 12023699 f i Wrapper4DOMLSInput.obj
 0001:000226e6       ??0DOMLSResourceResolver@xercesc_3_1@@IAE@XZ 120236e6 f i Wrapper4DOMLSInput.obj
 0001:000226ef       ??1DOMLSResourceResolver@xercesc_3_1@@UAE@XZ 120236ef f i Wrapper4DOMLSInput.obj
 0001:000226f6       ??_EDOMLSResourceResolver@xercesc_3_1@@UAEPAXI@Z 120236f6 f i Wrapper4DOMLSInput.obj
 0001:00022743       ??0Wrapper4DOMLSInput@xercesc_3_1@@QAE@QAVDOMLSInput@1@PAVDOMLSResourceResolver@1@_NQAVMemoryManager@1@@Z 12023743 f   Wrapper4DOMLSInput.obj
 0001:000227ad       ??1Wrapper4DOMLSInput@xercesc_3_1@@UAE@XZ 120237ad f   Wrapper4DOMLSInput.obj
 0001:000227ec       ?getIssueFatalErrorIfNotFound@Wrapper4DOMLSInput@xercesc_3_1@@UBE_NXZ 120237ec f   Wrapper4DOMLSInput.obj
 0001:000227f4       ?getEncoding@Wrapper4DOMLSInput@xercesc_3_1@@UBEPB_WXZ 120237f4 f   Wrapper4DOMLSInput.obj
 0001:00022808       ?getSystemId@Wrapper4DOMLSInput@xercesc_3_1@@UBEPB_WXZ 12023808 f   Wrapper4DOMLSInput.obj
 0001:00022810       ?getPublicId@Wrapper4DOMLSInput@xercesc_3_1@@UBEPB_WXZ 12023810 f   Wrapper4DOMLSInput.obj
 0001:00022818       ?setIssueFatalErrorIfNotFound@Wrapper4DOMLSInput@xercesc_3_1@@UAEX_N@Z 12023818 f   Wrapper4DOMLSInput.obj
 0001:00022824       ?setEncoding@Wrapper4DOMLSInput@xercesc_3_1@@UAEXQB_W@Z 12023824 f   Wrapper4DOMLSInput.obj
 0001:00022830       ?setPublicId@Wrapper4DOMLSInput@xercesc_3_1@@UAEXQB_W@Z 12023830 f   Wrapper4DOMLSInput.obj
 0001:0002283c       ?setSystemId@Wrapper4DOMLSInput@xercesc_3_1@@UAEXQB_W@Z 1202383c f   Wrapper4DOMLSInput.obj
 0001:00022848       ?makeStream@Wrapper4DOMLSInput@xercesc_3_1@@UBEPAVBinInputStream@2@XZ 12023848 f   Wrapper4DOMLSInput.obj
 0001:00022a5e       ??_EWrapper4InputSource@xercesc_3_1@@UAEPAXI@Z 12023a5e f i Wrapper4InputSource.obj
 0001:00022aaa       ??0Wrapper4InputSource@xercesc_3_1@@QAE@QAVInputSource@1@_NQAVMemoryManager@1@@Z 12023aaa f   Wrapper4InputSource.obj
 0001:00022b00       ??1Wrapper4InputSource@xercesc_3_1@@UAE@XZ 12023b00 f   Wrapper4InputSource.obj
 0001:00022b3a       ?getIssueFatalErrorIfNotFound@Wrapper4InputSource@xercesc_3_1@@UBE_NXZ 12023b3a f   Wrapper4InputSource.obj
 0001:00022b42       ?getEncoding@Wrapper4InputSource@xercesc_3_1@@UBEPB_WXZ 12023b42 f   Wrapper4InputSource.obj
 0001:00022b4a       ?getSystemId@Wrapper4InputSource@xercesc_3_1@@UBEPB_WXZ 12023b4a f   Wrapper4InputSource.obj
 0001:00022b52       ?getPublicId@Wrapper4InputSource@xercesc_3_1@@UBEPB_WXZ 12023b52 f   Wrapper4InputSource.obj
 0001:00022b5a       ?setIssueFatalErrorIfNotFound@Wrapper4InputSource@xercesc_3_1@@UAEX_N@Z 12023b5a f   Wrapper4InputSource.obj
 0001:00022b66       ?setEncoding@Wrapper4InputSource@xercesc_3_1@@UAEXQB_W@Z 12023b66 f   Wrapper4InputSource.obj
 0001:00022b72       ?setPublicId@Wrapper4InputSource@xercesc_3_1@@UAEXQB_W@Z 12023b72 f   Wrapper4InputSource.obj
 0001:00022b7e       ?setSystemId@Wrapper4InputSource@xercesc_3_1@@UAEXQB_W@Z 12023b7e f   Wrapper4InputSource.obj
 0001:00022b8a       ?release@Wrapper4InputSource@xercesc_3_1@@UAEXXZ 12023b8a f   Wrapper4InputSource.obj
 0001:00022b8a       ?release@DOMImplementationListImpl@xercesc_3_1@@UAEXXZ 12023b8a f   DOMImplementationListImpl.obj
 0001:00022b8a       ?release@DOMXPathNSResolverImpl@xercesc_3_1@@UAEXXZ 12023b8a f   DOMXPathNSResolverImpl.obj
 0001:00022b8a       ?release@DOMLSSerializerImpl@xercesc_3_1@@UAEXXZ 12023b8a f   DOMLSSerializerImpl.obj
 0001:00022b8a       ?release@DOMXPathExpressionImpl@xercesc_3_1@@UAEXXZ 12023b8a f   DOMXPathExpressionImpl.obj
 0001:00022b8a       ?release@DOMLSOutputImpl@xercesc_3_1@@UAEXXZ 12023b8a f   DOMLSOutputImpl.obj
 0001:00022b8a       ?release@DOMLSInputImpl@xercesc_3_1@@UAEXXZ 12023b8a f   DOMLSInputImpl.obj
 0001:00022b8a       ?release@DOMXPathResultImpl@xercesc_3_1@@UAEXXZ 12023b8a f   DOMXPathResultImpl.obj
 0001:00022b8a       ?release@DOMStringListImpl@xercesc_3_1@@UAEXXZ 12023b8a f   DOMStringListImpl.obj
 0001:00022b95       ??_FXMLAttDef@xercesc_3_1@@QAEXXZ 12023b95 f i XMLAttDef.obj
 0001:00022ba5       ??_EXMLAttDef@xercesc_3_1@@UAEPAXI@Z 12023ba5 f i XMLAttDef.obj
 0001:00022bf0       ?isExternal@XMLAttDef@xercesc_3_1@@QBE_NXZ 12023bf0 f i XMLAttDef.obj
 0001:00022bf0       ?getValidationConstraintFatal@XMLScanner@xercesc_3_1@@QBE_NXZ 12023bf0 f i XMLValidator.obj
 0001:00022bf4       ?setEnumeration@XMLAttDef@xercesc_3_1@@QAEXQB_W@Z 12023bf4 f i XMLAttDef.obj
 0001:00022c20       ?setType@DOMErrorImpl@xercesc_3_1@@QAEXPB_W@Z 12023c20 f i DOMLSParserImpl.obj
 0001:00022c20       ?setContentSpec@XercesGroupInfo@xercesc_3_1@@QAEXQAVContentSpecNode@2@@Z 12023c20 f i XMLGrammarPoolImpl.obj
 0001:00022c20       ?setValidatingMemberType@ValidationContextImpl@xercesc_3_1@@UAEXPAVDatatypeValidator@2@@Z 12023c20 f i ValidationContextImpl.obj
 0001:00022c20       ?setId@XMLAttDef@xercesc_3_1@@QAEXK@Z 12023c20 f i XMLAttDef.obj
 0001:00022c20       ?setFinalSet@ComplexTypeInfo@xercesc_3_1@@QAEXH@Z 12023c20 f i XMLElementDecl.obj
 0001:00022c20       ?setFilter@DOMLSSerializerImpl@xercesc_3_1@@UAEXPAVDOMLSSerializerFilter@2@@Z 12023c20 f i DOMLSSerializerImpl.obj
 0001:00022c20       ?setGrammar@DTDValidator@xercesc_3_1@@UAEXPAVGrammar@2@@Z 12023c20 f i DGXMLScanner.obj
 0001:00022c20       ?setFilter@DOMLSParserImpl@xercesc_3_1@@UAEXQAVDOMLSParserFilter@2@@Z 12023c20 f i DOMLSParserImpl.obj
 0001:00022c2d       ?setValue@XMLAttDef@xercesc_3_1@@QAEXQB_W@Z 12023c2d f i XMLAttDef.obj
 0001:00022c59       ?setValidationConstraintFatal@XMLScanner@xercesc_3_1@@QAEX_N@Z 12023c59 f i XMLValidator.obj
 0001:00022c59       ?setExternalAttDeclaration@XMLAttDef@xercesc_3_1@@QAEX_N@Z 12023c59 f i XMLAttDef.obj
 0001:00022c59       ?toCheckIdRefList@ValidationContextImpl@xercesc_3_1@@UAEX_N@Z 12023c59 f i ValidationContextImpl.obj
 0001:00022c66       ?getAttTypeString@XMLAttDef@xercesc_3_1@@SAPB_WW4AttTypes@12@QAVMemoryManager@2@@Z 12023c66 f   XMLAttDef.obj
 0001:00022ca4       ?getDefAttTypeString@XMLAttDef@xercesc_3_1@@SAPB_WW4DefAttTypes@12@QAVMemoryManager@2@@Z 12023ca4 f   XMLAttDef.obj
 0001:00022ce2       ??1XMLAttDef@xercesc_3_1@@UAE@XZ 12023ce2 f   XMLAttDef.obj
 0001:00022d0e       ??0XMLAttDef@xercesc_3_1@@IAE@W4AttTypes@01@W4DefAttTypes@01@QAVMemoryManager@1@@Z 12023d0e f   XMLAttDef.obj
 0001:00022d44       ??0XMLAttDef@xercesc_3_1@@IAE@QB_WW4AttTypes@01@W4DefAttTypes@01@0QAVMemoryManager@1@@Z 12023d44 f   XMLAttDef.obj
 0001:00022dcb       ?cleanUp@XMLAttDef@xercesc_3_1@@AAEXXZ 12023dcb f   XMLAttDef.obj
 0001:00022df2       ?getProtoType@XMLAttDef@xercesc_3_1@@UBEPAVXProtoType@2@XZ 12023df2 f   XMLAttDef.obj
 0001:00022df8       ?serialize@XMLAttDef@xercesc_3_1@@UAEXAAVXSerializeEngine@2@@Z 12023df8 f   XMLAttDef.obj
 0001:00022ed1       ??_FXMLAttDefList@xercesc_3_1@@QAEXXZ 12023ed1 f i XMLAttDefList.obj
 0001:00022ee0       ??_EXMLGrammarDescription@xercesc_3_1@@UAEPAXI@Z 12023ee0 f i XMLGrammarDescription.obj
 0001:00022ee0       ??_EXMLAttDefList@xercesc_3_1@@UAEPAXI@Z 12023ee0 f i XMLAttDefList.obj
 0001:00022ee0       ??_EXMLDTDDescription@xercesc_3_1@@UAEPAXI@Z 12023ee0 f i XMLDTDDescription.obj
 0001:00022ee0       ??_EXMLSchemaDescription@xercesc_3_1@@UAEPAXI@Z 12023ee0 f i XMLSchemaDescription.obj
 0001:00022f2c       ??0XMLAttDefList@xercesc_3_1@@IAE@QAVMemoryManager@1@@Z 12023f2c f i XMLAttDefList.obj
 0001:00022f41       ?getProtoType@XMLAttDefList@xercesc_3_1@@UBEPAVXProtoType@2@XZ 12023f41 f   XMLAttDefList.obj
 0001:00022f47       ?getFinal@XSTypeDefinition@xercesc_3_1@@QBEFXZ 12023f47 f i XMLAttr.obj
 0001:00022f4c       ?getMemberTypeDefinition@PSVIElement@xercesc_3_1@@UAEPAVXSSimpleTypeDefinition@2@XZ 12023f4c f i PSVIElement.obj
 0001:00022f4c       ?getValidSubstitutionGroups@SchemaGrammar@xercesc_3_1@@QBEPAV?$RefHash2KeysTableOf@V?$ValueVectorOf@PAVSchemaElementDecl@xercesc_3_1@@@xercesc_3_1@@UStringHasher@2@@2@XZ 12023f4c f i XMLGrammarPoolImpl.obj
 0001:00022f4c       ?getCurrentDatatypeValidator@SchemaValidator@xercesc_3_1@@QBEPAVDatatypeValidator@2@XZ 12023f4c f i IGXMLScanner.obj
 0001:00022f4c       ?getNodeName@DOMDocumentTypeImpl@xercesc_3_1@@UBEPB_WXZ 12023f4c f i DOMDocumentTypeImpl.obj
 0001:00022f4c       ?getMemoryManager@XMLEntityDecl@xercesc_3_1@@QBEPAVMemoryManager@2@XZ 12023f4c f i XMLDTDDescription.obj
 0001:00022f4c       ?getPSVIScope@SchemaAttDef@xercesc_3_1@@QBE?AW4PSVIScope@PSVIDefs@2@XZ 12023f4c f i XMLElementDecl.obj
 0001:00022f4c       ?getAttributes@DOMElementImpl@xercesc_3_1@@UBEPAVDOMNamedNodeMap@2@XZ 12023f4c f i DOMElementImpl.obj
 0001:00022f4c       ?getErrorCount@XMLScanner@xercesc_3_1@@QAEHXZ 12023f4c f i XMLValidator.obj
 0001:00022f4c       ?getField@FieldMatcher@xercesc_3_1@@QBEPAVIC_Field@2@XZ 12023f4c f i XMLElementDecl.obj
 0001:00022f4c       ?getNodeName@DOMEntityReferenceImpl@xercesc_3_1@@UBEPB_WXZ 12023f4c f i DOMEntityReferenceImpl.obj
 0001:00022f4c       ?getSubstitutionGroupAffiliation@XSElementDeclaration@xercesc_3_1@@QBEPAV12@XZ 12023f4c f i PSVIElement.obj
 0001:00022f4c       ?getBlockSet@SchemaElementDecl@xercesc_3_1@@QBEHXZ 12023f4c f i XMLElementDecl.obj
 0001:00022f4c       ?getFullName@DTDAttDef@xercesc_3_1@@UBEPB_WXZ 12023f4c f i XMLElementDecl.obj
 0001:00022f4c       ?getRelatedNode@DOMLocatorImpl@xercesc_3_1@@UBEPAVDOMNode@2@XZ 12023f4c f i DOMLSParserImpl.obj
 0001:00022f4c       ?getCurrentNode@AbstractDOMParser@xercesc_3_1@@IAEPAVDOMNode@2@XZ 12023f4c f i XSAnnotation.obj
 0001:00022f4c       ?getPattern@DatatypeValidator@xercesc_3_1@@IBEPB_WXZ 12023f4c f i XMLAttr.obj
 0001:00022f4c       ?getVariety@XSSimpleTypeDefinition@xercesc_3_1@@QBE?AW4VARIETY@12@XZ 12023f4c f i XMLAttr.obj
 0001:00022f4c       ?getMemberTypeDefinition@PSVIAttribute@xercesc_3_1@@UAEPAVXSSimpleTypeDefinition@2@XZ 12023f4c f i PSVIAttribute.obj
 0001:00022f4c       ?getSystemId@DOMEntityImpl@xercesc_3_1@@UBEPB_WXZ 12023f4c f i DOMEntityImpl.obj
 0001:00022f4c       ?getNamespaceURI@DOMAttrNSImpl@xercesc_3_1@@UBEPB_WXZ 12023f4c f i DOMAttrNSImpl.obj
 0001:00022f4c       ?getAttributeUses@XSComplexTypeDefinition@xercesc_3_1@@QAEPAV?$RefVectorOf@VXSAttributeUse@xercesc_3_1@@@2@XZ 12023f4c f i PSVIElement.obj
 0001:00022f4c       ?getName@DOMDocumentTypeImpl@xercesc_3_1@@UBEPB_WXZ 12023f4c f i DOMDocumentTypeImpl.obj
 0001:00022f50       ?getPrimitiveType@XSSimpleTypeDefinition@xercesc_3_1@@QAEPAV12@XZ 12023f50 f i XMLAttr.obj
 0001:00022f5d       ?getItemType@XSSimpleTypeDefinition@xercesc_3_1@@QAEPAV12@XZ 12023f5d f i XMLAttr.obj
 0001:00022f6a       ?getAttWildCard@SchemaElementDecl@xercesc_3_1@@QBEPBVSchemaAttDef@2@XZ 12023f6a f i XMLElementDecl.obj
 0001:00022f6a       ?getXMLNSNamespaceId@XMLScanner@xercesc_3_1@@QBEIXZ 12023f6a f i XMLValidator.obj
 0001:00022f6a       ?getMemberTypes@XSSimpleTypeDefinition@xercesc_3_1@@QBEPAV?$RefVectorOf@VXSSimpleTypeDefinition@xercesc_3_1@@@2@XZ 12023f6a f i XMLAttr.obj
 0001:00022f6a       ?getDocumentURI@DOMDocumentImpl@xercesc_3_1@@UBEPB_WXZ 12023f6a f i DOMDocumentImpl.obj
 0001:00022f6a       ?getAttWildCard@SchemaElementDecl@xercesc_3_1@@QAEPAVSchemaAttDef@2@XZ 12023f6a f i XMLElementDecl.obj
 0001:00022f6a       ?getLength@AbstractStringValidator@xercesc_3_1@@QBEKXZ 12023f6a f i XMLGrammarPoolImpl.obj
 0001:00022f6a       ?getBaseComplexTypeInfo@ComplexTypeInfo@xercesc_3_1@@QBEPAV12@XZ 12023f6a f i XMLElementDecl.obj
 0001:00022f6a       ?getXMLEntityResolver@SAXParser@xercesc_3_1@@QBEPBVXMLEntityResolver@2@XZ 12023f6a f i SAX2XMLReaderImpl.obj
 0001:00022f6a       ?getInternalSubset@DOMDocumentTypeImpl@xercesc_3_1@@UBEPB_WXZ 12023f6a f i DOMDocumentTypeImpl.obj
 0001:00022f6a       ?getBaseURI@DOMEntityImpl@xercesc_3_1@@UBEPB_WXZ 12023f6a f i DOMEntityImpl.obj
 0001:00022f6a       ?getXMLEntityResolver@SAXParser@xercesc_3_1@@QAEPAVXMLEntityResolver@2@XZ 12023f6a f i SAX2XMLReaderImpl.obj
 0001:00022f6a       ?getContentLeafNameTypeVector@DFAContentModel@xercesc_3_1@@UBEPAVContentLeafNameTypeVector@2@XZ 12023f6a f i DFAContentModel.obj
 0001:00022f6e       ?getTypeUri@DatatypeValidator@xercesc_3_1@@QBEPB_WXZ 12023f6e f i XMLAttr.obj
 0001:00022f6e       ?getLocalName@DOMElementNSImpl@xercesc_3_1@@UBEPB_WXZ 12023f6e f i DOMElementNSImpl.obj
 0001:00022f6e       ?getAnnotations@SchemaGrammar@xercesc_3_1@@QAEPAV?$RefHashTableOf@VXSAnnotation@xercesc_3_1@@UPtrHasher@2@@2@XZ 12023f6e f i XMLGrammarPoolImpl.obj
 0001:00022f6e       ?getLexicalPattern@XSSimpleTypeDefinition@xercesc_3_1@@QAEPAV?$RefArrayVectorOf@_W@2@XZ 12023f6e f i XMLAttr.obj
 0001:00022f6e       ?getUnknownNamespaceId@XMLScanner@xercesc_3_1@@QBEIXZ 12023f6e f i XMLValidator.obj
 0001:00022f6e       ?getXmlEncoding@DOMEntityImpl@xercesc_3_1@@UBEPB_WXZ 12023f6e f i DOMEntityImpl.obj
 0001:00022f6e       ?getAnnotations@SchemaGrammar@xercesc_3_1@@QBEPBV?$RefHashTableOf@VXSAnnotation@xercesc_3_1@@UPtrHasher@2@@2@XZ 12023f6e f i XMLGrammarPoolImpl.obj
 0001:00022f6e       ?getPublicId@DOMDocumentTypeImpl@xercesc_3_1@@UBEPB_WXZ 12023f6e f i DOMDocumentTypeImpl.obj
 0001:00022f6e       ?getBaseDatatypeValidator@ComplexTypeInfo@xercesc_3_1@@QBEPAVDatatypeValidator@2@XZ 12023f6e f i XMLElementDecl.obj
 0001:00022f6e       ?getBaseAttDecl@SchemaAttDef@xercesc_3_1@@QBEPBV12@XZ 12023f6e f i XMLElementDecl.obj
 0001:00022f6e       ?getBaseAttDecl@SchemaAttDef@xercesc_3_1@@QAEPAV12@XZ 12023f6e f i XMLElementDecl.obj
 0001:00022f72       ?getDocumentHandler@SAXParser@xercesc_3_1@@QBEPBVDocumentHandler@2@XZ 12023f72 f i SAX2XMLReaderImpl.obj
 0001:00022f72       ?getXmlEncoding@DOMDocumentImpl@xercesc_3_1@@UBEPB_WXZ 12023f72 f i DOMDocumentImpl.obj
 0001:00022f72       ?getNamespaceList@SchemaAttDef@xercesc_3_1@@QBEPAV?$ValueVectorOf@I@2@XZ 12023f72 f i XMLElementDecl.obj
 0001:00022f72       ?getGrammarDescription@SchemaGrammar@xercesc_3_1@@UBEPAVXMLGrammarDescription@2@XZ 12023f72 f i XMLGrammarPoolImpl.obj
 0001:00022f72       ?getDocumentHandler@SAXParser@xercesc_3_1@@QAEPAVDocumentHandler@2@XZ 12023f72 f i SAX2XMLReaderImpl.obj
 0001:00022f72       ?getRecursingTypeNames@SchemaInfo@xercesc_3_1@@QBEPAV?$ValueVectorOf@PB_W@2@XZ 12023f72 f i IGXMLScanner.obj
 0001:00022f72       ?getElements@DOMDocumentTypeImpl@xercesc_3_1@@UBEPAVDOMNamedNodeMap@2@XZ 12023f72 f i DOMDocumentTypeImpl.obj
 0001:00022f72       ?getBaseURI@DOMDocumentImpl@xercesc_3_1@@UBEPB_WXZ 12023f72 f i DOMDocumentImpl.obj
 0001:00022f72       ?getParticle@XSComplexTypeDefinition@xercesc_3_1@@QBEPAVXSParticle@2@XZ 12023f72 f i PSVIElement.obj
 0001:00022f72       ?getComplexTypeInfo@SchemaElementDecl@xercesc_3_1@@QBEPAVComplexTypeInfo@2@XZ 12023f72 f i XMLElementDecl.obj
 0001:00022f72       ?getEmptyNamespaceId@XMLScanner@xercesc_3_1@@QBEIXZ 12023f72 f i XMLValidator.obj
 0001:00022f72       ?getTypeLocalName@DatatypeValidator@xercesc_3_1@@QBEPB_WXZ 12023f72 f i XMLAttr.obj
 0001:00022f72       ?getMultiValueFacets@XSSimpleTypeDefinition@xercesc_3_1@@QAEPAV?$RefVectorOf@VXSMultiValueFacet@xercesc_3_1@@@2@XZ 12023f72 f i XMLAttr.obj
 0001:00022f72       ?getTypeUri@ComplexTypeInfo@xercesc_3_1@@QBEPB_WXZ 12023f72 f i XMLElementDecl.obj
 0001:00022f72       ?getSchemaInformation@PSVIElement@xercesc_3_1@@QAEPAVXSModel@2@XZ 12023f72 f i PSVIElement.obj
 0001:00022f72       ?getNamespaceURI@DOMElementNSImpl@xercesc_3_1@@UBEPB_WXZ 12023f72 f i DOMElementNSImpl.obj
 0001:00022f72       ?getInputEncoding@DOMEntityImpl@xercesc_3_1@@UBEPB_WXZ 12023f72 f i DOMEntityImpl.obj
 0001:00022f76       ?setPrimitiveType@XSSimpleTypeDefinition@xercesc_3_1@@AAEXQAV12@@Z 12023f76 f i XMLAttr.obj
 0001:00022f76       ?setDatatypeValidator@ComplexTypeInfo@xercesc_3_1@@QAEXQAVDatatypeValidator@2@@Z 12023f76 f i XMLElementDecl.obj
 0001:00022f83       ?getSimpleType@XSComplexTypeDefinition@xercesc_3_1@@QBEPAVXSSimpleTypeDefinition@2@XZ 12023f83 f i PSVIElement.obj
 0001:00022f83       ?getLocalName@DOMAttrNSImpl@xercesc_3_1@@UBEPB_WXZ 12023f83 f i DOMAttrNSImpl.obj
 0001:00022f83       ?getRegex@DatatypeValidator@xercesc_3_1@@IBEPAVRegularExpression@2@XZ 12023f83 f i XMLAttr.obj
 0001:00022f83       ?getMiscFlags@SchemaElementDecl@xercesc_3_1@@QBEHXZ 12023f83 f i XMLElementDecl.obj
 0001:00022f83       ?getURI@DOMLocatorImpl@xercesc_3_1@@UBEPB_WXZ 12023f83 f i DOMLSParserImpl.obj
 0001:00022f83       ?getTypeName@ComplexTypeInfo@xercesc_3_1@@QBEPA_WXZ 12023f83 f i XMLElementDecl.obj
 0001:00022f83       ?getAnnotation@XSElementDeclaration@xercesc_3_1@@QBEPAVXSAnnotation@2@XZ 12023f83 f i PSVIElement.obj
 0001:00022f83       ?getDatatypeValidator@XSSimpleTypeDefinition@xercesc_3_1@@QBEPAVDatatypeValidator@2@XZ 12023f83 f i XMLAttr.obj
 0001:00022f83       ?getNotationName@DOMEntityImpl@xercesc_3_1@@UBEPB_WXZ 12023f83 f i DOMEntityImpl.obj
 0001:00022f83       ?getElementDeclaration@PSVIElement@xercesc_3_1@@QAEPAVXSElementDeclaration@2@XZ 12023f83 f i PSVIElement.obj
 0001:00022f83       ?getAttributeDeclaration@PSVIAttribute@xercesc_3_1@@QAEPAVXSAttributeDeclaration@2@XZ 12023f83 f i PSVIAttribute.obj
 0001:00022f83       ?getDefaultAttributes@DOMElementImpl@xercesc_3_1@@UBEPAVDOMAttrMapImpl@2@XZ 12023f83 f i DOMElementImpl.obj
 0001:00022f83       ?getEntities@DOMDocumentTypeImpl@xercesc_3_1@@UBEPAVDOMNamedNodeMap@2@XZ 12023f83 f i DOMDocumentTypeImpl.obj
 0001:00022f83       ?getValidationContext@SchemaGrammar@xercesc_3_1@@QBEPAVValidationContext@2@XZ 12023f83 f i XMLGrammarPoolImpl.obj
 0001:00022f83       ?getBaseURI@DOMEntityReferenceImpl@xercesc_3_1@@UBEPB_WXZ 12023f83 f i DOMEntityReferenceImpl.obj
 0001:00022f83       ?getAttName@SchemaAttDef@xercesc_3_1@@QBEPAVQName@2@XZ 12023f83 f i XMLElementDecl.obj
 0001:00022f87       ??1ValidationContext@xercesc_3_1@@UAE@XZ 12023f87 f i XMLAttr.obj
 0001:00022f8e       ??0ValidationContext@xercesc_3_1@@IAE@QAVMemoryManager@1@@Z 12023f8e f i XMLAttr.obj
 0001:00022fa3       ??_FValidationContext@xercesc_3_1@@QAEXXZ 12023fa3 f i XMLAttr.obj
 0001:00022fb2       ??_EValidationContext@xercesc_3_1@@UAEPAXI@Z 12023fb2 f i XMLAttr.obj
 0001:00022ffe       ?getWSFacet@DatatypeValidator@xercesc_3_1@@QBEFXZ 12023ffe f i XMLAttr.obj
 0001:00023003       ?getCheckElementConsistency@XercesGroupInfo@xercesc_3_1@@QBE_NXZ 12024003 f i XMLGrammarPoolImpl.obj
 0001:00023003       ?getExitOnFirstFatal@XSDErrorReporter@xercesc_3_1@@QBE_NXZ 12024003 f i IGXMLScanner.obj
 0001:00023003       ?getAnonymous@ComplexTypeInfo@xercesc_3_1@@QBE_NXZ 12024003 f i XMLElementDecl.obj
 0001:00023003       ?getDeclared@XMLRefInfo@xercesc_3_1@@QBE_NXZ 12024003 f i XMLGrammarPoolImpl.obj
 0001:00023003       ?containsTypeWithId@XercesAttGroupInfo@xercesc_3_1@@QBE_NXZ 12024003 f i XMLGrammarPoolImpl.obj
 0001:00023003       ?getAnonymous@DatatypeValidator@xercesc_3_1@@QBE_NXZ 12024003 f i XMLAttr.obj
 0001:00023007       ?getDatatypeValidator@ComplexTypeInfo@xercesc_3_1@@QBEPAVDatatypeValidator@2@XZ 12024007 f i XMLElementDecl.obj
 0001:00023007       ?getPrefix@DOMElementNSImpl@xercesc_3_1@@UBEPB_WXZ 12024007 f i DOMElementNSImpl.obj
 0001:00023007       ?getXmlVersion@DOMEntityImpl@xercesc_3_1@@UBEPB_WXZ 12024007 f i DOMEntityImpl.obj
 0001:00023007       ?getSystemId@DOMDocumentTypeImpl@xercesc_3_1@@UBEPB_WXZ 12024007 f i DOMDocumentTypeImpl.obj
 0001:00023007       ?getGrammarResolver@AbstractDOMParser@xercesc_3_1@@IBEPAVGrammarResolver@2@XZ 12024007 f i XSAnnotation.obj
 0001:00023007       ?getMemoryManager@DatatypeValidator@xercesc_3_1@@QBEPAVMemoryManager@2@XZ 12024007 f i XMLAttr.obj
 0001:00023007       ?getEntityResolver@SAXParser@xercesc_3_1@@QAEPAVEntityResolver@2@XZ 12024007 f i SAX2XMLReaderImpl.obj
 0001:00023007       ?getEntityResolver@SAXParser@xercesc_3_1@@QBEPBVEntityResolver@2@XZ 12024007 f i SAX2XMLReaderImpl.obj
 0001:00023007       ?getXmlVersion@DOMDocumentImpl@xercesc_3_1@@UBEPB_WXZ 12024007 f i DOMDocumentImpl.obj
 0001:00023007       ?getContentHandler@SAX2XMLReaderImpl@xercesc_3_1@@UBEPAVContentHandler@2@XZ 12024007 f i SAX2XMLReaderImpl.obj
 0001:00023007       ?getXMLNamespaceId@XMLScanner@xercesc_3_1@@QBEIXZ 12024007 f i XMLValidator.obj
 0001:0002300b       ?getAbstract@ComplexTypeInfo@xercesc_3_1@@QBE_NXZ 1202400b f i XMLElementDecl.obj
 0001:0002300b       ?getUsed@XMLRefInfo@xercesc_3_1@@QBE_NXZ 1202400b f i XMLGrammarPoolImpl.obj
 0001:0002300b       ?getFinite@DatatypeValidator@xercesc_3_1@@QBE_NXZ 1202400b f i XMLAttr.obj
 0001:0002300f       ?getAdoptContentSpec@ComplexTypeInfo@xercesc_3_1@@QBE_NXZ 1202400f f i XMLElementDecl.obj
 0001:0002300f       ?getBounded@DatatypeValidator@xercesc_3_1@@QBE_NXZ 1202400f f i XMLAttr.obj
 0001:00023013       ?getNumeric@DatatypeValidator@xercesc_3_1@@QBE_NXZ 12024013 f i XMLAttr.obj
 0001:00023013       ?containsAttWithTypeId@ComplexTypeInfo@xercesc_3_1@@QBE_NXZ 12024013 f i XMLElementDecl.obj
 0001:00023017       ?setWhiteSpace@DatatypeValidator@xercesc_3_1@@IAEXF@Z 12024017 f i XMLAttr.obj
 0001:00023026       ?setFacetsDefined@DatatypeValidator@xercesc_3_1@@IAEXH@Z 12024026 f i XMLAttr.obj
 0001:00023033       ?setFixed@DatatypeValidator@xercesc_3_1@@IAEXH@Z 12024033 f i XMLAttr.obj
 0001:00023040       ?setPattern@DatatypeValidator@xercesc_3_1@@IAEXPB_W@Z 12024040 f i XMLAttr.obj
 0001:000230b3       ?setURI@DOMLocatorImpl@xercesc_3_1@@QAEXQB_W@Z 120240b3 f i DOMLSParserImpl.obj
 0001:000230b3       ?setMiscFlags@SchemaElementDecl@xercesc_3_1@@QAEXH@Z 120240b3 f i XMLElementDecl.obj
 0001:000230b3       ?setRegex@DatatypeValidator@xercesc_3_1@@IAEXQAVRegularExpression@2@@Z 120240b3 f i XMLAttr.obj
 0001:000230c0       ?setAnonymous@DatatypeValidator@xercesc_3_1@@QAEXXZ 120240c0 f i XMLAttr.obj
 0001:000230c0       ?setAnonymous@ComplexTypeInfo@xercesc_3_1@@QAEXXZ 120240c0 f i XMLElementDecl.obj
 0001:000230c5       ?setDTDHandler@SAX2XMLFilterImpl@xercesc_3_1@@UAEXQAVDTDHandler@2@@Z 120240c5 f i SAX2XMLFilterImpl.obj
 0001:000230c5       ?setGrammarResolver@SchemaValidator@xercesc_3_1@@QAEXPAVGrammarResolver@2@@Z 120240c5 f i IGXMLScanner.obj
 0001:000230c5       ?setBaseType@XSComplexTypeDefinition@xercesc_3_1@@AAEXQAVXSTypeDefinition@2@@Z 120240c5 f i PSVIElement.obj
 0001:000230c5       ?setPSVIScope@SchemaElementDecl@xercesc_3_1@@QAEXW4PSVIScope@PSVIDefs@2@@Z 120240c5 f i XMLElementDecl.obj
 0001:000230c5       ?setBaseGroup@XercesGroupInfo@xercesc_3_1@@QAEXQAV12@@Z 120240c5 f i XMLGrammarPoolImpl.obj
 0001:000230c5       ?setScanner@ValidationContextImpl@xercesc_3_1@@UAEXPAVXMLScanner@2@@Z 120240c5 f i ValidationContextImpl.obj
 0001:000230c5       ?setComplexTypeRegistry@SchemaGrammar@xercesc_3_1@@QAEXQAV?$RefHashTableOf@VComplexTypeInfo@xercesc_3_1@@UStringHasher@2@@2@@Z 120240c5 f i XMLGrammarPoolImpl.obj
 0001:000230c5       ?setAttributes@XMLSchemaDescriptionImpl@xercesc_3_1@@UAEXQAVXMLAttDef@2@@Z 120240c5 f i XMLSchemaDescriptionImpl.obj
 0001:000230c5       ?setOrdered@DatatypeValidator@xercesc_3_1@@IAEXW4ORDERING@XSSimpleTypeDefinition@2@@Z 120240c5 f i XMLAttr.obj
 0001:000230c5       ?setContentType@ComplexTypeInfo@xercesc_3_1@@QAEXH@Z 120240c5 f i XMLElementDecl.obj
 0001:000230c5       ?setValidationAttempted@PSVIItem@xercesc_3_1@@QAEXW4ASSESSMENT_TYPE@12@@Z 120240c5 f i PSVIItem.obj
 0001:000230d2       ?setUsed@XMLRefInfo@xercesc_3_1@@QAEX_N@Z 120240d2 f i XMLGrammarPoolImpl.obj
 0001:000230d2       ?setAbstract@ComplexTypeInfo@xercesc_3_1@@QAEX_N@Z 120240d2 f i XMLElementDecl.obj
 0001:000230d2       ?setFinite@DatatypeValidator@xercesc_3_1@@IAEX_N@Z 120240d2 f i XMLAttr.obj
 0001:000230df       ?setBounded@DatatypeValidator@xercesc_3_1@@IAEX_N@Z 120240df f i XMLAttr.obj
 0001:000230df       ?setAdoptContentSpec@ComplexTypeInfo@xercesc_3_1@@QAEX_N@Z 120240df f i XMLElementDecl.obj
 0001:000230ec       ?setAttWithTypeId@ComplexTypeInfo@xercesc_3_1@@QAEX_N@Z 120240ec f i XMLElementDecl.obj
 0001:000230ec       ?setNumeric@DatatypeValidator@xercesc_3_1@@IAEX_N@Z 120240ec f i XMLAttr.obj
 0001:000230f9       ?compare@AbstractStringValidator@xercesc_3_1@@UAEHQB_W0QAVMemoryManager@2@@Z 120240f9 f i AbstractStringValidator.obj
 0001:000230f9       ?compare@DatatypeValidator@xercesc_3_1@@UAEHQB_W0QAVMemoryManager@2@@Z 120240f9 f i XMLAttr.obj
 0001:000230f9       ?compare@AnySimpleTypeDatatypeValidator@xercesc_3_1@@UAEHQB_W0QAVMemoryManager@2@@Z 120240f9 f i AnySimpleTypeDatatypeValidator.obj
 0001:0002310d       ?isSubstitutableBy@DatatypeValidator@xercesc_3_1@@UAE_NQBV12@@Z 1202410d f i XMLAttr.obj
 0001:0002312a       ??_FXMLAttr@xercesc_3_1@@QAEXXZ 1202412a f i XMLAttr.obj
 0001:00023136       ??1XMLAttr@xercesc_3_1@@QAE@XZ 12024136 f i XMLAttr.obj
 0001:0002313b       ?getName@XMLAttr@xercesc_3_1@@QBEPB_WXZ 1202413b f i XMLAttr.obj
 0001:00023142       ?getPrefix@XMLAttr@xercesc_3_1@@QBEPB_WXZ 12024142 f i XMLAttr.obj
 0001:00023149       ?getSpecified@XMLAttr@xercesc_3_1@@QBE_NXZ 12024149 f i XMLAttr.obj
 0001:0002314c       ?getURIId@XMLAttr@xercesc_3_1@@QBEIXZ 1202414c f i XMLAttr.obj
 0001:00023153       ?set@XMLAttr@xercesc_3_1@@QAEXIQB_W00W4AttTypes@XMLAttDef@2@PAVDatatypeValidator@2@_N@Z 12024153 f i XMLAttr.obj
 0001:0002317f       ?set@XMLAttr@xercesc_3_1@@QAEXIQB_W0W4AttTypes@XMLAttDef@2@PAVDatatypeValidator@2@_N@Z 1202417f f i XMLAttr.obj
 0001:000231a8       ?setSpecified@XMLAttr@xercesc_3_1@@QAEX_N@Z 120241a8 f i XMLAttr.obj
 0001:000231b4       ??0XMLAttr@xercesc_3_1@@QAE@QAVMemoryManager@1@@Z 120241b4 f   XMLAttr.obj
 0001:000231f6       ??0XMLAttr@xercesc_3_1@@QAE@IQB_W00W4AttTypes@XMLAttDef@1@_NQAVMemoryManager@1@PAVDatatypeValidator@1@2@Z 120241f6 f   XMLAttr.obj
 0001:00023286       ??0XMLAttr@xercesc_3_1@@QAE@IQB_W0W4AttTypes@XMLAttDef@1@_NQAVMemoryManager@1@PAVDatatypeValidator@1@2@Z 12024286 f   XMLAttr.obj
 0001:00023313       ?getQName@XMLAttr@xercesc_3_1@@QBEPB_WXZ 12024313 f   XMLAttr.obj
 0001:0002331b       ?setName@XMLAttr@xercesc_3_1@@QAEXIQB_W0@Z 1202431b f   XMLAttr.obj
 0001:00023333       ?setURIId@XMLAttr@xercesc_3_1@@QAEXI@Z 12024333 f   XMLAttr.obj
 0001:00023343       ?setValue@XMLAttr@xercesc_3_1@@QAEXQB_W@Z 12024343 f   XMLAttr.obj
 0001:000233a5       ?cleanUp@XMLAttr@xercesc_3_1@@AAEXXZ 120243a5 f   XMLAttr.obj
 0001:000233c2       ?ensureCapacity@XMLBuffer@xercesc_3_1@@AAEXK@Z 120243c2 f   XMLBuffer.obj
 0001:00023468       ??_FXMLBufferMgr@xercesc_3_1@@QAEXXZ 12024468 f i XMLBufferMgr.obj
 0001:00023474       ?getAvailableBufferCount@XMLBufferMgr@xercesc_3_1@@QBEKXZ 12024474 f i XMLBufferMgr.obj
 0001:00023499       ??0XMLBufferMgr@xercesc_3_1@@QAE@QAVMemoryManager@1@@Z 12024499 f   XMLBufferMgr.obj
 0001:000234d5       ??1XMLBufferMgr@xercesc_3_1@@QAE@XZ 120244d5 f   XMLBufferMgr.obj
 0001:00023510       ?bidOnBuffer@XMLBufferMgr@xercesc_3_1@@QAEAAVXMLBuffer@2@XZ 12024510 f   XMLBufferMgr.obj
 0001:000235a7       ?releaseBuffer@XMLBufferMgr@xercesc_3_1@@QAEXAAVXMLBuffer@2@@Z 120245a7 f   XMLBufferMgr.obj
 0001:000235f8       ??1XMLContentModel@xercesc_3_1@@UAE@XZ 120245f8 f i XMLContentModel.obj
 0001:000235ff       ??0XMLContentModel@xercesc_3_1@@IAE@XZ 120245ff f i XMLContentModel.obj
 0001:00023608       ??_EXMLContentModel@xercesc_3_1@@UAEPAXI@Z 12024608 f i XMLContentModel.obj
 0001:00023654       ??_FXMLElementDecl@xercesc_3_1@@QAEXXZ 12024654 f i XMLDTDDescription.obj
 0001:00023660       ?getBaseName@XMLElementDecl@xercesc_3_1@@QAEPA_WXZ 12024660 f i XMLDTDDescription.obj
 0001:00023660       ?getBaseName@XMLElementDecl@xercesc_3_1@@QBEPB_WXZ 12024660 f i XMLDTDDescription.obj
 0001:00023667       ?getURI@XMLElementDecl@xercesc_3_1@@QBEIXZ 12024667 f i XMLDTDDescription.obj
 0001:0002366e       ?getFullName@XMLElementDecl@xercesc_3_1@@QBEPB_WXZ 1202466e f i XMLDTDDescription.obj
 0001:0002366e       ?getKey@DTDElementDecl@xercesc_3_1@@QBEPB_WXZ 1202466e f i XMLElementDecl.obj
 0001:00023676       ?isDeclared@XMLElementDecl@xercesc_3_1@@QBE_NXZ 12024676 f i XMLDTDDescription.obj
 0001:00023680       ??_FXMLEntityDecl@xercesc_3_1@@QAEXXZ 12024680 f i XMLDTDDescription.obj
 0001:0002368c       ?isExternal@XMLEntityDecl@xercesc_3_1@@QBE_NXZ 1202468c f i XMLDTDDescription.obj
 0001:0002368c       ?getHandleMultipleImports@XMLScanner@xercesc_3_1@@QBE_NXZ 1202468c f i XMLValidator.obj
 0001:00023690       ?hasChildNodes@DOMDocumentTypeImpl@xercesc_3_1@@UBE_NXZ 12024690 f i DOMDocumentTypeImpl.obj
 0001:00023690       ?isUnparsed@XMLEntityDecl@xercesc_3_1@@QBE_NXZ 12024690 f i XMLDTDDescription.obj
 0001:00023690       ?hasChildNodes@DOMAttrImpl@xercesc_3_1@@UBE_NXZ 12024690 f i DOMAttrImpl.obj
 0001:00023690       ?hasChildNodes@DOMDocumentImpl@xercesc_3_1@@UBE_NXZ 12024690 f i DOMDocumentImpl.obj
 0001:00023690       ?hasChildNodes@DOMElementImpl@xercesc_3_1@@UBE_NXZ 12024690 f i DOMElementImpl.obj
 0001:00023690       ?hasChildNodes@DOMDocumentFragmentImpl@xercesc_3_1@@UBE_NXZ 12024690 f i DOMDocumentFragmentImpl.obj
 0001:00023690       ?hasChildNodes@DOMEntityReferenceImpl@xercesc_3_1@@UBE_NXZ 12024690 f i DOMEntityReferenceImpl.obj
 0001:00023699       ?setStandardUriConformant@ReaderMgr@xercesc_3_1@@QAEX_N@Z 12024699 f i XMLValidator.obj
 0001:00023699       ?setHandleMultipleImports@XMLScanner@xercesc_3_1@@QAEX_N@Z 12024699 f i XMLValidator.obj
 0001:00023699       ?setIsExternal@XMLEntityDecl@xercesc_3_1@@QAEX_N@Z 12024699 f i XMLDTDDescription.obj
 0001:000236a6       ?setNotationName@XMLEntityDecl@xercesc_3_1@@QAEXQB_W@Z 120246a6 f i XMLDTDDescription.obj
 0001:000236d2       ?setPublicId@XMLEntityDecl@xercesc_3_1@@QAEXQB_W@Z 120246d2 f i XMLDTDDescription.obj
 0001:000236fe       ?setSystemId@XMLEntityDecl@xercesc_3_1@@QAEXQB_W@Z 120246fe f i XMLDTDDescription.obj
 0001:0002372a       ?setBaseURI@XMLEntityDecl@xercesc_3_1@@QAEXQB_W@Z 1202472a f i XMLDTDDescription.obj
 0001:00023756       ?setValue@XMLEntityDecl@xercesc_3_1@@QAEXQB_W@Z 12024756 f i XMLDTDDescription.obj
 0001:0002378e       ??_FXMLNotationDecl@xercesc_3_1@@QAEXXZ 1202478e f i XMLDTDDescription.obj
 0001:0002379a       ?setPublicId@XMLNotationDecl@xercesc_3_1@@QAEXQB_W@Z 1202479a f i XMLDTDDescription.obj
 0001:000237c6       ?setSystemId@XMLNotationDecl@xercesc_3_1@@QAEXQB_W@Z 120247c6 f i XMLDTDDescription.obj
 0001:000237f2       ?setBaseURI@XMLNotationDecl@xercesc_3_1@@QAEXQB_W@Z 120247f2 f i XMLDTDDescription.obj
 0001:0002381e       ??0Grammar@xercesc_3_1@@IAE@XZ 1202481e f i XMLDTDDescription.obj
 0001:00023827       ??_FXMLGrammarDescription@xercesc_3_1@@QAEXXZ 12024827 f i XMLDTDDescription.obj
 0001:00023836       ??_FXMLDTDDescription@xercesc_3_1@@QAEXXZ 12024836 f i XMLDTDDescription.obj
 0001:00023845       ??0XMLDTDDescription@xercesc_3_1@@IAE@QAVMemoryManager@1@@Z 12024845 f   XMLDTDDescription.obj
 0001:0002385a       ?getProtoType@XMLDTDDescription@xercesc_3_1@@UBEPAVXProtoType@2@XZ 1202485a f   XMLDTDDescription.obj
 0001:00023860       ??_EXMLElementDecl@xercesc_3_1@@UAEPAXI@Z 12024860 f i XMLElementDecl.obj
 0001:000238ab       ??_FUnionDatatypeValidator@xercesc_3_1@@QAEXXZ 120248ab f i XMLElementDecl.obj
 0001:000238b7       ?newInstance@UnionDatatypeValidator@xercesc_3_1@@UAEPAVDatatypeValidator@2@QAV?$RefHashTableOf@VKVStringPair@xercesc_3_1@@UStringHasher@2@@2@QAV?$RefArrayVectorOf@_W@2@HQAVMemoryManager@2@@Z 120248b7 f i XMLElementDecl.obj
 0001:000238fe       ?validate@UnionDatatypeValidator@xercesc_3_1@@UAEXQB_WQAVValidationContext@2@QAVMemoryManager@2@@Z 120248fe f i XMLElementDecl.obj
 0001:000238fe       ?validate@BooleanDatatypeValidator@xercesc_3_1@@UAEXQB_WQAVValidationContext@2@QAVMemoryManager@2@@Z 120248fe f i BooleanDatatypeValidator.obj
 0001:00023915       ?cleanUp@UnionDatatypeValidator@xercesc_3_1@@AAEXXZ 12024915 f i XMLElementDecl.obj
 0001:00023940       ?setEnumeration@UnionDatatypeValidator@xercesc_3_1@@AAEXPAV?$RefArrayVectorOf@_W@2@_N@Z 12024940 f i XMLElementDecl.obj
 0001:00023974       ?getPSVIHandler@SAXParser@xercesc_3_1@@QAEPAVPSVIHandler@2@XZ 12024974 f i SAX2XMLReaderImpl.obj
 0001:00023974       ?getPSVIHandler@SAXParser@xercesc_3_1@@QBEPBVPSVIHandler@2@XZ 12024974 f i SAX2XMLReaderImpl.obj
 0001:00023974       ?getAttWildCard@ComplexTypeInfo@xercesc_3_1@@QAEPAVSchemaAttDef@2@XZ 12024974 f i XMLElementDecl.obj
 0001:00023974       ?getDatatypeValidator@SchemaElementDecl@xercesc_3_1@@QBEPAVDatatypeValidator@2@XZ 12024974 f i XMLElementDecl.obj
 0001:00023974       ?getMinLength@AbstractStringValidator@xercesc_3_1@@QBEKXZ 12024974 f i XMLGrammarPoolImpl.obj
 0001:00023974       ?getMemberTypeValidators@UnionDatatypeValidator@xercesc_3_1@@QBEPAV?$RefVectorOf@VDatatypeValidator@xercesc_3_1@@@2@XZ 12024974 f i XMLElementDecl.obj
 0001:00023974       ?getMaxInclusive@AbstractNumericFacetValidator@xercesc_3_1@@QBEPAVXMLNumber@2@XZ 12024974 f i AbstractNumericFacetValidator.obj
 0001:00023974       ?getAttWildCard@ComplexTypeInfo@xercesc_3_1@@QBEPBVSchemaAttDef@2@XZ 12024974 f i XMLElementDecl.obj
 0001:00023974       ?getMemoryManager@AbstractDOMParser@xercesc_3_1@@IBEPAVMemoryManager@2@XZ 12024974 f i XSAnnotation.obj
 0001:00023978       ?isAtomic@UnionDatatypeValidator@xercesc_3_1@@UBE_NXZ 12024978 f i XMLElementDecl.obj
 0001:000239ba       ?isSubstitutableBy@UnionDatatypeValidator@xercesc_3_1@@UAE_NQBVDatatypeValidator@2@@Z 120249ba f i XMLElementDecl.obj
 0001:00023a23       ??_FSchemaAttDef@xercesc_3_1@@QAEXXZ 12024a23 f i XMLElementDecl.obj
 0001:00023a2f       ?resetNamespaceList@SchemaAttDef@xercesc_3_1@@QAEXXZ 12024a2f f i XMLElementDecl.obj
 0001:00023a41       ?setNamespaceList@SchemaAttDef@xercesc_3_1@@QAEXQBV?$ValueVectorOf@I@2@@Z 12024a41 f i XMLElementDecl.obj
 0001:00023aad       ?setBaseAttDecl@SchemaAttDef@xercesc_3_1@@QAEXQAV12@@Z 12024aad f i XMLElementDecl.obj
 0001:00023aad       ?setBaseDatatypeValidator@ComplexTypeInfo@xercesc_3_1@@QAEXQAVDatatypeValidator@2@@Z 12024aad f i XMLElementDecl.obj
 0001:00023aba       ?setRelatedNode@DOMLocatorImpl@xercesc_3_1@@QAEXQAVDOMNode@2@@Z 12024aba f i DOMLSParserImpl.obj
 0001:00023aba       ?setBlockSet@SchemaElementDecl@xercesc_3_1@@QAEXH@Z 12024aba f i XMLElementDecl.obj
 0001:00023aba       ?setCurrentNode@AbstractDOMParser@xercesc_3_1@@IAEXPAVDOMNode@2@@Z 12024aba f i XSAnnotation.obj
 0001:00023aba       ?setPSVIScope@SchemaAttDef@xercesc_3_1@@QAEXW4PSVIScope@PSVIDefs@2@@Z 12024aba f i XMLElementDecl.obj
 0001:00023aba       ?setValidSubstitutionGroups@SchemaGrammar@xercesc_3_1@@QAEXQAV?$RefHash2KeysTableOf@V?$ValueVectorOf@PAVSchemaElementDecl@xercesc_3_1@@@xercesc_3_1@@UStringHasher@2@@2@@Z 12024aba f i XMLGrammarPoolImpl.obj
 0001:00023ac7       ??_FComplexTypeInfo@xercesc_3_1@@QAEXXZ 12024ac7 f i XMLElementDecl.obj
 0001:00023ad3       ?elementCount@ComplexTypeInfo@xercesc_3_1@@QBEKXZ 12024ad3 f i XMLElementDecl.obj
 0001:00023ae1       ?getAttDef@ComplexTypeInfo@xercesc_3_1@@QBEPBVSchemaAttDef@2@QB_WH@Z 12024ae1 f i XMLElementDecl.obj
 0001:00023ae1       ?getAttDef@ComplexTypeInfo@xercesc_3_1@@QAEPAVSchemaAttDef@2@QB_WH@Z 12024ae1 f i XMLElementDecl.obj
 0001:00023aed       ?elementAt@ComplexTypeInfo@xercesc_3_1@@QBEPBVSchemaElementDecl@2@K@Z 12024aed f i XMLElementDecl.obj
 0001:00023aed       ?elementAt@ComplexTypeInfo@xercesc_3_1@@QAEPAVSchemaElementDecl@2@K@Z 12024aed f i XMLElementDecl.obj
 0001:00023b14       ?getContentModel@ComplexTypeInfo@xercesc_3_1@@QAEPAVXMLContentModel@2@_N@Z 12024b14 f i XMLElementDecl.obj
 0001:00023b39       ?getEntityResolver@XercesDOMParser@xercesc_3_1@@QBEPBVEntityResolver@2@XZ 12024b39 f i XSAnnotation.obj
 0001:00023b39       ?getPSVIHandler@SAX2XMLReaderImpl@xercesc_3_1@@UBEPAVPSVIHandler@2@XZ 12024b39 f i SAX2XMLReaderImpl.obj
 0001:00023b39       ?getEntityResolver@XercesDOMParser@xercesc_3_1@@QAEPAVEntityResolver@2@XZ 12024b39 f i XSAnnotation.obj
 0001:00023b39       ?getFractionDigits@DecimalDatatypeValidator@xercesc_3_1@@QBEIXZ 12024b39 f i DatatypeValidator.obj
 0001:00023b39       ?getLocator@ComplexTypeInfo@xercesc_3_1@@QBEPAVXSDLocator@2@XZ 12024b39 f i XMLElementDecl.obj
 0001:00023b3d       ?setPreprocessed@ComplexTypeInfo@xercesc_3_1@@QAEX_N@Z 12024b3d f i XMLElementDecl.obj
 0001:00023b3d       ?setIgnoreSerializedAnnotations@XMLGrammarPool@xercesc_3_1@@QAEX_N@Z 12024b3d f i XMLGrammarPoolImpl.obj
 0001:00023b4a       ?setTypeDefinition@XSElementDeclaration@xercesc_3_1@@QAEXPAVXSTypeDefinition@2@@Z 12024b4a f i PSVIElement.obj
 0001:00023b4a       ?setElementId@ComplexTypeInfo@xercesc_3_1@@QAEXI@Z 12024b4a f i XMLElementDecl.obj
 0001:00023b4a       ?setNamespaceScope@ValidationContextImpl@xercesc_3_1@@UAEXPAVNamespaceScope@2@@Z 12024b4a f i ValidationContextImpl.obj
 0001:00023b4a       ?setEntityResolver@SAX2XMLFilterImpl@xercesc_3_1@@UAEXQAVEntityResolver@2@@Z 12024b4a f i SAX2XMLFilterImpl.obj
 0001:00023b4a       ?setMinOccurs@ContentSpecNode@xercesc_3_1@@QAEXH@Z 12024b4a f i XMLGrammarPoolImpl.obj
 0001:00023b4a       ?setEnclosingScope@SchemaElementDecl@xercesc_3_1@@QAEXI@Z 12024b4a f i XMLElementDecl.obj
 0001:00023b4a       ?setGroupInfoRegistry@SchemaGrammar@xercesc_3_1@@QAEXQAV?$RefHashTableOf@VXercesGroupInfo@xercesc_3_1@@UStringHasher@2@@2@@Z 12024b4a f i XMLGrammarPoolImpl.obj
 0001:00023b57       ?setTypeName@ComplexTypeInfo@xercesc_3_1@@QAEXQB_W@Z 12024b57 f i XMLElementDecl.obj
 0001:00023c1c       ?setLength@AbstractStringValidator@xercesc_3_1@@IAEXK@Z 12024c1c f i XMLGrammarPoolImpl.obj
 0001:00023c1c       ?setBaseComplexTypeInfo@ComplexTypeInfo@xercesc_3_1@@QAEXQAV12@@Z 12024c1c f i XMLElementDecl.obj
 0001:00023c1c       ?setSchemaTypeInfo@DOMElementNSImpl@xercesc_3_1@@UAEXPBVDOMTypeInfoImpl@2@@Z 12024c1c f i DOMElementNSImpl.obj
 0001:00023c29       ?addElement@ComplexTypeInfo@xercesc_3_1@@QAEXQAVSchemaElementDecl@2@@Z 12024c29 f i XMLElementDecl.obj
 0001:00023c8e       ?setAttWildCard@ComplexTypeInfo@xercesc_3_1@@QAEXQAVSchemaAttDef@2@@Z 12024c8e f i XMLElementDecl.obj
 0001:00023cac       ?hasAttDefs@ComplexTypeInfo@xercesc_3_1@@QBE_NXZ 12024cac f i XMLElementDecl.obj
 0001:00023cb8       ?contains@ComplexTypeInfo@xercesc_3_1@@QAE_NQB_W@Z 12024cb8 f i XMLElementDecl.obj
 0001:00023d4b       ?cleanUp@XPathMatcher@xercesc_3_1@@AAEXXZ 12024d4b f i XMLElementDecl.obj
 0001:00023d7e       ??_FIC_Field@xercesc_3_1@@QAEXXZ 12024d7e f i XMLElementDecl.obj
 0001:00023d8d       ??1SelectorMatcher@xercesc_3_1@@UAE@XZ 12024d8d f i XSIDCDefinition.obj
 0001:00023d8d       ??1FieldMatcher@xercesc_3_1@@UAE@XZ 12024d8d f i XMLElementDecl.obj
 0001:00023d8d       ??1XPathMatcher@xercesc_3_1@@UAE@XZ 12024d8d f i XPathMatcher.obj
 0001:00023d98       ??_EFieldMatcher@xercesc_3_1@@UAEPAXI@Z 12024d98 f i XMLElementDecl.obj
 0001:00023de9       ?attributeCount@XercesAttGroupInfo@xercesc_3_1@@QBEKXZ 12024de9 f i XMLGrammarPoolImpl.obj
 0001:00023de9       ?getFieldCount@IdentityConstraint@xercesc_3_1@@QBEKXZ 12024de9 f i XMLElementDecl.obj
 0001:00023df7       ?addField@IdentityConstraint@xercesc_3_1@@QAEXQAVIC_Field@2@@Z 12024df7 f i XMLElementDecl.obj
 0001:00023e4f       ?getFieldAt@IdentityConstraint@xercesc_3_1@@QBEPBVIC_Field@2@K@Z 12024e4f f i XMLElementDecl.obj
 0001:00023e4f       ?getFieldAt@IdentityConstraint@xercesc_3_1@@QAEPAVIC_Field@2@K@Z 12024e4f f i XMLElementDecl.obj
 0001:00023e78       ??_FSchemaElementDecl@xercesc_3_1@@QAEXXZ 12024e78 f i XMLElementDecl.obj
 0001:00023e84       ?getContentSpec@SchemaElementDecl@xercesc_3_1@@UBEPBVContentSpecNode@2@XZ 12024e84 f i XMLElementDecl.obj
 0001:00023e84       ?getContentSpec@SchemaElementDecl@xercesc_3_1@@UAEPAVContentSpecNode@2@XZ 12024e84 f i XMLElementDecl.obj
 0001:00023e92       ?getContentModel@SchemaElementDecl@xercesc_3_1@@UAEPAVXMLContentModel@2@XZ 12024e92 f i XMLElementDecl.obj
 0001:00023ea4       ?getModelType@SchemaElementDecl@xercesc_3_1@@QBE?AW4ModelTypes@12@XZ 12024ea4 f i XMLElementDecl.obj
 0001:00023eb3       ?isGlobalDecl@SchemaElementDecl@xercesc_3_1@@UBE_NXZ 12024eb3 f i XMLElementDecl.obj
 0001:00023ebd       ?setMinLength@AbstractStringValidator@xercesc_3_1@@IAEXK@Z 12024ebd f i XMLGrammarPoolImpl.obj
 0001:00023ebd       ?setDatatypeValidator@SchemaElementDecl@xercesc_3_1@@QAEXPAVDatatypeValidator@2@@Z 12024ebd f i XMLElementDecl.obj
 0001:00023eca       ?setDefaultValue@SchemaElementDecl@xercesc_3_1@@QAEXQB_W@Z 12024eca f i XMLElementDecl.obj
 0001:00023ef6       ?setComplexTypeInfo@SchemaElementDecl@xercesc_3_1@@QAEXQAVComplexTypeInfo@2@@Z 12024ef6 f i XMLElementDecl.obj
 0001:00023f03       ?setAttWildCard@SchemaElementDecl@xercesc_3_1@@QAEXQAVSchemaAttDef@2@@Z 12024f03 f i XMLElementDecl.obj
 0001:00023f21       ?setMaxLength@AbstractStringValidator@xercesc_3_1@@IAEXK@Z 12024f21 f i XMLGrammarPoolImpl.obj
 0001:00023f21       ?setSubstitutionGroupElem@SchemaElementDecl@xercesc_3_1@@QAEXQAV12@@Z 12024f21 f i XMLElementDecl.obj
 0001:00023f2e       ?addIdentityConstraint@SchemaElementDecl@xercesc_3_1@@QAEXQAVIdentityConstraint@2@@Z 12024f2e f i XMLElementDecl.obj
 0001:00023f87       ?getIdentityConstraintCount@SchemaElementDecl@xercesc_3_1@@QBEKXZ 12024f87 f i XMLElementDecl.obj
 0001:00023f95       ?getIdentityConstraintAt@SchemaElementDecl@xercesc_3_1@@QBEPAVIdentityConstraint@2@K@Z 12024f95 f i XMLElementDecl.obj
 0001:00023fc0       ??_FDTDAttDef@xercesc_3_1@@QAEXXZ 12024fc0 f i XMLElementDecl.obj
 0001:00023fcc       ??_FDTDElementDecl@xercesc_3_1@@QAEXXZ 12024fcc f i XMLElementDecl.obj
 0001:00023fd8       ?getContentModel@DTDElementDecl@xercesc_3_1@@UAEPAVXMLContentModel@2@XZ 12024fd8 f i XMLElementDecl.obj
 0001:00023fee       ?setContentModel@DTDElementDecl@xercesc_3_1@@UAEXQAVXMLContentModel@2@@Z 12024fee f i XMLElementDecl.obj
 0001:00024021       ??1XMLElementDecl@xercesc_3_1@@UAE@XZ 12025021 f   XMLElementDecl.obj
 0001:00024055       ?setElementName@XMLElementDecl@xercesc_3_1@@QAEXQB_W0H@Z 12025055 f   XMLElementDecl.obj
 0001:000240b3       ?setElementName@XMLElementDecl@xercesc_3_1@@QAEXQB_WH@Z 120250b3 f   XMLElementDecl.obj
 0001:0002410b       ?setElementName@XMLElementDecl@xercesc_3_1@@QAEXQBVQName@2@@Z 1202510b f   XMLElementDecl.obj
 0001:0002415a       ??0XMLElementDecl@xercesc_3_1@@IAE@QAVMemoryManager@1@@Z 1202515a f   XMLElementDecl.obj
 0001:00024181       ?getProtoType@XMLElementDecl@xercesc_3_1@@UBEPAVXProtoType@2@XZ 12025181 f   XMLElementDecl.obj
 0001:00024187       ?serialize@XMLElementDecl@xercesc_3_1@@UAEXAAVXSerializeEngine@2@@Z 12025187 f   XMLElementDecl.obj
 0001:000241fd       ?storeElementDecl@XMLElementDecl@xercesc_3_1@@SAXAAVXSerializeEngine@2@QAV12@@Z 120251fd f   XMLElementDecl.obj
 0001:00024230       ?loadElementDecl@XMLElementDecl@xercesc_3_1@@SAPAV12@AAVXSerializeEngine@2@@Z 12025230 f   XMLElementDecl.obj
 0001:00024267       ??1?$XMLEnumerator@VSchemaAttDef@xercesc_3_1@@@xercesc_3_1@@UAE@XZ 12025267 f i XMLElementDecl.obj
 0001:0002426e       ??_G?$XMLEnumerator@VSchemaAttDef@xercesc_3_1@@@xercesc_3_1@@UAEPAXI@Z 1202526e f i XMLElementDecl.obj
 0001:0002426e       ??_E?$XMLEnumerator@VSchemaAttDef@xercesc_3_1@@@xercesc_3_1@@UAEPAXI@Z 1202526e f i * CIL library *:* CIL module *
 0001:0002428f       ?elementAt@?$BaseRefVectorOf@_W@xercesc_3_1@@QAEPA_WK@Z 1202528f f i IGXMLScanner2.obj
 0001:0002428f       ?elementAt@?$BaseRefVectorOf@VDatatypeValidator@xercesc_3_1@@@xercesc_3_1@@QAEPAVDatatypeValidator@2@K@Z 1202528f f i XMLElementDecl.obj
 0001:000242d1       ??0?$ValueVectorOf@PAVIC_Field@xercesc_3_1@@@xercesc_3_1@@QAE@ABV01@@Z 120252d1 f i FieldValueMap.obj
 0001:000242d1       ??0?$ValueVectorOf@I@xercesc_3_1@@QAE@ABV01@@Z 120252d1 f i XMLElementDecl.obj
 0001:000242d1       ??0?$ValueVectorOf@PAVSchemaElementDecl@xercesc_3_1@@@xercesc_3_1@@QAE@ABV01@@Z 120252d1 f i TraverseSchema.obj
 0001:000242d1       ??0?$ValueVectorOf@PAVDatatypeValidator@xercesc_3_1@@@xercesc_3_1@@QAE@ABV01@@Z 120252d1 f i FieldValueMap.obj
 0001:00024335       ??4?$ValueVectorOf@I@xercesc_3_1@@QAEAAV01@ABV01@@Z 12025335 f i XMLElementDecl.obj
 0001:00024394       ??1?$BaseRefVectorOf@VSchemaElementDecl@xercesc_3_1@@@xercesc_3_1@@UAE@XZ 12025394 f i XMLElementDecl.obj
 0001:0002439b       ?containsElement@?$BaseRefVectorOf@VSchemaInfo@xercesc_3_1@@@xercesc_3_1@@QAE_NQBVSchemaInfo@2@@Z 1202539b f i IGXMLScanner.obj
 0001:0002439b       ?containsElement@?$BaseRefVectorOf@VSchemaElementDecl@xercesc_3_1@@@xercesc_3_1@@QAE_NQBVSchemaElementDecl@2@@Z 1202539b f i XMLElementDecl.obj
 0001:000243c6       ??0?$RefVectorOf@VSchemaElementDecl@xercesc_3_1@@@xercesc_3_1@@QAE@K_NQAVMemoryManager@1@@Z 120253c6 f i XMLElementDecl.obj
 0001:0002441b       ?get@?$RefHash2KeysTableOf@VSchemaInfo@xercesc_3_1@@UStringHasher@2@@xercesc_3_1@@QAEPAVSchemaInfo@2@QBXH@Z 1202541b f i IGXMLScanner2.obj
 0001:0002441b       ?get@?$RefHash2KeysTableOf@VSchemaAttDef@xercesc_3_1@@UStringHasher@2@@xercesc_3_1@@QAEPAVSchemaAttDef@2@QBXH@Z 1202541b f i XMLElementDecl.obj
 0001:0002441b       ?get@?$RefHash2KeysTableOf@V?$ValueVectorOf@PAVSchemaElementDecl@xercesc_3_1@@@xercesc_3_1@@UStringHasher@2@@xercesc_3_1@@QAEPAV?$ValueVectorOf@PAVSchemaElementDecl@xercesc_3_1@@@2@QBXH@Z 1202541b f i XTemplateSerializer.obj
 0001:0002443a       ??0?$RefHash2KeysTableOfEnumerator@VSchemaAttDef@xercesc_3_1@@UStringHasher@2@@xercesc_3_1@@QAE@QAV?$RefHash2KeysTableOf@VSchemaAttDef@xercesc_3_1@@UStringHasher@2@@1@_NQAVMemoryManager@1@@Z 1202543a f i XMLElementDecl.obj
 0001:000244a8       ??1?$RefHash2KeysTableOfEnumerator@VSchemaAttDef@xercesc_3_1@@UStringHasher@2@@xercesc_3_1@@UAE@XZ 120254a8 f i XMLElementDecl.obj
 0001:000244e2       ?hasMoreElements@?$RefHash2KeysTableOfEnumerator@V?$KeyRefPair@XVDOMUserDataHandler@xercesc_3_1@@@xercesc_3_1@@UPtrHasher@2@@xercesc_3_1@@UBE_NXZ 120254e2 f i DOMDocumentImpl.obj
 0001:000244e2       ?hasMoreElements@?$RefHash2KeysTableOfEnumerator@VSchemaInfo@xercesc_3_1@@UStringHasher@2@@xercesc_3_1@@UBE_NXZ 120254e2 f i IGXMLScanner2.obj
 0001:000244e2       ?hasMoreElements@?$RefHashTableOfEnumerator@VXSAnnotation@xercesc_3_1@@UPtrHasher@2@@xercesc_3_1@@UBE_NXZ 120254e2 f i XTemplateSerializer.obj
 0001:000244e2       ?hasMoreElements@?$RefHash2KeysTableOfEnumerator@VSchemaAttDef@xercesc_3_1@@UStringHasher@2@@xercesc_3_1@@UBE_NXZ 120254e2 f i XMLElementDecl.obj
 0001:000244e2       ?hasMoreElements@?$RefHashTableOfEnumerator@VXMLRefInfo@xercesc_3_1@@UStringHasher@2@@xercesc_3_1@@UBE_NXZ 120254e2 f i XMLScanner.obj
 0001:000244e2       ?hasMoreElements@?$RefHashTableOfEnumerator@VDTDAttDef@xercesc_3_1@@UStringHasher@2@@xercesc_3_1@@UBE_NXZ 120254e2 f i XTemplateSerializer.obj
 0001:000244e2       ?hasMoreElements@?$RefHash2KeysTableOfEnumerator@V?$ValueVectorOf@PAVSchemaElementDecl@xercesc_3_1@@@xercesc_3_1@@UStringHasher@2@@xercesc_3_1@@UBE_NXZ 120254e2 f i XTemplateSerializer.obj
 0001:000244e2       ?hasMoreElements@?$RefHashTableOfEnumerator@VXercesGroupInfo@xercesc_3_1@@UStringHasher@2@@xercesc_3_1@@UBE_NXZ 120254e2 f i XSModel.obj
 0001:000244e2       ?hasMoreElements@?$RefHashTableOfEnumerator@VFieldValueMap@xercesc_3_1@@UICValueHasher@2@@xercesc_3_1@@UBE_NXZ 120254e2 f i ValueStore.obj
 0001:000244e2       ?hasMoreElements@?$RefHashTableOfEnumerator@VGrammar@xercesc_3_1@@UStringHasher@2@@xercesc_3_1@@UBE_NXZ 120254e2 f i XMLGrammarPoolImpl.obj
 0001:000244e2       ?hasMoreElements@?$RefHashTableOfEnumerator@VDatatypeValidator@xercesc_3_1@@UStringHasher@2@@xercesc_3_1@@UBE_NXZ 120254e2 f i XSModel.obj
 0001:000244e2       ?hasMoreElements@?$RefHashTableOfEnumerator@VKVStringPair@xercesc_3_1@@UStringHasher@2@@xercesc_3_1@@UBE_NXZ 120254e2 f i XSObjectFactory.obj
 0001:000244e2       ?hasMoreElements@?$RefHashTableOfEnumerator@VXercesAttGroupInfo@xercesc_3_1@@UStringHasher@2@@xercesc_3_1@@UBE_NXZ 120254e2 f i XSModel.obj
 0001:000244e2       ?hasMoreElements@?$RefHashTableOfEnumerator@VXMLAttDef@xercesc_3_1@@UStringHasher@2@@xercesc_3_1@@UBE_NXZ 120254e2 f i XSModel.obj
 0001:000244e2       ?hasMoreElements@?$RefHashTableOfEnumerator@_WUStringHasher@xercesc_3_1@@@xercesc_3_1@@UBE_NXZ 120254e2 f i DOMNormalizer.obj
 0001:000244e2       ?hasMoreElements@?$RefHashTableOfEnumerator@VValueStore@xercesc_3_1@@UPtrHasher@2@@xercesc_3_1@@UBE_NXZ 120254e2 f i ValueStoreCache.obj
 0001:000244e2       ?hasMoreElements@?$RefHashTableOfEnumerator@VComplexTypeInfo@xercesc_3_1@@UStringHasher@2@@xercesc_3_1@@UBE_NXZ 120254e2 f i XSModel.obj
 0001:000244f9       ?nextElement@?$RefHash2KeysTableOfEnumerator@VSchemaAttDef@xercesc_3_1@@UStringHasher@2@@xercesc_3_1@@UAEAAVSchemaAttDef@2@XZ 120254f9 f i XMLElementDecl.obj
 0001:000244f9       ?nextElement@?$RefHash2KeysTableOfEnumerator@VSchemaInfo@xercesc_3_1@@UStringHasher@2@@xercesc_3_1@@UAEAAVSchemaInfo@2@XZ 120254f9 f i IGXMLScanner2.obj
 0001:000244f9       ?nextElement@?$RefHash2KeysTableOfEnumerator@V?$ValueVectorOf@PAVSchemaElementDecl@xercesc_3_1@@@xercesc_3_1@@UStringHasher@2@@xercesc_3_1@@UAEAAV?$ValueVectorOf@PAVSchemaElementDecl@xercesc_3_1@@@2@XZ 120254f9 f i XTemplateSerializer.obj
 0001:00024546       ?Reset@?$RefHash2KeysTableOfEnumerator@VSchemaAttDef@xercesc_3_1@@UStringHasher@2@@xercesc_3_1@@UAEXXZ 12025546 f i XMLElementDecl.obj
 0001:00024546       ?Reset@?$RefHash2KeysTableOfEnumerator@VSchemaInfo@xercesc_3_1@@UStringHasher@2@@xercesc_3_1@@UAEXXZ 12025546 f i IGXMLScanner2.obj
 0001:00024546       ?Reset@?$RefHash2KeysTableOfEnumerator@V?$ValueVectorOf@PAVSchemaElementDecl@xercesc_3_1@@@xercesc_3_1@@UStringHasher@2@@xercesc_3_1@@UAEXXZ 12025546 f i XTemplateSerializer.obj
 0001:00024574       ??1?$BaseRefVectorOf@VIC_Field@xercesc_3_1@@@xercesc_3_1@@UAE@XZ 12025574 f i XMLElementDecl.obj
 0001:0002457b       ??0?$RefVectorOf@VIC_Field@xercesc_3_1@@@xercesc_3_1@@QAE@K_NQAVMemoryManager@1@@Z 1202557b f i XMLElementDecl.obj
 0001:000245d0       ??1?$BaseRefVectorOf@VIdentityConstraint@xercesc_3_1@@@xercesc_3_1@@UAE@XZ 120255d0 f i XMLElementDecl.obj
 0001:000245d7       ??0?$RefVectorOf@VIdentityConstraint@xercesc_3_1@@@xercesc_3_1@@QAE@K_NQAVMemoryManager@1@@Z 120255d7 f i XMLElementDecl.obj
 0001:0002462c       ??_G?$BaseRefVectorOf@VSchemaElementDecl@xercesc_3_1@@@xercesc_3_1@@UAEPAXI@Z 1202562c f i XMLElementDecl.obj
 0001:0002462c       ??_E?$BaseRefVectorOf@VSchemaElementDecl@xercesc_3_1@@@xercesc_3_1@@UAEPAXI@Z 1202562c f i * CIL library *:* CIL module *
 0001:0002464c       ??_E?$RefVectorOf@VSchemaElementDecl@xercesc_3_1@@@xercesc_3_1@@UAEPAXI@Z 1202564c f i * CIL library *:* CIL module *
 0001:0002464c       ??_G?$RefVectorOf@VSchemaElementDecl@xercesc_3_1@@@xercesc_3_1@@UAEPAXI@Z 1202564c f i XMLElementDecl.obj
 0001:000246b5       ??_G?$RefHash2KeysTableOfEnumerator@VSchemaAttDef@xercesc_3_1@@UStringHasher@2@@xercesc_3_1@@UAEPAXI@Z 120256b5 f i XMLElementDecl.obj
 0001:000246b5       ??_E?$RefHash2KeysTableOfEnumerator@VSchemaAttDef@xercesc_3_1@@UStringHasher@2@@xercesc_3_1@@UAEPAXI@Z 120256b5 f i * CIL library *:* CIL module *
 0001:000246d4       ??_G?$RefHash2KeysTableOf@VIdentityConstraint@xercesc_3_1@@UStringHasher@2@@xercesc_3_1@@QAEPAXI@Z 120256d4 f i TraverseSchema.obj
 0001:000246d4       ??_G?$RefHash2KeysTableOf@VXSObject@xercesc_3_1@@UStringHasher@2@@xercesc_3_1@@QAEPAXI@Z 120256d4 f i XSModel.obj
 0001:000246d4       ??_G?$RefHash2KeysTableOf@VXSIDCDefinition@xercesc_3_1@@UStringHasher@2@@xercesc_3_1@@QAEPAXI@Z 120256d4 f i XSElementDeclaration.obj
 0001:000246d4       ??_G?$RefHash2KeysTableOf@VSchemaAttDef@xercesc_3_1@@UStringHasher@2@@xercesc_3_1@@QAEPAXI@Z 120256d4 f i XMLElementDecl.obj
 0001:0002474e       ??_E?$BaseRefVectorOf@VIC_Field@xercesc_3_1@@@xercesc_3_1@@UAEPAXI@Z 1202574e f i * CIL library *:* CIL module *
 0001:0002474e       ??_G?$BaseRefVectorOf@VIC_Field@xercesc_3_1@@@xercesc_3_1@@UAEPAXI@Z 1202574e f i XMLElementDecl.obj
 0001:0002476e       ??_G?$RefVectorOf@VIC_Field@xercesc_3_1@@@xercesc_3_1@@UAEPAXI@Z 1202576e f i XMLElementDecl.obj
 0001:0002476e       ??_E?$RefVectorOf@VIC_Field@xercesc_3_1@@@xercesc_3_1@@UAEPAXI@Z 1202576e f i * CIL library *:* CIL module *
 0001:000247d7       ??_E?$BaseRefVectorOf@VIdentityConstraint@xercesc_3_1@@@xercesc_3_1@@UAEPAXI@Z 120257d7 f i * CIL library *:* CIL module *
 0001:000247d7       ??_G?$BaseRefVectorOf@VIdentityConstraint@xercesc_3_1@@@xercesc_3_1@@UAEPAXI@Z 120257d7 f i XMLElementDecl.obj
 0001:000247f7       ??_E?$RefVectorOf@VIdentityConstraint@xercesc_3_1@@@xercesc_3_1@@UAEPAXI@Z 120257f7 f i * CIL library *:* CIL module *
 0001:000247f7       ??_G?$RefVectorOf@VIdentityConstraint@xercesc_3_1@@@xercesc_3_1@@UAEPAXI@Z 120257f7 f i XMLElementDecl.obj
 0001:00024860       ?findBucketElem@?$RefHash2KeysTableOf@V?$ValueVectorOf@PAVSchemaElementDecl@xercesc_3_1@@@xercesc_3_1@@UStringHasher@2@@xercesc_3_1@@AAEPAU?$RefHash2KeysTableBucketElem@V?$ValueVectorOf@PAVSchemaElementDecl@xercesc_3_1@@@xercesc_3_1@@@2@QBXHAAK@Z 12025860 f i XTemplateSerializer.obj
 0001:00024860       ?findBucketElem@?$RefHash2KeysTableOf@VIdentityConstraint@xercesc_3_1@@UStringHasher@2@@xercesc_3_1@@AAEPAU?$RefHash2KeysTableBucketElem@VIdentityConstraint@xercesc_3_1@@@2@QBXHAAK@Z 12025860 f i TraverseSchema.obj
 0001:00024860       ?findBucketElem@?$RefHash2KeysTableOf@VSchemaInfo@xercesc_3_1@@UStringHasher@2@@xercesc_3_1@@AAEPAU?$RefHash2KeysTableBucketElem@VSchemaInfo@xercesc_3_1@@@2@QBXHAAK@Z 12025860 f i IGXMLScanner2.obj
 0001:00024860       ?findBucketElem@?$RefHash2KeysTableOf@VSchemaAttDef@xercesc_3_1@@UStringHasher@2@@xercesc_3_1@@AAEPAU?$RefHash2KeysTableBucketElem@VSchemaAttDef@xercesc_3_1@@@2@QBXHAAK@Z 12025860 f i XMLElementDecl.obj
 0001:00024860       ?findBucketElem@?$RefHash2KeysTableOf@_WUStringHasher@xercesc_3_1@@@xercesc_3_1@@AAEPAU?$RefHash2KeysTableBucketElem@_W@2@QBXHAAK@Z 12025860 f i TraverseSchema.obj
 0001:000248af       ?findNext@?$RefHash2KeysTableOfEnumerator@VSchemaAttDef@xercesc_3_1@@UStringHasher@2@@xercesc_3_1@@AAEXXZ 120258af f i XMLElementDecl.obj
 0001:000248af       ?findNext@?$RefHash2KeysTableOfEnumerator@V?$ValueVectorOf@PAVSchemaElementDecl@xercesc_3_1@@@xercesc_3_1@@UStringHasher@2@@xercesc_3_1@@AAEXXZ 120258af f i XTemplateSerializer.obj
 0001:000248af       ?findNext@?$RefHash2KeysTableOfEnumerator@VSchemaInfo@xercesc_3_1@@UStringHasher@2@@xercesc_3_1@@AAEXXZ 120258af f i IGXMLScanner2.obj
 0001:00024940       ??_EXMLEntityDecl@xercesc_3_1@@UAEPAXI@Z 12025940 f i XMLEntityDecl.obj
 0001:0002498b       ??0XMLEntityDecl@xercesc_3_1@@QAE@QAVMemoryManager@1@@Z 1202598b f   XMLEntityDecl.obj
 0001:000249bd       ??0XMLEntityDecl@xercesc_3_1@@QAE@QB_WQAVMemoryManager@1@@Z 120259bd f   XMLEntityDecl.obj
 0001:00024a12       ??0XMLEntityDecl@xercesc_3_1@@QAE@QB_W0QAVMemoryManager@1@@Z 12025a12 f   XMLEntityDecl.obj
 0001:00024a9e       ??0XMLEntityDecl@xercesc_3_1@@QAE@QB_W_WQAVMemoryManager@1@@Z 12025a9e f   XMLEntityDecl.obj
 0001:00024b31       ??1XMLEntityDecl@xercesc_3_1@@UAE@XZ 12025b31 f   XMLEntityDecl.obj
 0001:00024b5d       ?setName@XMLEntityDecl@xercesc_3_1@@QAEXQB_W@Z 12025b5d f   XMLEntityDecl.obj
 0001:00024b89       ?cleanUp@XMLEntityDecl@xercesc_3_1@@AAEXXZ 12025b89 f   XMLEntityDecl.obj
 0001:00024bd0       ?getProtoType@XMLEntityDecl@xercesc_3_1@@UBEPAVXProtoType@2@XZ 12025bd0 f   XMLEntityDecl.obj
 0001:00024bd6       ?serialize@XMLEntityDecl@xercesc_3_1@@UAEXAAVXSerializeEngine@2@@Z 12025bd6 f   XMLEntityDecl.obj
 0001:00024cf6       ?inEscapeList@XMLFormatter@xercesc_3_1@@AAE_NW4EscapeFlags@12@_W@Z 12025cf6 f   XMLFormatter.obj
 0001:00024d45       ??0XMLFormatter@xercesc_3_1@@QAE@QBD0QAVXMLFormatTarget@1@W4EscapeFlags@01@W4UnRepFlags@01@QAVMemoryManager@1@@Z 12025d45 f   XMLFormatter.obj
 0001:00024e7a       ??0XMLFormatter@xercesc_3_1@@QAE@QB_W0QAVXMLFormatTarget@1@W4EscapeFlags@01@W4UnRepFlags@01@QAVMemoryManager@1@@Z 12025e7a f   XMLFormatter.obj
 0001:00024f7b       ??0XMLFormatter@xercesc_3_1@@QAE@QBDQAVXMLFormatTarget@1@W4EscapeFlags@01@W4UnRepFlags@01@QAVMemoryManager@1@@Z 12025f7b f   XMLFormatter.obj
 0001:00025080       ??0XMLFormatter@xercesc_3_1@@QAE@QB_WQAVXMLFormatTarget@1@W4EscapeFlags@01@W4UnRepFlags@01@QAVMemoryManager@1@@Z 12026080 f   XMLFormatter.obj
 0001:00025173       ??1XMLFormatter@xercesc_3_1@@QAE@XZ 12026173 f   XMLFormatter.obj
 0001:000251e8       ?formatBuf@XMLFormatter@xercesc_3_1@@QAEXQB_WKW4EscapeFlags@12@W4UnRepFlags@12@@Z 120261e8 f   XMLFormatter.obj
 0001:0002536a       ?handleUnEscapedChars@XMLFormatter@xercesc_3_1@@AAEKPB_WKW4UnRepFlags@12@@Z 1202636a f   XMLFormatter.obj
 0001:000253f2       ??6XMLFormatter@xercesc_3_1@@QAEAAV01@QB_W@Z 120263f2 f   XMLFormatter.obj
 0001:0002541a       ??6XMLFormatter@xercesc_3_1@@QAEAAV01@_W@Z 1202641a f   XMLFormatter.obj
 0001:00025446       ?writeBOM@XMLFormatter@xercesc_3_1@@QAEXQBEK@Z 12026446 f   XMLFormatter.obj
 0001:0002545e       ?writeCharRef@XMLFormatter@xercesc_3_1@@AAEXAB_W@Z 1202645e f   XMLFormatter.obj
 0001:000254ee       ?writeCharRef@XMLFormatter@xercesc_3_1@@AAEXK@Z 120264ee f   XMLFormatter.obj
 0001:00025597       ?getCharRef@XMLFormatter@xercesc_3_1@@AAEPBEAAKAAPAEPB_W@Z 12026597 f   XMLFormatter.obj
 0001:0002560e       ?specialFormat@XMLFormatter@xercesc_3_1@@AAEXQB_WKW4EscapeFlags@12@@Z 1202660e f   XMLFormatter.obj
 0001:000256d3       ??0XMLGrammarDescription@xercesc_3_1@@IAE@QAVMemoryManager@1@@Z 120266d3 f   XMLGrammarDescription.obj
 0001:000256e8       ?getProtoType@XMLGrammarDescription@xercesc_3_1@@UBEPAVXProtoType@2@XZ 120266e8 f   XMLGrammarDescription.obj
 0001:000256ee       ?getPSVIHandler@XMLScanner@xercesc_3_1@@QAEPAVPSVIHandler@2@XZ 120266ee f i XMLValidator.obj
 0001:000256ee       ?getURIStringPool@XSModel@xercesc_3_1@@QAEPAVXMLStringPool@2@XZ 120266ee f i XMLGrammarPoolImpl.obj
 0001:000256ee       ?getPSVIHandler@XMLScanner@xercesc_3_1@@QBEPBVPSVIHandler@2@XZ 120266ee f i XMLValidator.obj
 0001:000256f2       ??1XMLGrammarPool@xercesc_3_1@@UAE@XZ 120266f2 f i XMLGrammarPoolImpl.obj
 0001:000256f9       ??0XMLGrammarPool@xercesc_3_1@@IAE@QAVMemoryManager@1@@Z 120266f9 f i XMLGrammarPoolImpl.obj
 0001:00025712       ??_FXMLGrammarPool@xercesc_3_1@@QAEXXZ 12026712 f i XMLGrammarPoolImpl.obj
 0001:00025725       ??_EXMLGrammarPool@xercesc_3_1@@UAEPAXI@Z 12026725 f i XMLGrammarPoolImpl.obj
 0001:00025771       ??_FXMLGrammarPoolImpl@xercesc_3_1@@QAEXXZ 12026771 f i XMLGrammarPoolImpl.obj
 0001:0002577d       ??_EXMLGrammarPoolImpl@xercesc_3_1@@UAEPAXI@Z 1202677d f i XMLGrammarPoolImpl.obj
 0001:000257c8       ??_FXMLRefInfo@xercesc_3_1@@QAEXXZ 120267c8 f i XMLGrammarPoolImpl.obj
 0001:000257e0       ??_EXMLRefInfo@xercesc_3_1@@UAEPAXI@Z 120267e0 f i XMLGrammarPoolImpl.obj
 0001:0002582b       ??0XMLRefInfo@xercesc_3_1@@QAE@QB_W_N1QAVMemoryManager@1@@Z 1202682b f i XMLGrammarPoolImpl.obj
 0001:00025874       ??1XMLRefInfo@xercesc_3_1@@UAE@XZ 12026874 f i XMLGrammarPoolImpl.obj
 0001:000258a6       ?setExitOnFirstFatal@XSDErrorReporter@xercesc_3_1@@QAEX_N@Z 120268a6 f i IGXMLScanner.obj
 0001:000258a6       ?setDeclared@XMLRefInfo@xercesc_3_1@@QAEX_N@Z 120268a6 f i XMLGrammarPoolImpl.obj
 0001:000258a6       ?setTypeWithId@XercesAttGroupInfo@xercesc_3_1@@QAEX_N@Z 120268a6 f i XMLGrammarPoolImpl.obj
 0001:000258a6       ?setCheckElementConsistency@XercesGroupInfo@xercesc_3_1@@QAEX_N@Z 120268a6 f i XMLGrammarPoolImpl.obj
 0001:000258a6       ?setAdoptLocation@DOMErrorImpl@xercesc_3_1@@QAEX_N@Z 120268a6 f i DOMLSParserImpl.obj
 0001:000258b3       ??_FContentSpecNode@xercesc_3_1@@QAEXXZ 120268b3 f i XMLGrammarPoolImpl.obj
 0001:000258bf       ??_EContentSpecNode@xercesc_3_1@@UAEPAXI@Z 120268bf f i XMLGrammarPoolImpl.obj
 0001:0002590a       ??0ContentSpecNode@xercesc_3_1@@QAE@QAVMemoryManager@1@@Z 1202690a f i XMLGrammarPoolImpl.obj
 0001:0002593d       ??0ContentSpecNode@xercesc_3_1@@QAE@QAVQName@1@QAVMemoryManager@1@@Z 1202693d f i XMLGrammarPoolImpl.obj
 0001:000259af       ??0ContentSpecNode@xercesc_3_1@@QAE@QAVXMLElementDecl@1@QAVMemoryManager@1@@Z 120269af f i XMLGrammarPoolImpl.obj
 0001:00025a24       ??0ContentSpecNode@xercesc_3_1@@QAE@QAVQName@1@_NQAVMemoryManager@1@@Z 12026a24 f i XMLGrammarPoolImpl.obj
 0001:00025aa4       ??0ContentSpecNode@xercesc_3_1@@QAE@W4NodeTypes@01@QAV01@1_N2QAVMemoryManager@1@@Z 12026aa4 f i XMLGrammarPoolImpl.obj
 0001:00025ae8       ??1ContentSpecNode@xercesc_3_1@@UAE@XZ 12026ae8 f i XMLGrammarPoolImpl.obj
 0001:00025b42       ?orphanFirst@ContentSpecNode@xercesc_3_1@@QAEPAV12@XZ 12026b42 f i XMLGrammarPoolImpl.obj
 0001:00025b4a       ?orphanSecond@ContentSpecNode@xercesc_3_1@@QAEPAV12@XZ 12026b4a f i XMLGrammarPoolImpl.obj
 0001:00025b52       ?getValidated@DTDGrammar@xercesc_3_1@@UBE_NXZ 12026b52 f i XMLGrammarPoolImpl.obj
 0001:00025b52       ?isFirstAdopted@ContentSpecNode@xercesc_3_1@@QBE_NXZ 12026b52 f i XMLGrammarPoolImpl.obj
 0001:00025b52       ?getIssueFatalErrorIfNotFound@DOMLSInputImpl@xercesc_3_1@@UBE_NXZ 12026b52 f i DOMImplementationImpl.obj
 0001:00025b52       ?getLoadSchema@XMLScanner@xercesc_3_1@@QBE_NXZ 12026b52 f i XMLValidator.obj
 0001:00025b52       ?getThrowEOE@ReaderMgr@xercesc_3_1@@QBE_NXZ 12026b52 f i XMLValidator.obj
 0001:00025b56       ?isSecondAdopted@ContentSpecNode@xercesc_3_1@@QBE_NXZ 12026b56 f i XMLGrammarPoolImpl.obj
 0001:00025b56       ?getNormalizeData@XMLScanner@xercesc_3_1@@QBE_NXZ 12026b56 f i XMLValidator.obj
 0001:00025b5a       ?setElement@ContentSpecNode@xercesc_3_1@@QAEXQAVQName@2@@Z 12026b5a f i XMLGrammarPoolImpl.obj
 0001:00025baf       ?setFirst@ContentSpecNode@xercesc_3_1@@QAEXQAV12@@Z 12026baf f i XMLGrammarPoolImpl.obj
 0001:00025bd3       ?setSecond@ContentSpecNode@xercesc_3_1@@QAEXQAV12@@Z 12026bd3 f i XMLGrammarPoolImpl.obj
 0001:00025bf7       ?setAdoptFirst@ContentSpecNode@xercesc_3_1@@QAEX_N@Z 12026bf7 f i XMLGrammarPoolImpl.obj
 0001:00025bf7       ?setValidated@DTDGrammar@xercesc_3_1@@UAEX_N@Z 12026bf7 f i XMLGrammarPoolImpl.obj
 0001:00025bf7       ?setIssueFatalErrorIfNotFound@DOMLSInputImpl@xercesc_3_1@@UAEX_N@Z 12026bf7 f i DOMLSInputImpl.obj
 0001:00025bf7       ?setLoadSchema@XMLScanner@xercesc_3_1@@QAEX_N@Z 12026bf7 f i XMLValidator.obj
 0001:00025bf7       ?setThrowEOE@ReaderMgr@xercesc_3_1@@QAEX_N@Z 12026bf7 f i XMLValidator.obj
 0001:00025c04       ?setNormalizeData@XMLScanner@xercesc_3_1@@QAEX_N@Z 12026c04 f i XMLValidator.obj
 0001:00025c04       ?setAdoptSecond@ContentSpecNode@xercesc_3_1@@QAEX_N@Z 12026c04 f i XMLGrammarPoolImpl.obj
 0001:00025c11       ?hasAllContent@ContentSpecNode@xercesc_3_1@@QAE_NXZ 12026c11 f i XMLGrammarPoolImpl.obj
 0001:00025c24       ??_FDTDEntityDecl@xercesc_3_1@@QAEXXZ 12026c24 f i XMLGrammarPoolImpl.obj
 0001:00025c30       ??_EDTDEntityDecl@xercesc_3_1@@UAEPAXI@Z 12026c30 f i XMLGrammarPoolImpl.obj
 0001:00025c81       ??0DTDEntityDecl@xercesc_3_1@@QAE@QAVMemoryManager@1@@Z 12026c81 f i XMLGrammarPoolImpl.obj
 0001:00025ca5       ??0DTDEntityDecl@xercesc_3_1@@QAE@QB_W_NQAVMemoryManager@1@@Z 12026ca5 f i XMLGrammarPoolImpl.obj
 0001:00025ccf       ??0DTDEntityDecl@xercesc_3_1@@QAE@QB_W0_NQAVMemoryManager@1@@Z 12026ccf f i XMLGrammarPoolImpl.obj
 0001:00025cfc       ??0DTDEntityDecl@xercesc_3_1@@QAE@QB_W_W_N2@Z 12026cfc f i XMLGrammarPoolImpl.obj
 0001:00025d32       ??1DTDEntityDecl@xercesc_3_1@@UAE@XZ 12026d32 f i XMLGrammarPoolImpl.obj
 0001:00025d3d       ?getIsParameter@DTDEntityDecl@xercesc_3_1@@UBE_NXZ 12026d3d f i XMLGrammarPoolImpl.obj
 0001:00025d41       ?getIsSpecialChar@DTDEntityDecl@xercesc_3_1@@UBE_NXZ 12026d41 f i XMLGrammarPoolImpl.obj
 0001:00025d45       ?setDeclaredInIntSubset@DTDEntityDecl@xercesc_3_1@@QAEX_N@Z 12026d45 f i XMLGrammarPoolImpl.obj
 0001:00025d52       ?setIsParameter@DTDEntityDecl@xercesc_3_1@@QAEX_N@Z 12026d52 f i XMLGrammarPoolImpl.obj
 0001:00025d5f       ?setIsSpecialChar@DTDEntityDecl@xercesc_3_1@@QAEX_N@Z 12026d5f f i XMLGrammarPoolImpl.obj
 0001:00025d6c       ??_FXercesGroupInfo@xercesc_3_1@@QAEXXZ 12026d6c f i XMLGrammarPoolImpl.obj
 0001:00025d78       ?elementCount@XercesGroupInfo@xercesc_3_1@@QBEKXZ 12026d78 f i XMLGrammarPoolImpl.obj
 0001:00025d7f       ?elementAt@XercesGroupInfo@xercesc_3_1@@QAEPAVSchemaElementDecl@2@K@Z 12026d7f f i XMLGrammarPoolImpl.obj
 0001:00025d7f       ?elementAt@XercesGroupInfo@xercesc_3_1@@QBEPBVSchemaElementDecl@2@K@Z 12026d7f f i XMLGrammarPoolImpl.obj
 0001:00025da2       ?addElement@XercesGroupInfo@xercesc_3_1@@QAEXQAVSchemaElementDecl@2@@Z 12026da2 f i XMLGrammarPoolImpl.obj
 0001:00025dc6       ??_FXercesAttGroupInfo@xercesc_3_1@@QAEXXZ 12026dc6 f i XMLGrammarPoolImpl.obj
 0001:00025dd2       ?anyAttributeCount@XercesAttGroupInfo@xercesc_3_1@@QBEKXZ 12026dd2 f i XMLGrammarPoolImpl.obj
 0001:00025de0       ?attributeAt@XercesAttGroupInfo@xercesc_3_1@@QAEPAVSchemaAttDef@2@K@Z 12026de0 f i XMLGrammarPoolImpl.obj
 0001:00025de0       ?attributeAt@XercesAttGroupInfo@xercesc_3_1@@QBEPBVSchemaAttDef@2@K@Z 12026de0 f i XMLGrammarPoolImpl.obj
 0001:00025e0b       ?anyAttributeAt@XercesAttGroupInfo@xercesc_3_1@@QBEPBVSchemaAttDef@2@K@Z 12026e0b f i XMLGrammarPoolImpl.obj
 0001:00025e0b       ?anyAttributeAt@XercesAttGroupInfo@xercesc_3_1@@QAEPAVSchemaAttDef@2@K@Z 12026e0b f i XMLGrammarPoolImpl.obj
 0001:00025e36       ?addAttDef@XercesAttGroupInfo@xercesc_3_1@@QAEXQAVSchemaAttDef@2@_N@Z 12026e36 f i XMLGrammarPoolImpl.obj
 0001:00025ecd       ?addAnyAttDef@XercesAttGroupInfo@xercesc_3_1@@QAEXQAVSchemaAttDef@2@_N@Z 12026ecd f i XMLGrammarPoolImpl.obj
 0001:00025f64       ?setCompleteWildCard@XercesAttGroupInfo@xercesc_3_1@@QAEXQAVSchemaAttDef@2@@Z 12026f64 f i XMLGrammarPoolImpl.obj
 0001:00025f82       ?getScanner@SAXParser@xercesc_3_1@@IBEABVXMLScanner@2@XZ 12026f82 f i SAX2XMLReaderImpl.obj
 0001:00025f82       ?getEnumString@AbstractStringValidator@xercesc_3_1@@UBEPBV?$RefArrayVectorOf@_W@2@XZ 12026f82 f i AbstractStringValidator.obj
 0001:00025f82       ?getAnonTypeCount@SchemaGrammar@xercesc_3_1@@QBEIXZ 12026f82 f i XMLGrammarPoolImpl.obj
 0001:00025f82       ?getMinInclusive@AbstractNumericFacetValidator@xercesc_3_1@@QBEPAVXMLNumber@2@XZ 12026f82 f i AbstractNumericFacetValidator.obj
 0001:00025f82       ?getEnumeration@AbstractStringValidator@xercesc_3_1@@QBEPAV?$RefArrayVectorOf@_W@2@XZ 12026f82 f i XMLGrammarPoolImpl.obj
 0001:00025f86       ?setEnumeration@AbstractStringValidator@xercesc_3_1@@IAEXPAV?$RefArrayVectorOf@_W@2@_N@Z 12026f86 f i XMLGrammarPoolImpl.obj
 0001:00025fba       ??_FStringDatatypeValidator@xercesc_3_1@@QAEXXZ 12026fba f i XMLGrammarPoolImpl.obj
 0001:00025fc6       ??_FIDDatatypeValidator@xercesc_3_1@@QAEXXZ 12026fc6 f i XMLGrammarPoolImpl.obj
 0001:00025fd2       ??_FDatatypeValidatorFactory@xercesc_3_1@@QAEXXZ 12026fd2 f i XMLGrammarPoolImpl.obj
 0001:00025fe5       ?getDatatypeValidator@DatatypeValidatorFactory@xercesc_3_1@@QBEPAVDatatypeValidator@2@QB_W@Z 12026fe5 f i XMLGrammarPoolImpl.obj
 0001:00026030       ?getBuiltInRegistry@DatatypeValidatorFactory@xercesc_3_1@@SAPAV?$RefHashTableOf@VDatatypeValidator@xercesc_3_1@@UStringHasher@2@@2@XZ 12027030 f i XMLGrammarPoolImpl.obj
 0001:00026036       ?cleanUp@DatatypeValidatorFactory@xercesc_3_1@@AAEXXZ 12027036 f i XMLGrammarPoolImpl.obj
 0001:0002604c       ??_G?$RefHashTableOf@VXMLRefInfo@xercesc_3_1@@UStringHasher@2@@xercesc_3_1@@QAEPAXI@Z 1202704c f i ValidationContextImpl.obj
 0001:0002604c       ??_G?$RefHashTableOf@VDatatypeValidator@xercesc_3_1@@UStringHasher@2@@xercesc_3_1@@QAEPAXI@Z 1202704c f i XMLGrammarPoolImpl.obj
 0001:0002604c       ??_G?$RefHashTableOf@VGrammar@xercesc_3_1@@UStringHasher@2@@xercesc_3_1@@QAEPAXI@Z 1202704c f i XMLGrammarPoolImpl.obj
 0001:0002606f       ??_FXMLSchemaDescription@xercesc_3_1@@QAEXXZ 1202706f f i XMLGrammarPoolImpl.obj
 0001:0002607e       ??_FSchemaGrammar@xercesc_3_1@@QAEXXZ 1202707e f i XMLGrammarPoolImpl.obj
 0001:0002608a       ?getElemEnumerator@SchemaGrammar@xercesc_3_1@@QBE?AV?$RefHash3KeysIdPoolEnumerator@VSchemaElementDecl@xercesc_3_1@@UStringHasher@2@@2@XZ 1202708a f i XMLGrammarPoolImpl.obj
 0001:000260aa       ?getNotationEnumerator@SchemaGrammar@xercesc_3_1@@QBE?AV?$NameIdPoolEnumerator@VXMLNotationDecl@xercesc_3_1@@@2@XZ 120270aa f i XMLGrammarPoolImpl.obj
 0001:000260c2       ?getDatatypeRegistry@SchemaGrammar@xercesc_3_1@@QAEPAVDatatypeValidatorFactory@2@XZ 120270c2 f i XMLGrammarPoolImpl.obj
 0001:000260c6       ?getAnnotation@SchemaGrammar@xercesc_3_1@@QBEPBVXSAnnotation@2@QBX@Z 120270c6 f i XMLGrammarPoolImpl.obj
 0001:000260c6       ?getAnnotation@SchemaGrammar@xercesc_3_1@@QAEPAVXSAnnotation@2@QBX@Z 120270c6 f i XMLGrammarPoolImpl.obj
 0001:000260d2       ?getAnnotation@SchemaGrammar@xercesc_3_1@@QAEPAVXSAnnotation@2@XZ 120270d2 f i XMLGrammarPoolImpl.obj
 0001:000260d2       ?getAnnotation@SchemaGrammar@xercesc_3_1@@QBEPBVXSAnnotation@2@XZ 120270d2 f i XMLGrammarPoolImpl.obj
 0001:000260dc       ?setTargetNamespace@SchemaGrammar@xercesc_3_1@@QAEXQB_W@Z 120270dc f i XMLGrammarPoolImpl.obj
 0001:00026108       ?getElemId@SchemaGrammar@xercesc_3_1@@UBEKIQB_W0I@Z 12027108 f i XMLGrammarPoolImpl.obj
 0001:00026145       ?getElemDecl@SchemaGrammar@xercesc_3_1@@UBEPBVXMLElementDecl@2@IQB_W0I@Z 12027145 f i XMLGrammarPoolImpl.obj
 0001:00026145       ?getElemDecl@SchemaGrammar@xercesc_3_1@@UAEPAVXMLElementDecl@2@IQB_W0I@Z 12027145 f i XMLGrammarPoolImpl.obj
 0001:0002618f       ?getElemDecl@SchemaGrammar@xercesc_3_1@@UBEPBVXMLElementDecl@2@I@Z 1202718f f i XMLGrammarPoolImpl.obj
 0001:0002618f       ?getElemDecl@SchemaGrammar@xercesc_3_1@@UAEPAVXMLElementDecl@2@I@Z 1202718f f i XMLGrammarPoolImpl.obj
 0001:000261ba       ?putElemDecl@SchemaGrammar@xercesc_3_1@@UAEKQAVXMLElementDecl@2@_N@Z 120271ba f i XMLGrammarPoolImpl.obj
 0001:00026239       ?putGroupElemDecl@SchemaGrammar@xercesc_3_1@@QBEKQAVXMLElementDecl@2@@Z 12027239 f i XMLGrammarPoolImpl.obj
 0001:00026258       ?getNotationDecl@DTDGrammar@xercesc_3_1@@UAEPAVXMLNotationDecl@2@QB_W@Z 12027258 f i XMLGrammarPoolImpl.obj
 0001:00026258       ?getNotationDecl@SchemaGrammar@xercesc_3_1@@UBEPBVXMLNotationDecl@2@QB_W@Z 12027258 f i XMLGrammarPoolImpl.obj
 0001:00026258       ?getNotationDecl@DTDGrammar@xercesc_3_1@@UBEPBVXMLNotationDecl@2@QB_W@Z 12027258 f i XMLGrammarPoolImpl.obj
 0001:00026258       ?getNotationDecl@SchemaGrammar@xercesc_3_1@@UAEPAVXMLNotationDecl@2@QB_W@Z 12027258 f i XMLGrammarPoolImpl.obj
 0001:00026264       ?putNotationDecl@SchemaGrammar@xercesc_3_1@@UBEKQAVXMLNotationDecl@2@@Z 12027264 f i XMLGrammarPoolImpl.obj
 0001:00026264       ?putNotationDecl@DTDGrammar@xercesc_3_1@@UBEKQAVXMLNotationDecl@2@@Z 12027264 f i XMLGrammarPoolImpl.obj
 0001:00026270       ?getValidated@SchemaGrammar@xercesc_3_1@@UBE_NXZ 12027270 f i XMLGrammarPoolImpl.obj
 0001:00026274       ?setValidated@SchemaGrammar@xercesc_3_1@@UAEX_N@Z 12027274 f i XMLGrammarPoolImpl.obj
 0001:00026281       ?getScopeCount@SchemaGrammar@xercesc_3_1@@QBEIXZ 12027281 f i XMLGrammarPoolImpl.obj
 0001:00026281       ?getMaxExclusive@AbstractNumericFacetValidator@xercesc_3_1@@QBEPAVXMLNumber@2@XZ 12027281 f i AbstractNumericFacetValidator.obj
 0001:00026281       ?getAttDefList@ComplexTypeInfo@xercesc_3_1@@QBEAAVXMLAttDefList@2@XZ 12027281 f i ComplexTypeInfo.obj
 0001:00026285       ?setScopeCount@SchemaGrammar@xercesc_3_1@@QAEXI@Z 12027285 f i XMLGrammarPoolImpl.obj
 0001:00026292       ?setAnonTypeCount@SchemaGrammar@xercesc_3_1@@QAEXI@Z 12027292 f i XMLGrammarPoolImpl.obj
 0001:0002629f       ??0XercesNamespaceResolver@xercesc_3_1@@QAE@XZ 1202729f f i XMLGrammarPoolImpl.obj
 0001:000262a8       ??0XercesNamespaceResolver@xercesc_3_1@@QAE@ABV01@@Z 120272a8 f i XMLGrammarPoolImpl.obj
 0001:000262b3       ??_FNamespaceScope@xercesc_3_1@@QAEXXZ 120272b3 f i XMLGrammarPoolImpl.obj
 0001:000262bf       ?isEmpty@NamespaceScope@xercesc_3_1@@QBE_NXZ 120272bf f i XMLGrammarPoolImpl.obj
 0001:000262bf       ?isEmpty@WFElemStack@xercesc_3_1@@QBE_NXZ 120272bf f i XMLValidator.obj
 0001:000262c8       ??1XercesNodeTest@xercesc_3_1@@UAE@XZ 120272c8 f i XMLGrammarPoolImpl.obj
 0001:000262fc       ?getAxisType@XercesStep@xercesc_3_1@@QBEGXZ 120272fc f i XMLGrammarPoolImpl.obj
 0001:000262fc       ?getType@XercesNodeTest@xercesc_3_1@@QBEFXZ 120272fc f i XMLGrammarPoolImpl.obj
 0001:00026301       ??_FXercesNodeTest@xercesc_3_1@@QAEXXZ 12027301 f i XMLGrammarPoolImpl.obj
 0001:00026313       ??_EXercesNodeTest@xercesc_3_1@@UAEPAXI@Z 12027313 f i XMLGrammarPoolImpl.obj
 0001:0002635e       ??1XercesStep@xercesc_3_1@@UAE@XZ 1202735e f i XMLGrammarPoolImpl.obj
 0001:00026392       ??_FXercesStep@xercesc_3_1@@QAEXXZ 12027392 f i XMLGrammarPoolImpl.obj
 0001:000263a4       ??_EXercesStep@xercesc_3_1@@UAEPAXI@Z 120273a4 f i XMLGrammarPoolImpl.obj
 0001:000263ef       ??1XercesLocationPath@xercesc_3_1@@UAE@XZ 120273ef f i XMLGrammarPoolImpl.obj
 0001:00026423       ??_FXercesLocationPath@xercesc_3_1@@QAEXXZ 12027423 f i XMLGrammarPoolImpl.obj
 0001:0002642e       ??_EXercesLocationPath@xercesc_3_1@@UAEPAXI@Z 1202742e f i XMLGrammarPoolImpl.obj
 0001:00026479       ??_FXercesXPath@xercesc_3_1@@QAEXXZ 12027479 f i XMLGrammarPoolImpl.obj
 0001:00026485       ??1XPathScanner@xercesc_3_1@@UAE@XZ 12027485 f i XMLGrammarPoolImpl.obj
 0001:00026485       ??1XPathScannerForSchema@xercesc_3_1@@UAE@XZ 12027485 f i XMLGrammarPoolImpl.obj
 0001:0002648c       ??_EXPathScannerForSchema@xercesc_3_1@@UAEPAXI@Z 1202748c f i XMLGrammarPoolImpl.obj
 0001:0002648c       ??_EXPathScanner@xercesc_3_1@@UAEPAXI@Z 1202748c f i XMLGrammarPoolImpl.obj
 0001:000264d8       ?getStepSize@XercesLocationPath@xercesc_3_1@@QBEKXZ 120274d8 f i XMLGrammarPoolImpl.obj
 0001:000264d8       ?getLength@DOMAttrMapImpl@xercesc_3_1@@UBEKXZ 120274d8 f i DOMAttrMapImpl.obj
 0001:000264e6       ?addStep@XercesLocationPath@xercesc_3_1@@QAEXQAVXercesStep@2@@Z 120274e6 f i XMLGrammarPoolImpl.obj
 0001:000264f2       ?getStep@XercesLocationPath@xercesc_3_1@@QBEPAVXercesStep@2@K@Z 120274f2 f i XMLGrammarPoolImpl.obj
 0001:0002651d       ?addToken@XPathScanner@xercesc_3_1@@MAEXQAV?$ValueVectorOf@H@2@H@Z 1202751d f i XMLGrammarPoolImpl.obj
 0001:00026530       ?getLineCol@XSAnnotation@xercesc_3_1@@QBEXAA_K0@Z 12027530 f i XMLGrammarPoolImpl.obj
 0001:00026553       ?setLineCol@XSAnnotation@xercesc_3_1@@QAEX_K0@Z 12027553 f i XMLGrammarPoolImpl.obj
 0001:00026572       ??_FDTDGrammar@xercesc_3_1@@QAEXXZ 12027572 f i XMLGrammarPoolImpl.obj
 0001:0002657e       ?getElemEnumerator@DTDGrammar@xercesc_3_1@@QBE?AV?$NameIdPoolEnumerator@VDTDElementDecl@xercesc_3_1@@@2@XZ 1202757e f i XMLGrammarPoolImpl.obj
 0001:000265a5       ?getEntityEnumerator@DTDGrammar@xercesc_3_1@@QBE?AV?$NameIdPoolEnumerator@VDTDEntityDecl@xercesc_3_1@@@2@XZ 120275a5 f i XMLGrammarPoolImpl.obj
 0001:000265cc       ?getNotationEnumerator@DTDGrammar@xercesc_3_1@@QBE?AV?$NameIdPoolEnumerator@VXMLNotationDecl@xercesc_3_1@@@2@XZ 120275cc f i XMLGrammarPoolImpl.obj
 0001:000265e4       ?getEntityDecl@DTDGrammar@xercesc_3_1@@QAEPAVDTDEntityDecl@2@QB_W@Z 120275e4 f i XMLGrammarPoolImpl.obj
 0001:000265e4       ?getEntityDecl@DTDGrammar@xercesc_3_1@@QBEPBVDTDEntityDecl@2@QB_W@Z 120275e4 f i XMLGrammarPoolImpl.obj
 0001:0002660c       ?putEntityDecl@DTDGrammar@xercesc_3_1@@QBEKQAVDTDEntityDecl@2@@Z 1202760c f i XMLGrammarPoolImpl.obj
 0001:00026620       ?getTargetNamespace@DTDGrammar@xercesc_3_1@@UBEPB_WXZ 12027620 f i XMLGrammarPoolImpl.obj
 0001:00026626       ?getElemId@DTDGrammar@xercesc_3_1@@UBEKIQB_W0I@Z 12027626 f i XMLGrammarPoolImpl.obj
 0001:00026644       ?getElemDecl@DTDGrammar@xercesc_3_1@@UAEPAVXMLElementDecl@2@IQB_W0I@Z 12027644 f i XMLGrammarPoolImpl.obj
 0001:00026644       ?getElemDecl@DTDGrammar@xercesc_3_1@@UBEPBVXMLElementDecl@2@IQB_W0I@Z 12027644 f i XMLGrammarPoolImpl.obj
 0001:0002666d       ?getElemDecl@DTDGrammar@xercesc_3_1@@UAEPAVXMLElementDecl@2@I@Z 1202766d f i XMLGrammarPoolImpl.obj
 0001:0002666d       ?getElemDecl@DTDGrammar@xercesc_3_1@@UBEPBVXMLElementDecl@2@I@Z 1202766d f i XMLGrammarPoolImpl.obj
 0001:00026679       ?putElemDecl@DTDGrammar@xercesc_3_1@@UAEKQAVXMLElementDecl@2@_N@Z 12027679 f i XMLGrammarPoolImpl.obj
 0001:000266df       ??_FXMLDTDDescriptionImpl@xercesc_3_1@@QAEXXZ 120276df f i XMLGrammarPoolImpl.obj
 0001:000266f6       ??_FXMLSchemaDescriptionImpl@xercesc_3_1@@QAEXXZ 120276f6 f i XMLGrammarPoolImpl.obj
 0001:00026702       ?createXSModel@XMLGrammarPoolImpl@xercesc_3_1@@EAEXXZ 12027702 f   XMLGrammarPoolImpl.obj
 0001:00026761       ??1XMLGrammarPoolImpl@xercesc_3_1@@UAE@XZ 12027761 f   XMLGrammarPoolImpl.obj
 0001:000267c4       ??0XMLGrammarPoolImpl@xercesc_3_1@@QAE@QAVMemoryManager@1@@Z 120277c4 f   XMLGrammarPoolImpl.obj
 0001:00026852       ?cacheGrammar@XMLGrammarPoolImpl@xercesc_3_1@@UAE_NQAVGrammar@2@@Z 12027852 f   XMLGrammarPoolImpl.obj
 0001:000268b1       ?retrieveGrammar@XMLGrammarPoolImpl@xercesc_3_1@@UAEPAVGrammar@2@QAVXMLGrammarDescription@2@@Z 120278b1 f   XMLGrammarPoolImpl.obj
 0001:000268df       ?orphanGrammar@XMLGrammarPoolImpl@xercesc_3_1@@UAEPAVGrammar@2@QB_W@Z 120278df f   XMLGrammarPoolImpl.obj
 0001:0002691f       ?getGrammarEnumerator@XMLGrammarPoolImpl@xercesc_3_1@@UBE?AV?$RefHashTableOfEnumerator@VGrammar@xercesc_3_1@@UStringHasher@2@@2@XZ 1202791f f   XMLGrammarPoolImpl.obj
 0001:0002693f       ?clear@XMLGrammarPoolImpl@xercesc_3_1@@UAE_NXZ 1202793f f   XMLGrammarPoolImpl.obj
 0001:00026977       ?lockPool@XMLGrammarPoolImpl@xercesc_3_1@@UAEXXZ 12027977 f   XMLGrammarPoolImpl.obj
 0001:000269d9       ?unlockPool@XMLGrammarPoolImpl@xercesc_3_1@@UAEXXZ 120279d9 f   XMLGrammarPoolImpl.obj
 0001:00026a24       ?createDTDGrammar@XMLGrammarPoolImpl@xercesc_3_1@@UAEPAVDTDGrammar@2@XZ 12027a24 f   XMLGrammarPoolImpl.obj
 0001:00026a5e       ?createSchemaGrammar@XMLGrammarPoolImpl@xercesc_3_1@@UAEPAVSchemaGrammar@2@XZ 12027a5e f   XMLGrammarPoolImpl.obj
 0001:00026a98       ?createDTDDescription@XMLGrammarPoolImpl@xercesc_3_1@@UAEPAVXMLDTDDescription@2@QB_W@Z 12027a98 f   XMLGrammarPoolImpl.obj
 0001:00026ad7       ?createSchemaDescription@XMLGrammarPoolImpl@xercesc_3_1@@UAEPAVXMLSchemaDescription@2@QB_W@Z 12027ad7 f   XMLGrammarPoolImpl.obj
 0001:00026b16       ?getXSModel@XMLGrammarPoolImpl@xercesc_3_1@@UAEPAVXSModel@2@AA_N@Z 12027b16 f   XMLGrammarPoolImpl.obj
 0001:00026b40       ?getURIStringPool@XMLGrammarPoolImpl@xercesc_3_1@@UAEPAVXMLStringPool@2@XZ 12027b40 f   XMLGrammarPoolImpl.obj
 0001:00026b4e       ?serializeGrammars@XMLGrammarPoolImpl@xercesc_3_1@@UAEXQAVBinOutputStream@2@@Z 12027b4e f   XMLGrammarPoolImpl.obj
 0001:00026c55       ?deserializeGrammars@XMLGrammarPoolImpl@xercesc_3_1@@UAEXQAVBinInputStream@2@@Z 12027c55 f   XMLGrammarPoolImpl.obj
 0001:00026e2f       ?cleanUp@XMLGrammarPoolImpl@xercesc_3_1@@AAEXXZ 12027e2f f   XMLGrammarPoolImpl.obj
 0001:00026e38       ??1?$XMLEnumerator@VSchemaElementDecl@xercesc_3_1@@@xercesc_3_1@@UAE@XZ 12027e38 f i XMLGrammarPoolImpl.obj
 0001:00026e3f       ??1?$XMLEnumerator@VGrammar@xercesc_3_1@@@xercesc_3_1@@UAE@XZ 12027e3f f i XMLGrammarPoolImpl.obj
 0001:00026e46       ??_G?$XMLEnumerator@VSchemaElementDecl@xercesc_3_1@@@xercesc_3_1@@UAEPAXI@Z 12027e46 f i XMLGrammarPoolImpl.obj
 0001:00026e46       ??_E?$XMLEnumerator@VSchemaElementDecl@xercesc_3_1@@@xercesc_3_1@@UAEPAXI@Z 12027e46 f i * CIL library *:* CIL module *
 0001:00026e67       ??_E?$XMLEnumerator@VXMLNotationDecl@xercesc_3_1@@@xercesc_3_1@@UAEPAXI@Z 12027e67 f i * CIL library *:* CIL module *
 0001:00026e67       ??_G?$XMLEnumerator@VXMLNotationDecl@xercesc_3_1@@@xercesc_3_1@@UAEPAXI@Z 12027e67 f i XMLGrammarPoolImpl.obj
 0001:00026e88       ??_E?$XMLEnumerator@VDTDElementDecl@xercesc_3_1@@@xercesc_3_1@@UAEPAXI@Z 12027e88 f i * CIL library *:* CIL module *
 0001:00026e88       ??_G?$XMLEnumerator@VDTDElementDecl@xercesc_3_1@@@xercesc_3_1@@UAEPAXI@Z 12027e88 f i XMLGrammarPoolImpl.obj
 0001:00026ea9       ??_G?$XMLEnumerator@VDTDEntityDecl@xercesc_3_1@@@xercesc_3_1@@UAEPAXI@Z 12027ea9 f i XMLGrammarPoolImpl.obj
 0001:00026ea9       ??_E?$XMLEnumerator@VDTDEntityDecl@xercesc_3_1@@@xercesc_3_1@@UAEPAXI@Z 12027ea9 f i * CIL library *:* CIL module *
 0001:00026eca       ??_G?$XMLEnumerator@VGrammar@xercesc_3_1@@@xercesc_3_1@@UAEPAXI@Z 12027eca f i XMLGrammarPoolImpl.obj
 0001:00026eca       ??_E?$XMLEnumerator@VGrammar@xercesc_3_1@@@xercesc_3_1@@UAEPAXI@Z 12027eca f i * CIL library *:* CIL module *
 0001:00026eeb       ??1?$BaseRefVectorOf@VSchemaAttDef@xercesc_3_1@@@xercesc_3_1@@UAE@XZ 12027eeb f i XMLGrammarPoolImpl.obj
 0001:00026ef2       ??0?$RefVectorOf@VSchemaAttDef@xercesc_3_1@@@xercesc_3_1@@QAE@K_NQAVMemoryManager@1@@Z 12027ef2 f i XMLGrammarPoolImpl.obj
 0001:00026f47       ?get@?$RefHashTableOf@VKVStringPair@xercesc_3_1@@UStringHasher@2@@xercesc_3_1@@QAEPAVKVStringPair@2@QBX@Z 12027f47 f i XTemplateSerializer.obj
 0001:00026f47       ?get@?$RefHashTableOf@VComplexTypeInfo@xercesc_3_1@@UStringHasher@2@@xercesc_3_1@@QAEPAVComplexTypeInfo@2@QBX@Z 12027f47 f i XTemplateSerializer.obj
 0001:00026f47       ?get@?$RefHashTableOf@VDatatypeValidator@xercesc_3_1@@UStringHasher@2@@xercesc_3_1@@QAEPAVDatatypeValidator@2@QBX@Z 12027f47 f i XMLGrammarPoolImpl.obj
 0001:00026f67       ??0?$RefHash3KeysIdPoolEnumerator@VSchemaElementDecl@xercesc_3_1@@UStringHasher@2@@xercesc_3_1@@QAE@QAV?$RefHash3KeysIdPool@VSchemaElementDecl@xercesc_3_1@@UStringHasher@2@@1@_NQAVMemoryManager@1@@Z 12027f67 f i XMLGrammarPoolImpl.obj
 0001:00026fe0       ??1?$RefHash3KeysIdPoolEnumerator@VSchemaElementDecl@xercesc_3_1@@UStringHasher@2@@xercesc_3_1@@UAE@XZ 12027fe0 f i XMLGrammarPoolImpl.obj
 0001:0002701a       ?hasMoreElements@?$RefHash3KeysIdPoolEnumerator@VSchemaElementDecl@xercesc_3_1@@UStringHasher@2@@xercesc_3_1@@UBE_NXZ 1202801a f i XMLGrammarPoolImpl.obj
 0001:0002702f       ?nextElement@?$RefHash3KeysIdPoolEnumerator@VSchemaElementDecl@xercesc_3_1@@UStringHasher@2@@xercesc_3_1@@UAEAAVSchemaElementDecl@2@XZ 1202802f f i XMLGrammarPoolImpl.obj
 0001:0002707c       ?Reset@?$RefHash3KeysIdPoolEnumerator@VSchemaElementDecl@xercesc_3_1@@UStringHasher@2@@xercesc_3_1@@UAEXXZ 1202807c f i XMLGrammarPoolImpl.obj
 0001:0002708b       ??0?$NameIdPoolEnumerator@VXMLNotationDecl@xercesc_3_1@@@xercesc_3_1@@QAE@QAV?$NameIdPool@VXMLNotationDecl@xercesc_3_1@@@1@QAVMemoryManager@1@@Z 1202808b f i XMLGrammarPoolImpl.obj
 0001:000270b5       ??1?$NameIdPoolEnumerator@VXMLNotationDecl@xercesc_3_1@@@xercesc_3_1@@UAE@XZ 120280b5 f i XMLGrammarPoolImpl.obj
 0001:000270bc       ?hasMoreElements@?$NameIdPoolEnumerator@VDTDElementDecl@xercesc_3_1@@@xercesc_3_1@@UBE_NXZ 120280bc f i XMLGrammarPoolImpl.obj
 0001:000270bc       ?hasMoreElements@?$NameIdPoolEnumerator@VXMLNotationDecl@xercesc_3_1@@@xercesc_3_1@@UBE_NXZ 120280bc f i XMLGrammarPoolImpl.obj
 0001:000270bc       ?hasMoreElements@?$NameIdPoolEnumerator@VDTDEntityDecl@xercesc_3_1@@@xercesc_3_1@@UBE_NXZ 120280bc f i XMLGrammarPoolImpl.obj
 0001:000270d1       ?nextElement@?$NameIdPoolEnumerator@VDTDEntityDecl@xercesc_3_1@@@xercesc_3_1@@UAEAAVDTDEntityDecl@2@XZ 120280d1 f i XMLGrammarPoolImpl.obj
 0001:000270d1       ?nextElement@?$NameIdPoolEnumerator@VXMLNotationDecl@xercesc_3_1@@@xercesc_3_1@@UAEAAVXMLNotationDecl@2@XZ 120280d1 f i XMLGrammarPoolImpl.obj
 0001:000270d1       ?nextElement@?$NameIdPoolEnumerator@VDTDElementDecl@xercesc_3_1@@@xercesc_3_1@@UAEAAVDTDElementDecl@2@XZ 120280d1 f i XMLGrammarPoolImpl.obj
 0001:0002711e       ?Reset@?$NameIdPoolEnumerator@VDTDEntityDecl@xercesc_3_1@@@xercesc_3_1@@UAEXXZ 1202811e f i XMLGrammarPoolImpl.obj
 0001:0002711e       ?Reset@?$NameIdPoolEnumerator@VDTDElementDecl@xercesc_3_1@@@xercesc_3_1@@UAEXXZ 1202811e f i XMLGrammarPoolImpl.obj
 0001:0002711e       ?Reset@?$NameIdPoolEnumerator@VXMLNotationDecl@xercesc_3_1@@@xercesc_3_1@@UAEXXZ 1202811e f i XMLGrammarPoolImpl.obj
 0001:0002712d       ?get@?$RefHashTableOf@VXSAnnotation@xercesc_3_1@@UPtrHasher@2@@xercesc_3_1@@QAEPAVXSAnnotation@2@QBX@Z 1202812d f i XMLGrammarPoolImpl.obj
 0001:0002712d       ?get@?$RefHashTableOf@IUPtrHasher@xercesc_3_1@@@xercesc_3_1@@QAEPAIQBX@Z 1202812d f i DGXMLScanner.obj
 0001:0002712d       ?get@?$RefHashTableOf@VSchemaInfo@xercesc_3_1@@UPtrHasher@2@@xercesc_3_1@@QAEPAVSchemaInfo@2@QBX@Z 1202812d f i TraverseSchema.obj
 0001:0002712d       ?get@?$RefHashTableOf@VValueStore@xercesc_3_1@@UPtrHasher@2@@xercesc_3_1@@QAEPAVValueStore@2@QBX@Z 1202812d f i IGXMLScanner.obj
 0001:00027160       ??0?$RefHash3KeysIdPool@VSchemaElementDecl@xercesc_3_1@@UStringHasher@2@@xercesc_3_1@@QAE@K_NKQAVMemoryManager@1@@Z 12028160 f i XMLGrammarPoolImpl.obj
 0001:00027200       ?getByKey@?$RefHash3KeysIdPool@VSchemaElementDecl@xercesc_3_1@@UStringHasher@2@@xercesc_3_1@@QAEPAVSchemaElementDecl@2@QBXHH@Z 12028200 f i XMLGrammarPoolImpl.obj
 0001:00027222       ?getById@?$RefHash3KeysIdPool@VSchemaElementDecl@xercesc_3_1@@UStringHasher@2@@xercesc_3_1@@QAEPAVSchemaElementDecl@2@I@Z 12028222 f i XMLGrammarPoolImpl.obj
 0001:00027267       ?put@?$RefHash3KeysIdPool@VSchemaElementDecl@xercesc_3_1@@UStringHasher@2@@xercesc_3_1@@QAEKPAXHHQAVSchemaElementDecl@2@@Z 12028267 f i XMLGrammarPoolImpl.obj
 0001:00027371       ?getByKey@?$NameIdPool@VDTDEntityDecl@xercesc_3_1@@@xercesc_3_1@@QAEPAVDTDEntityDecl@2@QB_W@Z 12028371 f i XMLGrammarPoolImpl.obj
 0001:00027371       ?getByKey@?$NameIdPool@VDTDElementDecl@xercesc_3_1@@@xercesc_3_1@@QAEPAVDTDElementDecl@2@QB_W@Z 12028371 f i XMLGrammarPoolImpl.obj
 0001:00027371       ?getByKey@?$NameIdPool@VXMLNotationDecl@xercesc_3_1@@@xercesc_3_1@@QAEPAVXMLNotationDecl@2@QB_W@Z 12028371 f i XMLGrammarPoolImpl.obj
 0001:0002739f       ?put@?$NameIdPool@VXMLNotationDecl@xercesc_3_1@@@xercesc_3_1@@QAEKQAVXMLNotationDecl@2@@Z 1202839f f i XMLGrammarPoolImpl.obj
 0001:000274bb       ?addElement@?$BaseRefVectorOf@VXercesStep@xercesc_3_1@@@xercesc_3_1@@QAEXQAVXercesStep@2@@Z 120284bb f i XMLGrammarPoolImpl.obj
 0001:000274dd       ?addElement@?$ValueVectorOf@H@xercesc_3_1@@QAEXABH@Z 120284dd f i XMLGrammarPoolImpl.obj
 0001:000274dd       ?addElement@?$ValueVectorOf@PAVDOMNode@xercesc_3_1@@@xercesc_3_1@@QAEXABQAVDOMNode@2@@Z 120284dd f i GeneralAttributeCheck.obj
 0001:000274dd       ?addElement@?$ValueVectorOf@PAVXMLAttr@xercesc_3_1@@@xercesc_3_1@@QAEXABQAVXMLAttr@2@@Z 120284dd f i DGXMLScanner.obj
 0001:000274dd       ?addElement@?$ValueVectorOf@PAVSchemaElementDecl@xercesc_3_1@@@xercesc_3_1@@QAEXABQAVSchemaElementDecl@2@@Z 120284dd f i XTemplateSerializer.obj
 0001:000274dd       ?addElement@?$ValueVectorOf@PAX@xercesc_3_1@@QAEXABQAX@Z 120284dd f i XSerializeEngine.obj
 0001:000274dd       ?addElement@?$ValueVectorOf@PAVContentSpecNode@xercesc_3_1@@@xercesc_3_1@@QAEXABQAVContentSpecNode@2@@Z 120284dd f i SchemaValidator.obj
 0001:000274dd       ?addElement@?$ValueVectorOf@PAVDOMElement@xercesc_3_1@@@xercesc_3_1@@QAEXABQAVDOMElement@2@@Z 120284dd f i TraverseSchema.obj
 0001:000274dd       ?addElement@?$ValueVectorOf@PAVQName@xercesc_3_1@@@xercesc_3_1@@QAEXABQAVQName@2@@Z 120284dd f i AllContentModel.obj
 0001:000274dd       ?addElement@?$ValueVectorOf@PAUPrefMapElem@xercesc_3_1@@@xercesc_3_1@@QAEXABQAUPrefMapElem@2@@Z 120284dd f i ElemStack.obj
 0001:000274dd       ?addElement@?$ValueVectorOf@PA_W@xercesc_3_1@@QAEXABQA_W@Z 120284dd f i IGXMLScanner.obj
 0001:000274dd       ?addElement@?$ValueVectorOf@PBVDOMElement@xercesc_3_1@@@xercesc_3_1@@QAEXABQBVDOMElement@2@@Z 120284dd f i IGXMLScanner.obj
 0001:000274dd       ?addElement@?$ValueVectorOf@PAVDatatypeValidator@xercesc_3_1@@@xercesc_3_1@@QAEXABQAVDatatypeValidator@2@@Z 120284dd f i IGXMLScanner2.obj
 0001:000274dd       ?addElement@?$ValueVectorOf@W4NodeTypes@ContentSpecNode@xercesc_3_1@@@xercesc_3_1@@QAEXABW4NodeTypes@ContentSpecNode@2@@Z 120284dd f i MixedContentModel.obj
 0001:000274dd       ?addElement@?$ValueVectorOf@PAVComplexTypeInfo@xercesc_3_1@@@xercesc_3_1@@QAEXABQAVComplexTypeInfo@2@@Z 120284dd f i SchemaValidator.obj
 0001:000274dd       ?addElement@?$ValueVectorOf@PB_W@xercesc_3_1@@QAEXABQB_W@Z 120284dd f i IGXMLScanner.obj
 0001:000274dd       ?addElement@?$ValueVectorOf@PAVSchemaGrammar@xercesc_3_1@@@xercesc_3_1@@QAEXABQAVSchemaGrammar@2@@Z 120284dd f i GrammarResolver.obj
 0001:000274dd       ?addElement@?$ValueVectorOf@PAVXercesAttGroupInfo@xercesc_3_1@@@xercesc_3_1@@QAEXABQAVXercesAttGroupInfo@2@@Z 120284dd f i TraverseSchema.obj
 0001:000274dd       ?addElement@?$ValueVectorOf@K@xercesc_3_1@@QAEXABK@Z 120284dd f i WFXMLScanner.obj
 0001:000274dd       ?addElement@?$ValueVectorOf@PAVIC_Field@xercesc_3_1@@@xercesc_3_1@@QAEXABQAVIC_Field@2@@Z 120284dd f i IGXMLScanner2.obj
 0001:000274dd       ?addElement@?$ValueVectorOf@I@xercesc_3_1@@QAEXABI@Z 120284dd f i XTemplateSerializer.obj
 0001:00027565       ??1?$NameIdPoolEnumerator@VDTDElementDecl@xercesc_3_1@@@xercesc_3_1@@UAE@XZ 12028565 f i XMLGrammarPoolImpl.obj
 0001:0002756c       ??1?$NameIdPoolEnumerator@VDTDEntityDecl@xercesc_3_1@@@xercesc_3_1@@UAE@XZ 1202856c f i XMLGrammarPoolImpl.obj
 0001:00027573       ?put@?$NameIdPool@VDTDEntityDecl@xercesc_3_1@@@xercesc_3_1@@QAEKQAVDTDEntityDecl@2@@Z 12028573 f i XMLGrammarPoolImpl.obj
 0001:00027669       ??0?$NameIdPool@VXMLNotationDecl@xercesc_3_1@@@xercesc_3_1@@QAE@KKQAVMemoryManager@1@@Z 12028669 f i XTemplateSerializer.obj
 0001:00027669       ??0?$NameIdPool@VDTDEntityDecl@xercesc_3_1@@@xercesc_3_1@@QAE@KKQAVMemoryManager@1@@Z 12028669 f i XTemplateSerializer.obj
 0001:00027669       ??0?$NameIdPool@VDTDElementDecl@xercesc_3_1@@@xercesc_3_1@@QAE@KKQAVMemoryManager@1@@Z 12028669 f i XMLGrammarPoolImpl.obj
 0001:00027713       ?getById@?$NameIdPool@VDTDElementDecl@xercesc_3_1@@@xercesc_3_1@@QAEPAVDTDElementDecl@2@K@Z 12028713 f i XMLGrammarPoolImpl.obj
 0001:00027755       ?put@?$NameIdPool@VDTDElementDecl@xercesc_3_1@@@xercesc_3_1@@QAEKQAVDTDElementDecl@2@@Z 12028755 f i XMLGrammarPoolImpl.obj
 0001:00027883       ??0?$RefHashTableOf@VGrammar@xercesc_3_1@@UStringHasher@2@@xercesc_3_1@@QAE@K_NQAVMemoryManager@1@@Z 12028883 f i XMLGrammarPoolImpl.obj
 0001:00027883       ??0?$RefHashTableOf@VDTDAttDef@xercesc_3_1@@UStringHasher@2@@xercesc_3_1@@QAE@K_NQAVMemoryManager@1@@Z 12028883 f i XTemplateSerializer.obj
 0001:00027883       ??0?$RefHashTableOf@VXSAnnotation@xercesc_3_1@@UPtrHasher@2@@xercesc_3_1@@QAE@K_NQAVMemoryManager@1@@Z 12028883 f i XTemplateSerializer.obj
 0001:000278f8       ?removeAll@?$RefHashTableOf@VXMLNotationDecl@xercesc_3_1@@UStringHasher@2@@xercesc_3_1@@QAEXXZ 120288f8 f i XTemplateSerializer.obj
 0001:000278f8       ?removeAll@?$RefHashTableOf@VGrammar@xercesc_3_1@@UStringHasher@2@@xercesc_3_1@@QAEXXZ 120288f8 f i XMLGrammarPoolImpl.obj
 0001:000278f8       ?removeAll@?$RefHashTableOf@VXMLElementDecl@xercesc_3_1@@UStringHasher@2@@xercesc_3_1@@QAEXXZ 120288f8 f i WFXMLScanner.obj
 0001:000278f8       ?removeAll@?$RefHashTableOf@VDTDEntityDecl@xercesc_3_1@@UStringHasher@2@@xercesc_3_1@@QAEXXZ 120288f8 f i XTemplateSerializer.obj
 0001:000278f8       ?removeAll@?$RefHashTableOf@VXMLRefInfo@xercesc_3_1@@UStringHasher@2@@xercesc_3_1@@QAEXXZ 120288f8 f i ValidationContextImpl.obj
 0001:000278f8       ?removeAll@?$RefHashTableOf@VXSAnnotation@xercesc_3_1@@UPtrHasher@2@@xercesc_3_1@@QAEXXZ 120288f8 f i XTemplateSerializer.obj
 0001:000278f8       ?removeAll@?$RefHashTableOf@VDTDElementDecl@xercesc_3_1@@UStringHasher@2@@xercesc_3_1@@QAEXXZ 120288f8 f i XMLGrammarPoolImpl.obj
 0001:000278f8       ?removeAll@?$RefHashTableOf@VDatatypeValidator@xercesc_3_1@@UStringHasher@2@@xercesc_3_1@@QAEXXZ 120288f8 f i XMLGrammarPoolImpl.obj
 0001:00027959       ?orphanKey@?$RefHashTableOf@VGrammar@xercesc_3_1@@UStringHasher@2@@xercesc_3_1@@QAEPAVGrammar@2@QBX@Z 12028959 f i XMLGrammarPoolImpl.obj
 0001:000279ef       ??0?$RefHashTableOfEnumerator@VGrammar@xercesc_3_1@@UStringHasher@2@@xercesc_3_1@@QAE@QAV?$RefHashTableOf@VGrammar@xercesc_3_1@@UStringHasher@2@@1@_NQAVMemoryManager@1@@Z 120289ef f i XMLGrammarPoolImpl.obj
 0001:00027a5a       ??1?$RefHashTableOfEnumerator@VGrammar@xercesc_3_1@@UStringHasher@2@@xercesc_3_1@@UAE@XZ 12028a5a f i XMLGrammarPoolImpl.obj
 0001:00027a94       ?nextElement@?$RefHashTableOfEnumerator@VXSAnnotation@xercesc_3_1@@UPtrHasher@2@@xercesc_3_1@@UAEAAVXSAnnotation@2@XZ 12028a94 f i XTemplateSerializer.obj
 0001:00027a94       ?nextElement@?$RefHashTableOfEnumerator@VDTDAttDef@xercesc_3_1@@UStringHasher@2@@xercesc_3_1@@UAEAAVDTDAttDef@2@XZ 12028a94 f i XTemplateSerializer.obj
 0001:00027a94       ?nextElement@?$RefHashTableOfEnumerator@VValueStore@xercesc_3_1@@UPtrHasher@2@@xercesc_3_1@@UAEAAVValueStore@2@XZ 12028a94 f i ValueStoreCache.obj
 0001:00027a94       ?nextElement@?$RefHashTableOfEnumerator@VDatatypeValidator@xercesc_3_1@@UStringHasher@2@@xercesc_3_1@@UAEAAVDatatypeValidator@2@XZ 12028a94 f i XSModel.obj
 0001:00027a94       ?nextElement@?$RefHashTableOfEnumerator@VGrammar@xercesc_3_1@@UStringHasher@2@@xercesc_3_1@@UAEAAVGrammar@2@XZ 12028a94 f i XMLGrammarPoolImpl.obj
 0001:00027a94       ?nextElement@?$RefHashTableOfEnumerator@VFieldValueMap@xercesc_3_1@@UICValueHasher@2@@xercesc_3_1@@UAEAAVFieldValueMap@2@XZ 12028a94 f i ValueStore.obj
 0001:00027a94       ?nextElement@?$RefHashTableOfEnumerator@VXercesAttGroupInfo@xercesc_3_1@@UStringHasher@2@@xercesc_3_1@@UAEAAVXercesAttGroupInfo@2@XZ 12028a94 f i XSModel.obj
 0001:00027a94       ?nextElement@?$RefHashTableOfEnumerator@VXMLRefInfo@xercesc_3_1@@UStringHasher@2@@xercesc_3_1@@UAEAAVXMLRefInfo@2@XZ 12028a94 f i XMLScanner.obj
 0001:00027a94       ?nextElement@?$RefHashTableOfEnumerator@VKVStringPair@xercesc_3_1@@UStringHasher@2@@xercesc_3_1@@UAEAAVKVStringPair@2@XZ 12028a94 f i XSObjectFactory.obj
 0001:00027a94       ?nextElement@?$RefHashTableOfEnumerator@_WUStringHasher@xercesc_3_1@@@xercesc_3_1@@UAEAA_WXZ 12028a94 f i DOMNormalizer.obj
 0001:00027a94       ?nextElement@?$RefHashTableOfEnumerator@VXMLAttDef@xercesc_3_1@@UStringHasher@2@@xercesc_3_1@@UAEAAVXMLAttDef@2@XZ 12028a94 f i XSModel.obj
 0001:00027a94       ?nextElement@?$RefHashTableOfEnumerator@VComplexTypeInfo@xercesc_3_1@@UStringHasher@2@@xercesc_3_1@@UAEAAVComplexTypeInfo@2@XZ 12028a94 f i XSModel.obj
 0001:00027a94       ?nextElement@?$RefHashTableOfEnumerator@VXercesGroupInfo@xercesc_3_1@@UStringHasher@2@@xercesc_3_1@@UAEAAVXercesGroupInfo@2@XZ 12028a94 f i XSModel.obj
 0001:00027ae1       ?Reset@?$RefHashTableOfEnumerator@VXMLAttDef@xercesc_3_1@@UStringHasher@2@@xercesc_3_1@@UAEXXZ 12028ae1 f i XSModel.obj
 0001:00027ae1       ?Reset@?$RefHashTableOfEnumerator@VXSAnnotation@xercesc_3_1@@UPtrHasher@2@@xercesc_3_1@@UAEXXZ 12028ae1 f i XTemplateSerializer.obj
 0001:00027ae1       ?Reset@?$RefHashTableOfEnumerator@VXercesGroupInfo@xercesc_3_1@@UStringHasher@2@@xercesc_3_1@@UAEXXZ 12028ae1 f i XSModel.obj
 0001:00027ae1       ?Reset@?$RefHashTableOfEnumerator@_WUStringHasher@xercesc_3_1@@@xercesc_3_1@@UAEXXZ 12028ae1 f i DOMNormalizer.obj
 0001:00027ae1       ?Reset@?$RefHashTableOfEnumerator@VDTDAttDef@xercesc_3_1@@UStringHasher@2@@xercesc_3_1@@UAEXXZ 12028ae1 f i XTemplateSerializer.obj
 0001:00027ae1       ?Reset@?$RefHashTableOfEnumerator@VXMLRefInfo@xercesc_3_1@@UStringHasher@2@@xercesc_3_1@@UAEXXZ 12028ae1 f i XMLScanner.obj
 0001:00027ae1       ?Reset@?$RefHashTableOfEnumerator@VXercesAttGroupInfo@xercesc_3_1@@UStringHasher@2@@xercesc_3_1@@UAEXXZ 12028ae1 f i XSModel.obj
 0001:00027ae1       ?Reset@?$RefHashTableOfEnumerator@VKVStringPair@xercesc_3_1@@UStringHasher@2@@xercesc_3_1@@UAEXXZ 12028ae1 f i XSObjectFactory.obj
 0001:00027ae1       ?Reset@?$RefHashTableOfEnumerator@VComplexTypeInfo@xercesc_3_1@@UStringHasher@2@@xercesc_3_1@@UAEXXZ 12028ae1 f i XSModel.obj
 0001:00027ae1       ?Reset@?$RefHashTableOfEnumerator@VGrammar@xercesc_3_1@@UStringHasher@2@@xercesc_3_1@@UAEXXZ 12028ae1 f i XMLGrammarPoolImpl.obj
 0001:00027ae1       ?Reset@?$RefHashTableOfEnumerator@VValueStore@xercesc_3_1@@UPtrHasher@2@@xercesc_3_1@@UAEXXZ 12028ae1 f i ValueStoreCache.obj
 0001:00027ae1       ?Reset@?$RefHashTableOfEnumerator@VDatatypeValidator@xercesc_3_1@@UStringHasher@2@@xercesc_3_1@@UAEXXZ 12028ae1 f i XSModel.obj
 0001:00027ae1       ?Reset@?$RefHashTableOfEnumerator@VFieldValueMap@xercesc_3_1@@UICValueHasher@2@@xercesc_3_1@@UAEXXZ 12028ae1 f i ValueStore.obj
 0001:00027aee       ??_E?$BaseRefVectorOf@VSchemaAttDef@xercesc_3_1@@@xercesc_3_1@@UAEPAXI@Z 12028aee f i * CIL library *:* CIL module *
 0001:00027aee       ??_G?$BaseRefVectorOf@VSchemaAttDef@xercesc_3_1@@@xercesc_3_1@@UAEPAXI@Z 12028aee f i XMLGrammarPoolImpl.obj
 0001:00027b0e       ??_E?$RefVectorOf@VSchemaAttDef@xercesc_3_1@@@xercesc_3_1@@UAEPAXI@Z 12028b0e f i * CIL library *:* CIL module *
 0001:00027b0e       ??_G?$RefVectorOf@VSchemaAttDef@xercesc_3_1@@@xercesc_3_1@@UAEPAXI@Z 12028b0e f i XMLGrammarPoolImpl.obj
 0001:00027b77       ??_G?$RefHash3KeysIdPoolEnumerator@VSchemaElementDecl@xercesc_3_1@@UStringHasher@2@@xercesc_3_1@@UAEPAXI@Z 12028b77 f i XMLGrammarPoolImpl.obj
 0001:00027b77       ??_E?$RefHash3KeysIdPoolEnumerator@VSchemaElementDecl@xercesc_3_1@@UStringHasher@2@@xercesc_3_1@@UAEPAXI@Z 12028b77 f i * CIL library *:* CIL module *
 0001:00027b96       ??_G?$RefHash3KeysIdPool@VSchemaElementDecl@xercesc_3_1@@UStringHasher@2@@xercesc_3_1@@QAEPAXI@Z 12028b96 f i XMLGrammarPoolImpl.obj
 0001:00027bc7       ??_E?$NameIdPoolEnumerator@VXMLNotationDecl@xercesc_3_1@@@xercesc_3_1@@UAEPAXI@Z 12028bc7 f i * CIL library *:* CIL module *
 0001:00027bc7       ??_G?$NameIdPoolEnumerator@VXMLNotationDecl@xercesc_3_1@@@xercesc_3_1@@UAEPAXI@Z 12028bc7 f i XMLGrammarPoolImpl.obj
 0001:00027be7       ??_G?$NameIdPoolEnumerator@VDTDElementDecl@xercesc_3_1@@@xercesc_3_1@@UAEPAXI@Z 12028be7 f i XMLGrammarPoolImpl.obj
 0001:00027be7       ??_E?$NameIdPoolEnumerator@VDTDElementDecl@xercesc_3_1@@@xercesc_3_1@@UAEPAXI@Z 12028be7 f i * CIL library *:* CIL module *
 0001:00027c07       ??_G?$NameIdPoolEnumerator@VDTDEntityDecl@xercesc_3_1@@@xercesc_3_1@@UAEPAXI@Z 12028c07 f i XMLGrammarPoolImpl.obj
 0001:00027c07       ??_E?$NameIdPoolEnumerator@VDTDEntityDecl@xercesc_3_1@@@xercesc_3_1@@UAEPAXI@Z 12028c07 f i * CIL library *:* CIL module *
 0001:00027c27       ??_E?$RefHashTableOfEnumerator@VGrammar@xercesc_3_1@@UStringHasher@2@@xercesc_3_1@@UAEPAXI@Z 12028c27 f i * CIL library *:* CIL module *
 0001:00027c27       ??_G?$RefHashTableOfEnumerator@VGrammar@xercesc_3_1@@UStringHasher@2@@xercesc_3_1@@UAEPAXI@Z 12028c27 f i XMLGrammarPoolImpl.obj
 0001:00027c46       ?findBucketElem@?$RefHash3KeysIdPool@VSchemaElementDecl@xercesc_3_1@@UStringHasher@2@@xercesc_3_1@@AAEPAU?$RefHash3KeysTableBucketElem@VSchemaElementDecl@xercesc_3_1@@@2@QBXHHAAK@Z 12028c46 f i XMLGrammarPoolImpl.obj
 0001:00027c9f       ?ensureExtraCapacity@?$BaseRefVectorOf@VXMLNumber@xercesc_3_1@@@xercesc_3_1@@QAEXK@Z 12028c9f f i XTemplateSerializer.obj
 0001:00027c9f       ?ensureExtraCapacity@?$BaseRefVectorOf@VXercesStep@xercesc_3_1@@@xercesc_3_1@@QAEXK@Z 12028c9f f i XMLGrammarPoolImpl.obj
 0001:00027d13       ??1?$RefHashTableOf@VDTDElementDecl@xercesc_3_1@@UStringHasher@2@@xercesc_3_1@@QAE@XZ 12028d13 f i XMLGrammarPoolImpl.obj
 0001:00027d13       ??1?$RefHashTableOf@VDTDEntityDecl@xercesc_3_1@@UStringHasher@2@@xercesc_3_1@@QAE@XZ 12028d13 f i XTemplateSerializer.obj
 0001:00027d13       ??1?$RefHashTableOf@VXMLNotationDecl@xercesc_3_1@@UStringHasher@2@@xercesc_3_1@@QAE@XZ 12028d13 f i XTemplateSerializer.obj
 0001:00027d2b       ?findNext@?$RefHashTableOfEnumerator@VDatatypeValidator@xercesc_3_1@@UStringHasher@2@@xercesc_3_1@@AAEXXZ 12028d2b f i XSModel.obj
 0001:00027d2b       ?findNext@?$RefHashTableOfEnumerator@_WUStringHasher@xercesc_3_1@@@xercesc_3_1@@AAEXXZ 12028d2b f i DOMNormalizer.obj
 0001:00027d2b       ?findNext@?$RefHashTableOfEnumerator@VXSAnnotation@xercesc_3_1@@UPtrHasher@2@@xercesc_3_1@@AAEXXZ 12028d2b f i XTemplateSerializer.obj
 0001:00027d2b       ?findNext@?$RefHashTableOfEnumerator@VXMLRefInfo@xercesc_3_1@@UStringHasher@2@@xercesc_3_1@@AAEXXZ 12028d2b f i XMLScanner.obj
 0001:00027d2b       ?findNext@?$RefHashTableOfEnumerator@VGrammar@xercesc_3_1@@UStringHasher@2@@xercesc_3_1@@AAEXXZ 12028d2b f i XMLGrammarPoolImpl.obj
 0001:00027d2b       ?findNext@?$RefHashTableOfEnumerator@VXercesAttGroupInfo@xercesc_3_1@@UStringHasher@2@@xercesc_3_1@@AAEXXZ 12028d2b f i XSModel.obj
 0001:00027d2b       ?findNext@?$RefHashTableOfEnumerator@VXMLAttDef@xercesc_3_1@@UStringHasher@2@@xercesc_3_1@@AAEXXZ 12028d2b f i XSModel.obj
 0001:00027d2b       ?findNext@?$RefHashTableOfEnumerator@VXercesGroupInfo@xercesc_3_1@@UStringHasher@2@@xercesc_3_1@@AAEXXZ 12028d2b f i XSModel.obj
 0001:00027d2b       ?findNext@?$RefHashTableOfEnumerator@VComplexTypeInfo@xercesc_3_1@@UStringHasher@2@@xercesc_3_1@@AAEXXZ 12028d2b f i XSModel.obj
 0001:00027d2b       ?findNext@?$RefHashTableOfEnumerator@VFieldValueMap@xercesc_3_1@@UICValueHasher@2@@xercesc_3_1@@AAEXXZ 12028d2b f i ValueStore.obj
 0001:00027d2b       ?findNext@?$RefHashTableOfEnumerator@VValueStore@xercesc_3_1@@UPtrHasher@2@@xercesc_3_1@@AAEXXZ 12028d2b f i ValueStoreCache.obj
 0001:00027d2b       ?findNext@?$RefHashTableOfEnumerator@VKVStringPair@xercesc_3_1@@UStringHasher@2@@xercesc_3_1@@AAEXXZ 12028d2b f i XSObjectFactory.obj
 0001:00027d2b       ?findNext@?$RefHashTableOfEnumerator@VDTDAttDef@xercesc_3_1@@UStringHasher@2@@xercesc_3_1@@AAEXXZ 12028d2b f i XTemplateSerializer.obj
 0001:00027d69       ?findNext@?$RefHash3KeysIdPoolEnumerator@VSchemaElementDecl@xercesc_3_1@@UStringHasher@2@@xercesc_3_1@@AAEXXZ 12028d69 f i XMLGrammarPoolImpl.obj
 0001:00027da7       ?removeAll@?$RefHash3KeysIdPool@VSchemaElementDecl@xercesc_3_1@@UStringHasher@2@@xercesc_3_1@@QAEXXZ 12028da7 f i XMLGrammarPoolImpl.obj
 0001:00027e08       ??_EXMLNotationDecl@xercesc_3_1@@UAEPAXI@Z 12028e08 f i XMLNotationDecl.obj
 0001:00027e53       ??0XMLNotationDecl@xercesc_3_1@@QAE@QAVMemoryManager@1@@Z 12028e53 f   XMLNotationDecl.obj
 0001:00027e7c       ??0XMLNotationDecl@xercesc_3_1@@QAE@QB_W000QAVMemoryManager@1@@Z 12028e7c f   XMLNotationDecl.obj
 0001:00027f16       ??1XMLNotationDecl@xercesc_3_1@@UAE@XZ 12028f16 f   XMLNotationDecl.obj
 0001:00027f42       ?setName@XMLNotationDecl@xercesc_3_1@@QAEXQB_W@Z 12028f42 f   XMLNotationDecl.obj
 0001:00027f6e       ?cleanUp@XMLNotationDecl@xercesc_3_1@@AAEXXZ 12028f6e f   XMLNotationDecl.obj
 0001:00027f9f       ?createObject@XMLNotationDecl@xercesc_3_1@@SAPAVXSerializable@2@PAVMemoryManager@2@@Z 12028f9f f   XMLNotationDecl.obj
 0001:00027fc2       ?getProtoType@XMLNotationDecl@xercesc_3_1@@UBEPAVXProtoType@2@XZ 12028fc2 f   XMLNotationDecl.obj
 0001:00027fc8       ?serialize@XMLNotationDecl@xercesc_3_1@@UAEXAAVXSerializeEngine@2@@Z 12028fc8 f   XMLNotationDecl.obj
 0001:0002808e       ?basicEncodingProbe@XMLRecognizer@xercesc_3_1@@SA?AW4Encodings@12@QBEK@Z 1202908e f   XMLRecognizer.obj
 0001:000281be       ?encodingForName@XMLRecognizer@xercesc_3_1@@SA?AW4Encodings@12@QB_W@Z 120291be f   XMLRecognizer.obj
 0001:0002835e       ?nameForEncoding@XMLRecognizer@xercesc_3_1@@SAPB_WW4Encodings@12@QAVMemoryManager@2@@Z 1202935e f   XMLRecognizer.obj
 0001:0002839f       ?createObject@XMLRefInfo@xercesc_3_1@@SAPAVXSerializable@2@PAVMemoryManager@2@@Z 1202939f f   XMLRefInfo.obj
 0001:000283cd       ?getProtoType@XMLRefInfo@xercesc_3_1@@UBEPAVXProtoType@2@XZ 120293cd f   XMLRefInfo.obj
 0001:000283d3       ?serialize@XMLRefInfo@xercesc_3_1@@UAEXAAVXSerializeEngine@2@@Z 120293d3 f   XMLRefInfo.obj
 0001:0002843d       ??0XMLRefInfo@xercesc_3_1@@QAE@QAVMemoryManager@1@@Z 1202943d f   XMLRefInfo.obj
 0001:0002845b       ??0XMLSchemaDescription@xercesc_3_1@@IAE@QAVMemoryManager@1@@Z 1202945b f   XMLSchemaDescription.obj
 0001:00028470       ?getProtoType@XMLSchemaDescription@xercesc_3_1@@UBEPAVXProtoType@2@XZ 12029470 f   XMLSchemaDescription.obj
 0001:00028476       ?errorType@XMLValid@xercesc_3_1@@SA?AW4ErrTypes@XMLErrorReporter@2@W4Codes@12@@Z 12029476 f i XMLValidator.obj
 0001:0002849c       ??1DTDValidator@xercesc_3_1@@UAE@XZ 1202949c f i DTDValidator.obj
 0001:0002849c       ??1XMLValidator@xercesc_3_1@@UAE@XZ 1202949c f i XMLValidator.obj
 0001:000284a3       ??_FXMLValidator@xercesc_3_1@@QAEXXZ 120294a3 f i XMLValidator.obj
 0001:000284b8       ??_EXMLValidator@xercesc_3_1@@UAEPAXI@Z 120294b8 f i XMLValidator.obj
 0001:00028504       ?setScannerInfo@XMLValidator@xercesc_3_1@@QAEXQAVXMLScanner@2@QAVReaderMgr@2@QAVXMLBufferMgr@2@@Z 12029504 f i XMLValidator.obj
 0001:0002851d       ??0SecurityManager@xercesc_3_1@@QAE@XZ 1202951d f i XMLValidator.obj
 0001:0002852d       ??1SecurityManager@xercesc_3_1@@UAE@XZ 1202952d f i XMLValidator.obj
 0001:00028534       ??_ESecurityManager@xercesc_3_1@@UAEPAXI@Z 12029534 f i XMLValidator.obj
 0001:00028581       ??0Locator@xercesc_3_1@@QAE@XZ 12029581 f i XMLValidator.obj
 0001:0002858a       ??1Locator@xercesc_3_1@@UAE@XZ 1202958a f i XMLValidator.obj
 0001:0002858a       ??1XSDLocator@xercesc_3_1@@UAE@XZ 1202958a f i IGXMLScanner2.obj
 0001:00028591       ??_ELocator@xercesc_3_1@@UAEPAXI@Z 12029591 f i XMLValidator.obj
 0001:000285de       ??_FReaderMgr@xercesc_3_1@@QAEXXZ 120295de f i XMLValidator.obj
 0001:000285ea       ?getCurrentReaderNum@ReaderMgr@xercesc_3_1@@QBEKXZ 120295ea f i XMLValidator.obj
 0001:000285f4       ?getName@ReaderMgr@xercesc_3_1@@QAE_NAAVXMLBuffer@2@@Z 120295f4 f i XMLValidator.obj
 0001:0002860c       ?getQName@ReaderMgr@xercesc_3_1@@QAE_NAAVXMLBuffer@2@PAH@Z 1202960c f i XMLValidator.obj
 0001:00028625       ?getNameToken@ReaderMgr@xercesc_3_1@@QAE_NAAVXMLBuffer@2@@Z 12029625 f i XMLValidator.obj
 0001:0002863d       ?getNextCharIfNot@ReaderMgr@xercesc_3_1@@QAE_N_WAA_W@Z 1202963d f i XMLValidator.obj
 0001:00028649       ?movePlainContentChars@ReaderMgr@xercesc_3_1@@QAEXAAVXMLBuffer@2@@Z 12029649 f i XMLValidator.obj
 0001:0002865d       ?getSrcOffset@ReaderMgr@xercesc_3_1@@QBE_KXZ 1202965d f i XMLValidator.obj
 0001:00028682       ?lookingAtChar@ReaderMgr@xercesc_3_1@@QAE_N_W@Z 12029682 f i XMLValidator.obj
 0001:00028699       ?lookingAtSpace@ReaderMgr@xercesc_3_1@@QAE_NXZ 12029699 f i XMLValidator.obj
 0001:000286b6       ?skippedString@ReaderMgr@xercesc_3_1@@QAE_NQB_W@Z 120296b6 f i XMLValidator.obj
 0001:000286c2       ?skippedStringLong@ReaderMgr@xercesc_3_1@@QAE_NQB_W@Z 120296c2 f i XMLValidator.obj
 0001:000286ce       ?skipPastChar@ReaderMgr@xercesc_3_1@@QAEX_W@Z 120296ce f i XMLValidator.obj
 0001:000286ce       ?skipToChar@ReaderMgr@xercesc_3_1@@QAEX_W@Z 120296ce f i XMLValidator.obj
 0001:000286ee       ?peekString@ReaderMgr@xercesc_3_1@@QAE_NQB_W@Z 120296ee f i XMLValidator.obj
 0001:000286fa       ?setXMLVersion@ReaderMgr@xercesc_3_1@@QAEXW4XMLVersion@XMLReader@2@@Z 120296fa f i XMLValidator.obj
 0001:00028710       ??0ThrowEOEJanitor@xercesc_3_1@@QAE@PAVReaderMgr@1@_N@Z 12029710 f i XMLValidator.obj
 0001:0002872a       ??1ThrowEOEJanitor@xercesc_3_1@@QAE@XZ 1202972a f i XMLValidator.obj
 0001:00028733       ??_FElemStack@xercesc_3_1@@QAEXXZ 12029733 f i XMLValidator.obj
 0001:0002873f       ??_FWFElemStack@xercesc_3_1@@QAEXXZ 1202973f f i XMLValidator.obj
 0001:0002874b       ?isEmpty@ElemStack@xercesc_3_1@@QBE_NXZ 1202974b f i XMLValidator.obj
 0001:00028754       ?getValidationFlag@ElemStack@xercesc_3_1@@QAE_NXZ 12029754 f i XMLValidator.obj
 0001:00028762       ?setValidationFlag@ElemStack@xercesc_3_1@@QAEX_N@Z 12029762 f i XMLValidator.obj
 0001:00028779       ?getCommentOrPISeen@ElemStack@xercesc_3_1@@QBE_NXZ 12029779 f i XMLValidator.obj
 0001:00028787       ?setCommentOrPISeen@ElemStack@xercesc_3_1@@QAEXXZ 12029787 f i XMLValidator.obj
 0001:00028796       ?getReferenceEscaped@ElemStack@xercesc_3_1@@QBE_NXZ 12029796 f i XMLValidator.obj
 0001:000287a4       ?setReferenceEscaped@ElemStack@xercesc_3_1@@QAEXXZ 120297a4 f i XMLValidator.obj
 0001:000287b3       ?setCurrentSchemaElemName@ElemStack@xercesc_3_1@@QAEXQB_W@Z 120297b3 f i XMLValidator.obj
 0001:0002881e       ?getCurrentSchemaElemName@ElemStack@xercesc_3_1@@QAEPA_WXZ 1202981e f i XMLValidator.obj
 0001:0002882c       ?getCurrentScope@ElemStack@xercesc_3_1@@QAEHXZ 1202982c f i XMLValidator.obj
 0001:0002883a       ?setCurrentScope@ElemStack@xercesc_3_1@@QAEXH@Z 1202983a f i XMLValidator.obj
 0001:00028851       ?getCurrentGrammar@ElemStack@xercesc_3_1@@QAEPAVGrammar@2@XZ 12029851 f i XMLValidator.obj
 0001:0002885f       ?setCurrentGrammar@ElemStack@xercesc_3_1@@QAEXPAVGrammar@2@@Z 1202985f f i XMLValidator.obj
 0001:00028876       ?getCurrentURI@ElemStack@xercesc_3_1@@QAEIXZ 12029876 f i XMLValidator.obj
 0001:00028884       ?setCurrentURI@ElemStack@xercesc_3_1@@QAEXI@Z 12029884 f i XMLValidator.obj
 0001:0002889b       ?getPrefixId@ElemStack@xercesc_3_1@@QBEIQB_W@Z 1202989b f i XMLValidator.obj
 0001:000288a7       ?getPrefixForId@ElemStack@xercesc_3_1@@QBEPB_WI@Z 120298a7 f i XMLValidator.obj
 0001:000288b3       ?setPrefixColonPos@ElemStack@xercesc_3_1@@QAEXH@Z 120298b3 f i XMLValidator.obj
 0001:000288ca       ?getPrefixColonPos@ElemStack@xercesc_3_1@@QBEHXZ 120298ca f i XMLValidator.obj
 0001:000288d8       ?getCurrentURI@WFElemStack@xercesc_3_1@@QAEIXZ 120298d8 f i XMLValidator.obj
 0001:000288e6       ?setCurrentURI@WFElemStack@xercesc_3_1@@QAEXI@Z 120298e6 f i XMLValidator.obj
 0001:000288fd       ?useCachedGrammarInParse@GrammarResolver@xercesc_3_1@@QAEX_N@Z 120298fd f i XMLValidator.obj
 0001:000288fd       ?setProcessed@SchemaInfo@xercesc_3_1@@QAEX_N@Z 120298fd f i IGXMLScanner.obj
 0001:0002890a       ?getGrammarPoolMemoryManager@GrammarResolver@xercesc_3_1@@QBEPAVMemoryManager@2@XZ 1202990a f i XMLValidator.obj
 0001:00028911       ?bufferFull@XMLScanner@xercesc_3_1@@UAE_NAAVXMLBuffer@2@@Z 12029911 f i XMLValidator.obj
 0001:00028922       ?getFeature@DOMTextImpl@xercesc_3_1@@UBEPAXPB_W0@Z 12029922 f i DOMTextImpl.obj
 0001:00028922       ?getFeature@DOMCommentImpl@xercesc_3_1@@UBEPAXPB_W0@Z 12029922 f i DOMCommentImpl.obj
 0001:00028922       ?getFeature@DOMDocumentFragmentImpl@xercesc_3_1@@UBEPAXPB_W0@Z 12029922 f i DOMDocumentFragmentImpl.obj
 0001:00028922       ?getFeature@DOMNodeImpl@xercesc_3_1@@QBEPAXPB_W0@Z 12029922 f i DOMNodeImpl.obj
 0001:00028922       ?getFeature@DOMCDATASectionImpl@xercesc_3_1@@UBEPAXPB_W0@Z 12029922 f i DOMCDATASectionImpl.obj
 0001:00028922       ?getFeature@DOMProcessingInstructionImpl@xercesc_3_1@@UBEPAXPB_W0@Z 12029922 f i DOMProcessingInstructionImpl.obj
 0001:00028922       ?getEscapedHRefAttrValue@XIncludeUtils@xercesc_3_1@@AAEPB_WPB_WAA_N@Z 12029922 f i XIncludeUtils.obj
 0001:00028922       ?resolveEntity@HandlerBase@xercesc_3_1@@UAEPAVInputSource@2@QB_W0@Z 12029922 f i Dummy.obj
 0001:00028922       ?getFeature@DOMEntityReferenceImpl@xercesc_3_1@@UBEPAXPB_W0@Z 12029922 f i DOMEntityReferenceImpl.obj
 0001:00028922       ?getFeature@DOMEntityImpl@xercesc_3_1@@UBEPAXPB_W0@Z 12029922 f i DOMEntityImpl.obj
 0001:00028922       ?getFeature@DOMElementImpl@xercesc_3_1@@UBEPAXPB_W0@Z 12029922 f i DOMElementImpl.obj
 0001:00028922       ?getFeature@DOMNotationImpl@xercesc_3_1@@UBEPAXPB_W0@Z 12029922 f i DOMNotationImpl.obj
 0001:00028922       ?resolveSystemId@WFXMLScanner@xercesc_3_1@@EAEPAVInputSource@2@QB_W0@Z 12029922 f i WFXMLScanner.obj
 0001:00028922       ?resolveEntity@DefaultHandler@xercesc_3_1@@UAEPAVInputSource@2@QB_W0@Z 12029922 f i sax2Dummy.obj
 0001:00028922       ?resolveSystemId@XMLScanner@xercesc_3_1@@MAEPAVInputSource@2@QB_W0@Z 12029922 f i XMLValidator.obj
 0001:00028922       ?getFeature@DOMImplementationImpl@xercesc_3_1@@UBEPAXPB_W0@Z 12029922 f i DOMImplementationImpl.obj
 0001:00028927       ?getDocHandler@XMLScanner@xercesc_3_1@@QBEPBVXMLDocumentHandler@2@XZ 12029927 f i XMLValidator.obj
 0001:00028927       ?getDocHandler@XMLScanner@xercesc_3_1@@QAEPAVXMLDocumentHandler@2@XZ 12029927 f i XMLValidator.obj
 0001:00028927       ?getXMLEntityResolver@XercesDOMParser@xercesc_3_1@@QBEPBVXMLEntityResolver@2@XZ 12029927 f i XSAnnotation.obj
 0001:00028927       ?getXMLEntityResolver@XercesDOMParser@xercesc_3_1@@QAEPAVXMLEntityResolver@2@XZ 12029927 f i XSAnnotation.obj
 0001:00028927       ?getLexicalHandler@SAX2XMLReaderImpl@xercesc_3_1@@UBEPAVLexicalHandler@2@XZ 12029927 f i SAX2XMLReaderImpl.obj
 0001:0002892b       ?getDeclarationHandler@SAX2XMLReaderImpl@xercesc_3_1@@UBEPAVDeclHandler@2@XZ 1202992b f i SAX2XMLReaderImpl.obj
 0001:0002892b       ?getErrorHandler@XercesDOMParser@xercesc_3_1@@QAEPAVErrorHandler@2@XZ 1202992b f i XSAnnotation.obj
 0001:0002892b       ?getDocTypeHandler@XMLScanner@xercesc_3_1@@QBEPBVDocTypeHandler@2@XZ 1202992b f i XMLValidator.obj
 0001:0002892b       ?getErrorHandler@XercesDOMParser@xercesc_3_1@@QBEPBVErrorHandler@2@XZ 1202992b f i XSAnnotation.obj
 0001:0002892b       ?getDocTypeHandler@XMLScanner@xercesc_3_1@@QAEPAVDocTypeHandler@2@XZ 1202992b f i XMLValidator.obj
 0001:0002892f       ?getDoNamespaces@XMLScanner@xercesc_3_1@@QBE_NXZ 1202992f f i XMLValidator.obj
 0001:00028933       ?getEntityHandler@XMLScanner@xercesc_3_1@@QAEPAVXMLEntityHandler@2@XZ 12029933 f i XMLValidator.obj
 0001:00028933       ?getNonXSAttList@SchemaInfo@xercesc_3_1@@QBEPAV?$ValueVectorOf@PAVDOMNode@xercesc_3_1@@@2@XZ 12029933 f i IGXMLScanner.obj
 0001:00028933       ?getEntityHandler@XMLScanner@xercesc_3_1@@QBEPBVXMLEntityHandler@2@XZ 12029933 f i XMLValidator.obj
 0001:00028937       ?getMemoryAllocationBlockSize@DOMDocumentImpl@xercesc_3_1@@UBEKXZ 12029937 f i DOMDocumentImpl.obj
 0001:00028937       ?getErrorReporter@XMLScanner@xercesc_3_1@@QBEPBVXMLErrorReporter@2@XZ 12029937 f i XMLValidator.obj
 0001:00028937       ?getValidationContext@SchemaInfo@xercesc_3_1@@QBEPAVValidationContext@2@XZ 12029937 f i IGXMLScanner.obj
 0001:00028937       ?getErrorReporter@XMLScanner@xercesc_3_1@@QAEPAVXMLErrorReporter@2@XZ 12029937 f i XMLValidator.obj
 0001:0002893b       ?getErrorHandler@XMLScanner@xercesc_3_1@@QAEPAVErrorHandler@2@XZ 1202993b f i XMLValidator.obj
 0001:0002893b       ?getErrorHandler@XMLScanner@xercesc_3_1@@QBEPBVErrorHandler@2@XZ 1202993b f i XMLValidator.obj
 0001:0002893f       ?getExitOnFirstFatal@XMLScanner@xercesc_3_1@@QBE_NXZ 1202993f f i XMLValidator.obj
 0001:00028943       ?getInException@XMLScanner@xercesc_3_1@@QBE_NXZ 12029943 f i XMLValidator.obj
 0001:00028947       ?getIDRefList@XMLScanner@xercesc_3_1@@QBEPBV?$RefHashTableOf@VXMLRefInfo@xercesc_3_1@@UStringHasher@2@@2@XZ 12029947 f i XMLValidator.obj
 0001:00028947       ?getIDRefList@XMLScanner@xercesc_3_1@@QAEPAV?$RefHashTableOf@VXMLRefInfo@xercesc_3_1@@UStringHasher@2@@2@XZ 12029947 f i XMLValidator.obj
 0001:00028952       ?getValidationContext@XMLScanner@xercesc_3_1@@QAEPAVValidationContext@2@XZ 12029952 f i XMLValidator.obj
 0001:00028986       ?getReaderMgr@XMLScanner@xercesc_3_1@@QBEPBVReaderMgr@2@XZ 12029986 f i XMLValidator.obj
 0001:00028986       ?getLocator@XMLScanner@xercesc_3_1@@QBEPBVLocator@2@XZ 12029986 f i XMLValidator.obj
 0001:0002898d       ?getSrcOffset@XMLScanner@xercesc_3_1@@QBE_KXZ 1202998d f i XMLValidator.obj
 0001:00028998       ?getStandalone@XMLScanner@xercesc_3_1@@QBE_NXZ 12029998 f i XMLValidator.obj
 0001:0002899c       ?getValidationScheme@XMLScanner@xercesc_3_1@@QBE?AW4ValSchemes@12@XZ 1202999c f i XMLValidator.obj
 0001:000289a3       ?getValidator@XMLScanner@xercesc_3_1@@QBEPBVXMLValidator@2@XZ 120299a3 f i XMLValidator.obj
 0001:000289a3       ?getValidator@XMLScanner@xercesc_3_1@@QAEPAVXMLValidator@2@XZ 120299a3 f i XMLValidator.obj
 0001:000289aa       ?getDoSchema@XMLScanner@xercesc_3_1@@QBE_NXZ 120299aa f i XMLValidator.obj
 0001:000289ae       ?getValidationSchemaFullChecking@XMLScanner@xercesc_3_1@@QBE_NXZ 120299ae f i XMLValidator.obj
 0001:000289ae       ?getParseInProgress@AbstractDOMParser@xercesc_3_1@@IBE_NXZ 120299ae f i XSAnnotation.obj
 0001:000289b2       ?getCreateCommentNodes@AbstractDOMParser@xercesc_3_1@@QBE_NXZ 120299b2 f i XSAnnotation.obj
 0001:000289b2       ?getIdentityConstraintChecking@XMLScanner@xercesc_3_1@@QBE_NXZ 120299b2 f i XMLValidator.obj
 0001:000289b2       ?isFixed@XSFacet@xercesc_3_1@@QBE_NXZ 120299b2 f i XSFacet.obj
 0001:000289b2       ?isFixed@XSMultiValueFacet@xercesc_3_1@@QBE_NXZ 120299b2 f i XSMultiValueFacet.obj
 0001:000289b6       ?getURIStringPool@XMLScanner@xercesc_3_1@@QAEPAVXMLStringPool@2@XZ 120299b6 f i XMLValidator.obj
 0001:000289b6       ?getURIStringPool@XMLScanner@xercesc_3_1@@QBEPBVXMLStringPool@2@XZ 120299b6 f i XMLValidator.obj
 0001:000289bd       ?getHasNoDTD@XMLScanner@xercesc_3_1@@QBE_NXZ 120299bd f i XMLValidator.obj
 0001:000289c1       ?getExternalSchemaLocation@XMLScanner@xercesc_3_1@@QBEPA_WXZ 120299c1 f i XMLValidator.obj
 0001:000289c8       ?getExternalNoNamespaceSchemaLocation@XMLScanner@xercesc_3_1@@QBEPA_WXZ 120299c8 f i XMLValidator.obj
 0001:000289cf       ?getSecurityManager@XMLScanner@xercesc_3_1@@QBEPAVSecurityManager@2@XZ 120299cf f i XMLValidator.obj
 0001:000289d6       ?getLoadExternalDTD@XMLScanner@xercesc_3_1@@QBE_NXZ 120299d6 f i XMLValidator.obj
 0001:000289d6       ?getDoXInclude@AbstractDOMParser@xercesc_3_1@@QBE_NXZ 120299d6 f i XSAnnotation.obj
 0001:000289da       ?isCachingGrammarFromParse@XMLScanner@xercesc_3_1@@QBE_NXZ 120299da f i XMLValidator.obj
 0001:000289da       ?isDocumentAdopted@AbstractDOMParser@xercesc_3_1@@IBE_NXZ 120299da f i AbstractDOMParser.obj
 0001:000289de       ?getCreateSchemaInfo@AbstractDOMParser@xercesc_3_1@@QBE_NXZ 120299de f i XSAnnotation.obj
 0001:000289de       ?isUsingCachedGrammarInParse@XMLScanner@xercesc_3_1@@QBE_NXZ 120299de f i XMLValidator.obj
 0001:000289e2       ?getCalculateSrcOfs@XMLScanner@xercesc_3_1@@QBE_NXZ 120299e2 f i XMLValidator.obj
 0001:000289e6       ?getRootGrammar@XMLScanner@xercesc_3_1@@QBEPAVGrammar@2@XZ 120299e6 f i XMLValidator.obj
 0001:000289ed       ?getXMLVersion@XMLScanner@xercesc_3_1@@QBE?AW4XMLVersion@XMLReader@2@XZ 120299ed f i XMLValidator.obj
 0001:000289f4       ?getMemoryManager@XMLScanner@xercesc_3_1@@QBEPAVMemoryManager@2@XZ 120299f4 f i XMLValidator.obj
 0001:000289fb       ?getNamespaceContext@XMLScanner@xercesc_3_1@@QBEPAV?$ValueVectorOf@PAUPrefMapElem@xercesc_3_1@@@2@XZ 120299fb f i XMLValidator.obj
 0001:00028a06       ?getPrefixId@XMLScanner@xercesc_3_1@@QBEIQB_W@Z 12029a06 f i XMLValidator.obj
 0001:00028a15       ?getPrefixForId@XMLScanner@xercesc_3_1@@QBEPB_WI@Z 12029a15 f i XMLValidator.obj
 0001:00028a24       ?getGenerateSyntheticAnnotations@XMLScanner@xercesc_3_1@@QBE_NXZ 12029a24 f i XMLValidator.obj
 0001:00028a28       ?getValidateAnnotations@XMLScanner@xercesc_3_1@@QBE_NXZ 12029a28 f i XMLValidator.obj
 0001:00028a2c       ?getLowWaterMark@XMLScanner@xercesc_3_1@@QBEABKXZ 12029a2c f i XMLValidator.obj
 0001:00028a30       ?getIgnoreCachedDTD@XMLScanner@xercesc_3_1@@QBE_NXZ 12029a30 f i XMLValidator.obj
 0001:00028a30       ?getMaxOccursUnbounded@XSParticle@xercesc_3_1@@QBE_NXZ 12029a30 f i XSComplexTypeDefinition.obj
 0001:00028a30       ?getIsSchemaSpecified@PSVIItem@xercesc_3_1@@QBE_NXZ 12029a30 f i PSVIAttribute.obj
 0001:00028a34       ?getIgnoreAnnotations@XMLScanner@xercesc_3_1@@QBE_NXZ 12029a34 f i XMLValidator.obj
 0001:00028a38       ?getDisableDefaultEntityResolution@XMLScanner@xercesc_3_1@@QBE_NXZ 12029a38 f i XMLValidator.obj
 0001:00028a3c       ?getSkipDTDValidation@XMLScanner@xercesc_3_1@@QBE_NXZ 12029a3c f i XMLValidator.obj
 0001:00028a40       ?addGlobalPrefix@XMLScanner@xercesc_3_1@@QAEXQB_WI@Z 12029a40 f i XMLValidator.obj
 0001:00028a4f       ?setDocHandler@XMLScanner@xercesc_3_1@@QAEXQAVXMLDocumentHandler@2@@Z 12029a4f f i XMLValidator.obj
 0001:00028a5c       ?setDocTypeHandler@XMLScanner@xercesc_3_1@@QAEXQAVDocTypeHandler@2@@Z 12029a5c f i XMLValidator.obj
 0001:00028a69       ?setErrorHandler@XMLScanner@xercesc_3_1@@QAEXQAVErrorHandler@2@@Z 12029a69 f i XMLValidator.obj
 0001:00028a76       ?setPSVIHandler@XMLScanner@xercesc_3_1@@QAEXQAVPSVIHandler@2@@Z 12029a76 f i XMLValidator.obj
 0001:00028a83       ?setEntityHandler@XMLScanner@xercesc_3_1@@QAEXQAVXMLEntityHandler@2@@Z 12029a83 f i XMLValidator.obj
 0001:00028a96       ?setErrorReporter@XMLScanner@xercesc_3_1@@QAEXQAVXMLErrorReporter@2@@Z 12029a96 f i XMLValidator.obj
 0001:00028aa3       ?setExitOnFirstFatal@XMLScanner@xercesc_3_1@@QAEX_N@Z 12029aa3 f i XMLValidator.obj
 0001:00028ab0       ?setValidationScheme@XMLScanner@xercesc_3_1@@QAEXW4ValSchemes@12@@Z 12029ab0 f i XMLValidator.obj
 0001:00028ac9       ?setDoSchema@XMLScanner@xercesc_3_1@@QAEX_N@Z 12029ac9 f i XMLValidator.obj
 0001:00028ad6       ?setDoNamespaces@XMLScanner@xercesc_3_1@@QAEX_N@Z 12029ad6 f i XMLValidator.obj
 0001:00028ae3       ?setValidationSchemaFullChecking@XMLScanner@xercesc_3_1@@QAEX_N@Z 12029ae3 f i XMLValidator.obj
 0001:00028ae3       ?setParseInProgress@AbstractDOMParser@xercesc_3_1@@IAEX_N@Z 12029ae3 f i XSAnnotation.obj
 0001:00028af0       ?setIdentityConstraintChecking@XMLScanner@xercesc_3_1@@QAEX_N@Z 12029af0 f i XMLValidator.obj
 0001:00028af0       ?setCreateCommentNodes@AbstractDOMParser@xercesc_3_1@@QAEX_N@Z 12029af0 f i XSAnnotation.obj
 0001:00028afd       ?setHasNoDTD@XMLScanner@xercesc_3_1@@QAEX_N@Z 12029afd f i XMLValidator.obj
 0001:00028b0a       ?setRootElemName@XMLScanner@xercesc_3_1@@QAEXPA_W@Z 12029b0a f i XMLValidator.obj
 0001:00028b3c       ?setExternalSchemaLocation@XMLScanner@xercesc_3_1@@QAEXQB_W@Z 12029b3c f i XMLValidator.obj
 0001:00028b6e       ?setExternalNoNamespaceSchemaLocation@XMLScanner@xercesc_3_1@@QAEXQB_W@Z 12029b6e f i XMLValidator.obj
 0001:00028ba0       ?setExternalSchemaLocation@XMLScanner@xercesc_3_1@@QAEXQBD@Z 12029ba0 f i XMLValidator.obj
 0001:00028bd2       ?setExternalNoNamespaceSchemaLocation@XMLScanner@xercesc_3_1@@QAEXQBD@Z 12029bd2 f i XMLValidator.obj
 0001:00028c04       ?setSecurityManager@XMLScanner@xercesc_3_1@@QAEXQAVSecurityManager@2@@Z 12029c04 f i XMLValidator.obj
 0001:00028c28       ?setDoXInclude@AbstractDOMParser@xercesc_3_1@@QAEX_N@Z 12029c28 f i XSAnnotation.obj
 0001:00028c28       ?setLoadExternalDTD@XMLScanner@xercesc_3_1@@QAEX_N@Z 12029c28 f i XMLValidator.obj
 0001:00028c35       ?cacheGrammarFromParse@XMLScanner@xercesc_3_1@@QAEX_N@Z 12029c35 f i XMLValidator.obj
 0001:00028c42       ?useCachedGrammarInParse@XMLScanner@xercesc_3_1@@QAEX_N@Z 12029c42 f i XMLValidator.obj
 0001:00028c4f       ?setCalculateSrcOfs@XMLScanner@xercesc_3_1@@QAEX_N@Z 12029c4f f i XMLValidator.obj
 0001:00028c5c       ?setStandardUriConformant@XMLScanner@xercesc_3_1@@QAEX_N@Z 12029c5c f i XMLValidator.obj
 0001:00028c6f       ?setGenerateSyntheticAnnotations@XMLScanner@xercesc_3_1@@QAEX_N@Z 12029c6f f i XMLValidator.obj
 0001:00028c7c       ?setValidateAnnotations@XMLScanner@xercesc_3_1@@QAEX_N@Z 12029c7c f i XMLValidator.obj
 0001:00028c89       ?setInputBufferSize@XMLScanner@xercesc_3_1@@QAEXK@Z 12029c89 f i XMLValidator.obj
 0001:00028ca3       ?setIgnoreAnnotations@XMLScanner@xercesc_3_1@@QAEX_N@Z 12029ca3 f i XMLValidator.obj
 0001:00028cb0       ?setDisableDefaultEntityResolution@XMLScanner@xercesc_3_1@@QAEX_N@Z 12029cb0 f i XMLValidator.obj
 0001:00028cbd       ?setSkipDTDValidation@XMLScanner@xercesc_3_1@@QAEX_N@Z 12029cbd f i XMLValidator.obj
 0001:00028cca       ?incrementErrorCount@XMLScanner@xercesc_3_1@@QAEXXZ 12029cca f i XMLValidator.obj
 0001:00028cce       ?resetValidationContext@XMLScanner@xercesc_3_1@@IAEXXZ 12029cce f i XMLValidator.obj
 0001:00028cf2       ?setAttrDupChkRegistry@XMLScanner@xercesc_3_1@@IAEXABKAA_N@Z 12029cf2 f i XMLValidator.obj
 0001:00028d5d       ?initializeXMLValidator@XMLInitializer@xercesc_3_1@@CAXXZ 12029d5d f   XMLValidator.obj
 0001:00028d7a       ?terminateXMLValidator@XMLInitializer@xercesc_3_1@@CAXXZ 12029d7a f   XMLValidator.obj
 0001:00028d92       ?emitError@XMLValidator@xercesc_3_1@@QAEXW4Codes@XMLValid@2@@Z 12029d92 f   XMLValidator.obj
 0001:00028e6f       ?emitError@XMLValidator@xercesc_3_1@@QAEXW4Codes@XMLValid@2@QB_W111@Z 12029e6f f   XMLValidator.obj
 0001:00028f85       ?emitError@XMLValidator@xercesc_3_1@@QAEXW4Codes@XMLValid@2@QBD111@Z 12029f85 f   XMLValidator.obj
 0001:0002909b       ?emitError@XMLValidator@xercesc_3_1@@QAEXW4Codes@XMLValid@2@W43XMLExcepts@2@QB_W222@Z 1202a09b f   XMLValidator.obj
 0001:000291b3       ??0XMLValidator@xercesc_3_1@@IAE@QAVXMLErrorReporter@1@@Z 1202a1b3 f   XMLValidator.obj
 0001:000291d3       ??0?$RefHash2KeysTableOf@VXMLAttr@xercesc_3_1@@UStringHasher@2@@xercesc_3_1@@QAE@K_NQAVMemoryManager@1@@Z 1202a1d3 f i XMLValidator.obj
 0001:00029241       ?removeAll@?$RefHash2KeysTableOf@VXMLAttr@xercesc_3_1@@UStringHasher@2@@xercesc_3_1@@QAEXXZ 1202a241 f i XMLValidator.obj
 0001:000292b0       ??_FPSVIItem@xercesc_3_1@@QAEXXZ 1202a2b0 f i PSVIAttribute.obj
 0001:000292bc       ??_EPSVIItem@xercesc_3_1@@UAEPAXI@Z 1202a2bc f i PSVIAttribute.obj
 0001:00029308       ??1PSVIItem@xercesc_3_1@@UAE@XZ 1202a308 f i PSVIAttribute.obj
 0001:0002930f       ??_FPSVIAttribute@xercesc_3_1@@QAEXXZ 1202a30f f i PSVIAttribute.obj
 0001:0002931b       ??_EPSVIAttribute@xercesc_3_1@@UAEPAXI@Z 1202a31b f i PSVIAttribute.obj
 0001:00029366       ??1PSVIAttribute@xercesc_3_1@@UAE@XZ 1202a366 f i PSVIAttribute.obj
 0001:00029398       ??0PSVIAttribute@xercesc_3_1@@QAE@QAVMemoryManager@1@@Z 1202a398 f   PSVIAttribute.obj
 0001:000293bb       ?reset@PSVIAttribute@xercesc_3_1@@QAEXQB_WW4VALIDITY_STATE@PSVIItem@2@W4ASSESSMENT_TYPE@42@PAVXSSimpleTypeDefinition@2@30_NPAVXSAttributeDeclaration@2@PAVDatatypeValidator@2@@Z 1202a3bb f   PSVIAttribute.obj
 0001:0002940f       ?setValue@PSVIAttribute@xercesc_3_1@@QAEXQB_W@Z 1202a40f f   PSVIAttribute.obj
 0001:0002943f       ??0PSVIAttributeStorage@xercesc_3_1@@QAE@XZ 1202a43f f i PSVIAttributeList.obj
 0001:0002944c       ??1PSVIAttributeStorage@xercesc_3_1@@QAE@XZ 1202a44c f i PSVIAttributeList.obj
 0001:00029459       ??4PSVIAttributeStorage@xercesc_3_1@@QAEAAV01@ABV01@@Z 1202a459 f i PSVIAttributeList.obj
 0001:00029459       ??4XIncludeUtils@xercesc_3_1@@QAEAAV01@ABV01@@Z 1202a459 f i AbstractDOMParser.obj
 0001:0002946e       ??_FPSVIAttributeList@xercesc_3_1@@QAEXXZ 1202a46e f i PSVIAttributeList.obj
 0001:0002947a       ??1PSVIAttributeList@xercesc_3_1@@QAE@XZ 1202a47a f i PSVIAttributeList.obj
 0001:00029488       ?getPSVIAttributeToFill@PSVIAttributeList@xercesc_3_1@@QAEPAVPSVIAttribute@2@PB_W0@Z 1202a488 f i PSVIAttributeList.obj
 0001:0002950c       ??0PSVIAttributeList@xercesc_3_1@@QAE@QAVMemoryManager@1@@Z 1202a50c f   PSVIAttributeList.obj
 0001:00029558       ?getAttributePSVIAtIndex@PSVIAttributeList@xercesc_3_1@@QAEPAVPSVIAttribute@2@K@Z 1202a558 f   PSVIAttributeList.obj
 0001:00029584       ?getAttributeNameAtIndex@PSVIAttributeList@xercesc_3_1@@QAEPB_WK@Z 1202a584 f   PSVIAttributeList.obj
 0001:000295b1       ?getAttributeNamespaceAtIndex@PSVIAttributeList@xercesc_3_1@@QAEPB_WK@Z 1202a5b1 f   PSVIAttributeList.obj
 0001:000295de       ?getAttributePSVIByName@PSVIAttributeList@xercesc_3_1@@QAEPAVPSVIAttribute@2@PB_W0@Z 1202a5de f   PSVIAttributeList.obj
 0001:00029641       ??1?$BaseRefVectorOf@VPSVIAttributeStorage@xercesc_3_1@@@xercesc_3_1@@UAE@XZ 1202a641 f i PSVIAttributeList.obj
 0001:00029648       ?setElementAt@?$BaseRefVectorOf@VPSVIAttributeStorage@xercesc_3_1@@@xercesc_3_1@@UAEXQAVPSVIAttributeStorage@2@K@Z 1202a648 f i PSVIAttributeList.obj
 0001:000296a6       ?removeAllElements@?$BaseRefVectorOf@VPSVIAttributeStorage@xercesc_3_1@@@xercesc_3_1@@UAEXXZ 1202a6a6 f i PSVIAttributeList.obj
 0001:000296db       ?removeElementAt@?$BaseRefVectorOf@VPSVIAttributeStorage@xercesc_3_1@@@xercesc_3_1@@UAEXK@Z 1202a6db f i PSVIAttributeList.obj
 0001:00029767       ?removeLastElement@?$BaseRefVectorOf@VPSVIAttributeStorage@xercesc_3_1@@@xercesc_3_1@@UAEXXZ 1202a767 f i PSVIAttributeList.obj
 0001:0002978b       ?cleanup@?$BaseRefVectorOf@VPSVIAttributeStorage@xercesc_3_1@@@xercesc_3_1@@UAEXXZ 1202a78b f i PSVIAttributeList.obj
 0001:000297c0       ??0?$RefVectorOf@VPSVIAttributeStorage@xercesc_3_1@@@xercesc_3_1@@QAE@K_NQAVMemoryManager@1@@Z 1202a7c0 f i PSVIAttributeList.obj
 0001:0002980d       ??_E?$BaseRefVectorOf@VPSVIAttributeStorage@xercesc_3_1@@@xercesc_3_1@@UAEPAXI@Z 1202a80d f i * CIL library *:* CIL module *
 0001:0002980d       ??_G?$BaseRefVectorOf@VPSVIAttributeStorage@xercesc_3_1@@@xercesc_3_1@@UAEPAXI@Z 1202a80d f i PSVIAttributeList.obj
 0001:0002982d       ??_GPSVIAttributeStorage@xercesc_3_1@@QAEPAXI@Z 1202a82d f i PSVIAttributeList.obj
 0001:00029849       ??_G?$RefVectorOf@VPSVIAttributeStorage@xercesc_3_1@@@xercesc_3_1@@UAEPAXI@Z 1202a849 f i PSVIAttributeList.obj
 0001:00029849       ??_E?$RefVectorOf@VPSVIAttributeStorage@xercesc_3_1@@@xercesc_3_1@@UAEPAXI@Z 1202a849 f i * CIL library *:* CIL module *
 0001:000298b2       ??_FPSVIElement@xercesc_3_1@@QAEXXZ 1202a8b2 f i PSVIElement.obj
 0001:000298be       ??_EPSVIElement@xercesc_3_1@@UAEPAXI@Z 1202a8be f i PSVIElement.obj
 0001:00029909       ?getSubstitutionGroupExclusions@XSElementDeclaration@xercesc_3_1@@QBEFXZ 1202a909 f i PSVIElement.obj
 0001:0002990e       ?getDisallowedSubstitutions@XSElementDeclaration@xercesc_3_1@@QBEFXZ 1202a90e f i PSVIElement.obj
 0001:00029913       ?getProhibitedSubstitutions@XSComplexTypeDefinition@xercesc_3_1@@QBEFXZ 1202a913 f i PSVIElement.obj
 0001:00029918       ??0PSVIElement@xercesc_3_1@@QAE@QAVMemoryManager@1@@Z 1202a918 f   PSVIElement.obj
 0001:0002993e       ??1PSVIElement@xercesc_3_1@@UAE@XZ 1202a93e f   PSVIElement.obj
 0001:00029970       ?reset@PSVIElement@xercesc_3_1@@QAEXW4VALIDITY_STATE@PSVIItem@2@W4ASSESSMENT_TYPE@42@QB_W_NQAVXSElementDeclaration@2@QAVXSTypeDefinition@2@QAVXSSimpleTypeDefinition@2@QAVXSModel@2@22QA_WQAVXSNotationDeclaration@2@@Z 1202a970 f   PSVIElement.obj
 0001:000299ce       ??0PSVIItem@xercesc_3_1@@QAE@QAVMemoryManager@1@@Z 1202a9ce f   PSVIItem.obj
 0001:00029a04       ?reset@PSVIItem@xercesc_3_1@@QAEXQB_W0W4VALIDITY_STATE@12@W4ASSESSMENT_TYPE@12@@Z 1202aa04 f   PSVIItem.obj
 0001:00029a23       ?getActualValue@PSVIItem@xercesc_3_1@@UBEPAVXSValue@2@XZ 1202aa23 f   PSVIItem.obj
 0001:00029aa4       ??_EXSAnnotation@xercesc_3_1@@UAEPAXI@Z 1202aaa4 f i XSAnnotation.obj
 0001:00029aef       ??0XMLPScanToken@xercesc_3_1@@QAE@XZ 1202aaef f i XSAnnotation.obj
 0001:00029aef       ??0DOMChildNode@xercesc_3_1@@QAE@XZ 1202aaef f i DOMChildNode.obj
 0001:00029af9       ??4XMLPScanToken@xercesc_3_1@@QAEAAV01@ABV01@@Z 1202aaf9 f i XSAnnotation.obj
 0001:00029af9       ??4FieldActivator@xercesc_3_1@@QAEAAV01@ABV01@@Z 1202aaf9 f i FieldActivator.obj
 0001:00029b13       ?set@XMLPScanToken@xercesc_3_1@@IAEXII@Z 1202ab13 f i XSAnnotation.obj
 0001:00029b25       ??0SAX2XMLReader@xercesc_3_1@@QAE@XZ 1202ab25 f i XSAnnotation.obj
 0001:00029b2e       ??1SAX2XMLFilter@xercesc_3_1@@UAE@XZ 1202ab2e f i SAX2XMLFilterImpl.obj
 0001:00029b2e       ??1SAX2XMLReader@xercesc_3_1@@UAE@XZ 1202ab2e f i XSAnnotation.obj
 0001:00029b35       ??_ESAX2XMLFilter@xercesc_3_1@@UAEPAXI@Z 1202ab35 f i SAX2XMLFilterImpl.obj
 0001:00029b35       ??_ESAX2XMLReader@xercesc_3_1@@UAEPAXI@Z 1202ab35 f i XSAnnotation.obj
 0001:00029b82       ??0SAXException@xercesc_3_1@@QAE@QAVMemoryManager@1@@Z 1202ab82 f i XSAnnotation.obj
 0001:00029bad       ??0SAXException@xercesc_3_1@@QAE@QB_WQAVMemoryManager@1@@Z 1202abad f i XSAnnotation.obj
 0001:00029bd6       ??0SAXException@xercesc_3_1@@QAE@QBDQAVMemoryManager@1@@Z 1202abd6 f i XSAnnotation.obj
 0001:00029bff       ??0SAXException@xercesc_3_1@@QAE@ABV01@@Z 1202abff f i XSAnnotation.obj
 0001:00029c2d       ??1SAXNotRecognizedException@xercesc_3_1@@UAE@XZ 1202ac2d f i XSAnnotation.obj
 0001:00029c2d       ??1SAXException@xercesc_3_1@@UAE@XZ 1202ac2d f i XSAnnotation.obj
 0001:00029c2d       ??1SAXNotSupportedException@xercesc_3_1@@UAE@XZ 1202ac2d f i XSAnnotation.obj
 0001:00029c41       ??4SAXException@xercesc_3_1@@QAEAAV01@ABV01@@Z 1202ac41 f i XSAnnotation.obj
 0001:00029c78       ??_FSAXException@xercesc_3_1@@QAEXXZ 1202ac78 f i XSAnnotation.obj
 0001:00029c84       ??_ESAXException@xercesc_3_1@@UAEPAXI@Z 1202ac84 f i XSAnnotation.obj
 0001:00029c84       ??_ESAXNotRecognizedException@xercesc_3_1@@UAEPAXI@Z 1202ac84 f i XSAnnotation.obj
 0001:00029c84       ??_ESAXNotSupportedException@xercesc_3_1@@UAEPAXI@Z 1202ac84 f i XSAnnotation.obj
 0001:00029cdb       ??0SAXNotSupportedException@xercesc_3_1@@QAE@ABVSAXException@1@@Z 1202acdb f i SAXException.obj
 0001:00029cdb       ??0SAXNotSupportedException@xercesc_3_1@@QAE@ABV01@@Z 1202acdb f i XSAnnotation.obj
 0001:00029cf6       ??4SAXNotSupportedException@xercesc_3_1@@QAEAAV01@ABV01@@Z 1202acf6 f i XSAnnotation.obj
 0001:00029cf6       ??4SAXNotRecognizedException@xercesc_3_1@@QAEAAV01@ABV01@@Z 1202acf6 f i XSAnnotation.obj
 0001:00029d0b       ??_FSAXNotSupportedException@xercesc_3_1@@QAEXXZ 1202ad0b f i XSAnnotation.obj
 0001:00029d17       ??0SAXNotRecognizedException@xercesc_3_1@@QAE@ABVSAXException@1@@Z 1202ad17 f i SAXException.obj
 0001:00029d17       ??0SAXNotRecognizedException@xercesc_3_1@@QAE@ABV01@@Z 1202ad17 f i XSAnnotation.obj
 0001:00029d32       ??_FSAXNotRecognizedException@xercesc_3_1@@QAEXXZ 1202ad32 f i XSAnnotation.obj
 0001:00029d3e       ?createXMLReader@XMLReaderFactory@xercesc_3_1@@SAPAVSAX2XMLReader@2@PB_W@Z 1202ad3e f i XSAnnotation.obj
 0001:00029d68       ??0DOMNode@xercesc_3_1@@IAE@XZ 1202ad68 f i XSAnnotation.obj
 0001:00029d71       ??0DOMNode@xercesc_3_1@@IAE@ABV01@@Z 1202ad71 f i XSAnnotation.obj
 0001:00029d7c       ??1DOMEntityReference@xercesc_3_1@@UAE@XZ 1202ad7c f i AbstractDOMParser.obj
 0001:00029d7c       ??1DOMCDATASection@xercesc_3_1@@UAE@XZ 1202ad7c f i AbstractDOMParser.obj
 0001:00029d7c       ??1DOMCommentImpl@xercesc_3_1@@UAE@XZ 1202ad7c f i DOMCommentImpl.obj
 0001:00029d7c       ??1DOMNotationImpl@xercesc_3_1@@UAE@XZ 1202ad7c f i DOMNotationImpl.obj
 0001:00029d7c       ??1DOMEntity@xercesc_3_1@@UAE@XZ 1202ad7c f i AbstractDOMParser.obj
 0001:00029d7c       ??1DOMComment@xercesc_3_1@@UAE@XZ 1202ad7c f i AbstractDOMParser.obj
 0001:00029d7c       ??1DOMCDATASectionImpl@xercesc_3_1@@UAE@XZ 1202ad7c f i DOMCDATASectionImpl.obj
 0001:00029d7c       ??1DOMProcessingInstructionImpl@xercesc_3_1@@UAE@XZ 1202ad7c f i DOMProcessingInstructionImpl.obj
 0001:00029d7c       ??1DOMText@xercesc_3_1@@UAE@XZ 1202ad7c f i AbstractDOMParser.obj
 0001:00029d7c       ??1DOMNotation@xercesc_3_1@@UAE@XZ 1202ad7c f i AbstractDOMParser.obj
 0001:00029d7c       ??1DOMProcessingInstruction@xercesc_3_1@@UAE@XZ 1202ad7c f i AbstractDOMParser.obj
 0001:00029d7c       ??1DOMDocumentType@xercesc_3_1@@UAE@XZ 1202ad7c f i XSAnnotation.obj
 0001:00029d7c       ??1DOMTextImpl@xercesc_3_1@@UAE@XZ 1202ad7c f i DOMTextImpl.obj
 0001:00029d7c       ??1DOMDocumentFragment@xercesc_3_1@@UAE@XZ 1202ad7c f i AbstractDOMParser.obj
 0001:00029d7c       ??1DOMCharacterData@xercesc_3_1@@UAE@XZ 1202ad7c f i AbstractDOMParser.obj
 0001:00029d7c       ??1DOMXPathNamespace@xercesc_3_1@@UAE@XZ 1202ad7c f i AbstractDOMParser.obj
 0001:00029d7c       ??1DOMAttr@xercesc_3_1@@UAE@XZ 1202ad7c f i IGXMLScanner2.obj
 0001:00029d7c       ??1DOMNode@xercesc_3_1@@UAE@XZ 1202ad7c f i XSAnnotation.obj
 0001:00029d7c       ??1DOMElement@xercesc_3_1@@UAE@XZ 1202ad7c f i XSAnnotation.obj
 0001:00029d83       ??_EDOMComment@xercesc_3_1@@UAEPAXI@Z 1202ad83 f i AbstractDOMParser.obj
 0001:00029d83       ??_EDOMCDATASection@xercesc_3_1@@UAEPAXI@Z 1202ad83 f i AbstractDOMParser.obj
 0001:00029d83       ??_EDOMXPathNamespace@xercesc_3_1@@UAEPAXI@Z 1202ad83 f i AbstractDOMParser.obj
 0001:00029d83       ??_EDOMText@xercesc_3_1@@UAEPAXI@Z 1202ad83 f i AbstractDOMParser.obj
 0001:00029d83       ??_EDOMDocumentFragment@xercesc_3_1@@UAEPAXI@Z 1202ad83 f i AbstractDOMParser.obj
 0001:00029d83       ??_EDOMDocumentType@xercesc_3_1@@UAEPAXI@Z 1202ad83 f i XSAnnotation.obj
 0001:00029d83       ??_EDOMNode@xercesc_3_1@@UAEPAXI@Z 1202ad83 f i XSAnnotation.obj
 0001:00029d83       ??_EDOMCharacterData@xercesc_3_1@@UAEPAXI@Z 1202ad83 f i AbstractDOMParser.obj
 0001:00029d83       ??_EDOMElement@xercesc_3_1@@UAEPAXI@Z 1202ad83 f i XSAnnotation.obj
 0001:00029d83       ??_EDOMAttr@xercesc_3_1@@UAEPAXI@Z 1202ad83 f i IGXMLScanner2.obj
 0001:00029d83       ??_EDOMEntityReference@xercesc_3_1@@UAEPAXI@Z 1202ad83 f i AbstractDOMParser.obj
 0001:00029d83       ??_EDOMNotation@xercesc_3_1@@UAEPAXI@Z 1202ad83 f i AbstractDOMParser.obj
 0001:00029d83       ??_EDOMProcessingInstruction@xercesc_3_1@@UAEPAXI@Z 1202ad83 f i AbstractDOMParser.obj
 0001:00029d83       ??_EDOMEntity@xercesc_3_1@@UAEPAXI@Z 1202ad83 f i AbstractDOMParser.obj
 0001:00029dd0       ??0DOMDocumentRange@xercesc_3_1@@IAE@XZ 1202add0 f i XSAnnotation.obj
 0001:00029dd9       ??1DOMDocumentRange@xercesc_3_1@@UAE@XZ 1202add9 f i XSAnnotation.obj
 0001:00029de0       ??_EDOMDocumentRange@xercesc_3_1@@UAEPAXI@Z 1202ade0 f i XSAnnotation.obj
 0001:00029e2d       ??0DOMNodeFilter@xercesc_3_1@@IAE@XZ 1202ae2d f i XSAnnotation.obj
 0001:00029e36       ??1DOMNodeFilter@xercesc_3_1@@UAE@XZ 1202ae36 f i XSAnnotation.obj
 0001:00029e36       ??1DOMLSSerializerFilter@xercesc_3_1@@UAE@XZ 1202ae36 f i AbstractDOMParser.obj
 0001:00029e3d       ??_EDOMLSSerializerFilter@xercesc_3_1@@UAEPAXI@Z 1202ae3d f i AbstractDOMParser.obj
 0001:00029e3d       ??_EDOMNodeFilter@xercesc_3_1@@UAEPAXI@Z 1202ae3d f i XSAnnotation.obj
 0001:00029e8a       ??0DOMDocumentTraversal@xercesc_3_1@@IAE@XZ 1202ae8a f i XSAnnotation.obj
 0001:00029e93       ??1DOMDocumentTraversal@xercesc_3_1@@UAE@XZ 1202ae93 f i XSAnnotation.obj
 0001:00029e9a       ??_EDOMDocumentTraversal@xercesc_3_1@@UAEPAXI@Z 1202ae9a f i XSAnnotation.obj
 0001:00029ee7       ??0DOMXPathResult@xercesc_3_1@@IAE@XZ 1202aee7 f i XSAnnotation.obj
 0001:00029ef0       ??1DOMXPathResult@xercesc_3_1@@UAE@XZ 1202aef0 f i XSAnnotation.obj
 0001:00029ef7       ??_EDOMXPathResult@xercesc_3_1@@UAEPAXI@Z 1202aef7 f i XSAnnotation.obj
 0001:00029f44       ??0DOMXPathEvaluator@xercesc_3_1@@IAE@XZ 1202af44 f i XSAnnotation.obj
 0001:00029f4d       ??1DOMXPathEvaluator@xercesc_3_1@@UAE@XZ 1202af4d f i XSAnnotation.obj
 0001:00029f54       ??_EDOMXPathEvaluator@xercesc_3_1@@UAEPAXI@Z 1202af54 f i XSAnnotation.obj
 0001:00029fa1       ??0DOMDocument@xercesc_3_1@@IAE@XZ 1202afa1 f i XSAnnotation.obj
 0001:00029fd4       ??1DOMDocument@xercesc_3_1@@UAE@XZ 1202afd4 f i XSAnnotation.obj
 0001:00029ff0       ?createDocumentType@DOMDocument@xercesc_3_1@@UAEPAVDOMDocumentType@2@PB_W00@Z 1202aff0 f i XSAnnotation.obj
 0001:0002a002       ??_EDOMDocument@xercesc_3_1@@UAEPAXI@Z 1202b002 f i XSAnnotation.obj
 0001:0002a064       ??1XMLDocumentHandler@xercesc_3_1@@UAE@XZ 1202b064 f i XSAnnotation.obj
 0001:0002a06b       ??0XMLDocumentHandler@xercesc_3_1@@IAE@XZ 1202b06b f i XSAnnotation.obj
 0001:0002a074       ??_EXMLDocumentHandler@xercesc_3_1@@UAEPAXI@Z 1202b074 f i XSAnnotation.obj
 0001:0002a0c1       ??1XMLEntityHandler@xercesc_3_1@@UAE@XZ 1202b0c1 f i XSAnnotation.obj
 0001:0002a0c8       ??0XMLEntityHandler@xercesc_3_1@@IAE@XZ 1202b0c8 f i XSAnnotation.obj
 0001:0002a0d1       ??_EXMLEntityHandler@xercesc_3_1@@UAEPAXI@Z 1202b0d1 f i XSAnnotation.obj
 0001:0002a11e       ??0DocTypeHandler@xercesc_3_1@@QAE@XZ 1202b11e f i XSAnnotation.obj
 0001:0002a127       ??1DocTypeHandler@xercesc_3_1@@UAE@XZ 1202b127 f i XSAnnotation.obj
 0001:0002a12e       ??_EDocTypeHandler@xercesc_3_1@@UAEPAXI@Z 1202b12e f i XSAnnotation.obj
 0001:0002a17b       ??0DOMDocumentType@xercesc_3_1@@IAE@XZ 1202b17b f i XSAnnotation.obj
 0001:0002a184       ??1PSVIHandler@xercesc_3_1@@UAE@XZ 1202b184 f i XSAnnotation.obj
 0001:0002a18b       ??0PSVIHandler@xercesc_3_1@@IAE@XZ 1202b18b f i XSAnnotation.obj
 0001:0002a194       ??_EPSVIHandler@xercesc_3_1@@UAEPAXI@Z 1202b194 f i XSAnnotation.obj
 0001:0002a1e1       ?handlePartialElementPSVI@PSVIHandler@xercesc_3_1@@UAEXQB_W0PAVPSVIElement@2@@Z 1202b1e1 f i XSAnnotation.obj
 0001:0002a1e1       ?notationDecl@HandlerBase@xercesc_3_1@@UAEXQB_W00@Z 1202b1e1 f i Dummy.obj
 0001:0002a1e1       ?matched@XPathMatcher@xercesc_3_1@@MAEXQB_WQAVDatatypeValidator@2@_N@Z 1202b1e1 f i XPathMatcher.obj
 0001:0002a1e1       ?validate@AnySimpleTypeDatatypeValidator@xercesc_3_1@@UAEXQB_WQAVValidationContext@2@QAVMemoryManager@2@@Z 1202b1e1 f i AnySimpleTypeDatatypeValidator.obj
 0001:0002a1e1       ?externalEntityDecl@DefaultHandler@xercesc_3_1@@UAEXQB_W00@Z 1202b1e1 f i sax2Dummy.obj
 0001:0002a1e1       ?endElement@DefaultHandler@xercesc_3_1@@UAEXQB_W00@Z 1202b1e1 f i sax2Dummy.obj
 0001:0002a1e1       ?notationDecl@DefaultHandler@xercesc_3_1@@UAEXQB_W00@Z 1202b1e1 f i sax2Dummy.obj
 0001:0002a1e1       ?attDef@SAXParser@xercesc_3_1@@UAEXABVDTDElementDecl@2@ABVDTDAttDef@2@_N@Z 1202b1e1 f i SAXParser.obj
 0001:0002a1e1       ?startDTD@DefaultHandler@xercesc_3_1@@UAEXQB_W00@Z 1202b1e1 f i sax2Dummy.obj
 0001:0002a1e4       ??_FAbstractDOMParser@xercesc_3_1@@QAEXXZ 1202b1e4 f i XSAnnotation.obj
 0001:0002a1f4       ?getMostRecentAttrValidator@SchemaValidator@xercesc_3_1@@QBEPAVDatatypeValidator@2@XZ 1202b1f4 f i IGXMLScanner.obj
 0001:0002a1f4       ?getErrorHandler@SAX2XMLReaderImpl@xercesc_3_1@@UBEPAVErrorHandler@2@XZ 1202b1f4 f i SAX2XMLReaderImpl.obj
 0001:0002a1f4       ?getPSVIHandler@AbstractDOMParser@xercesc_3_1@@QAEPAVPSVIHandler@2@XZ 1202b1f4 f i XSAnnotation.obj
 0001:0002a1f4       ?getTotalDigits@DecimalDatatypeValidator@xercesc_3_1@@QBEIXZ 1202b1f4 f i DatatypeValidator.obj
 0001:0002a1f4       ?getPSVIHandler@AbstractDOMParser@xercesc_3_1@@QBEPBVPSVIHandler@2@XZ 1202b1f4 f i XSAnnotation.obj
 0001:0002a1f8       ?setIncludeIgnorableWhitespace@AbstractDOMParser@xercesc_3_1@@QAEX_N@Z 1202b1f8 f i XSAnnotation.obj
 0001:0002a205       ?useImplementation@AbstractDOMParser@xercesc_3_1@@QAEXQB_W@Z 1202b205 f i XSAnnotation.obj
 0001:0002a22b       ??_FXercesDOMParser@xercesc_3_1@@QAEXXZ 1202b22b f i XSAnnotation.obj
 0001:0002a23b       ?expandSystemId@XercesDOMParser@xercesc_3_1@@UAE_NQB_WAAVXMLBuffer@2@@Z 1202b23b f i XSAnnotation.obj
 0001:0002a23b       ?expandSystemId@SAXParser@xercesc_3_1@@UAE_NQB_WAAVXMLBuffer@2@@Z 1202b23b f i SAXParser.obj
 0001:0002a23b       ?expandSystemId@DOMLSParserImpl@xercesc_3_1@@UAE_NQB_WAAVXMLBuffer@2@@Z 1202b23b f i DOMLSParserImpl.obj
 0001:0002a23b       ?customNodeSerialize@DOMLSSerializerImpl@xercesc_3_1@@MAE_NQBVDOMNode@2@H@Z 1202b23b f i DOMLSSerializerImpl.obj
 0001:0002a23b       ?expandSystemId@SAX2XMLReaderImpl@xercesc_3_1@@UAE_NQB_WAAVXMLBuffer@2@@Z 1202b23b f i SAX2XMLReaderImpl.obj
 0001:0002a23b       ?setContentNegotiation@XIncludeUtils@xercesc_3_1@@AAE_NPB_W0@Z 1202b23b f i XIncludeUtils.obj
 0001:0002a240       ??0DOMElement@xercesc_3_1@@IAE@XZ 1202b240 f i XSAnnotation.obj
 0001:0002a249       ??0DOMElement@xercesc_3_1@@IAE@ABV01@@Z 1202b249 f i XSAnnotation.obj
 0001:0002a254       ??0XSAnnotation@xercesc_3_1@@QAE@QB_WQAVMemoryManager@1@@Z 1202b254 f   XSAnnotation.obj
 0001:0002a2bf       ??0XSAnnotation@xercesc_3_1@@QAE@QAVMemoryManager@1@@Z 1202b2bf f   XSAnnotation.obj
 0001:0002a313       ??1XSAnnotation@xercesc_3_1@@UAE@XZ 1202b313 f   XSAnnotation.obj
 0001:0002a36e       ?writeAnnotation@XSAnnotation@xercesc_3_1@@QAEXPAVDOMNode@2@W4ANNOTATION_TARGET@12@@Z 1202b36e f   XSAnnotation.obj
 0001:0002a4b8       ?writeAnnotation@XSAnnotation@xercesc_3_1@@QAEXPAVContentHandler@2@@Z 1202b4b8 f   XSAnnotation.obj
 0001:0002a596       ?setNext@XSAnnotation@xercesc_3_1@@QAEXQAV12@@Z 1202b596 f   XSAnnotation.obj
 0001:0002a5af       ?setSystemId@XSAnnotation@xercesc_3_1@@QAEXQB_W@Z 1202b5af f   XSAnnotation.obj
 0001:0002a5e5       ?createObject@XSAnnotation@xercesc_3_1@@SAPAVXSerializable@2@PAVMemoryManager@2@@Z 1202b5e5 f   XSAnnotation.obj
 0001:0002a619       ?getProtoType@XSAnnotation@xercesc_3_1@@UBEPAVXProtoType@2@XZ 1202b619 f   XSAnnotation.obj
 0001:0002a61f       ?serialize@XSAnnotation@xercesc_3_1@@UAEXAAVXSerializeEngine@2@@Z 1202b61f f   XSAnnotation.obj
 0001:0002a6cc       ??_EDOMDocument@xercesc_3_1@@W3AEPAXI@Z 1202b6cc f i XSAnnotation.obj
 0001:0002a6d4       ??_EDOMDocument@xercesc_3_1@@W7AEPAXI@Z 1202b6d4 f i XSAnnotation.obj
 0001:0002a6dc       ??_EDOMDocument@xercesc_3_1@@WM@AEPAXI@Z 1202b6dc f i XSAnnotation.obj
 0001:0002a6e4       ??_EXSAnnotation@xercesc_3_1@@W3AEPAXI@Z 1202b6e4 f i XSAnnotation.obj
 0001:0002a6ec       ??_EXSAttributeDeclaration@xercesc_3_1@@UAEPAXI@Z 1202b6ec f i XSAttributeDeclaration.obj
 0001:0002a738       ?getAnnotations@XSModel@xercesc_3_1@@QAEPAV?$RefVectorOf@VXSAnnotation@xercesc_3_1@@@2@XZ 1202b738 f i XSModel.obj
 0001:0002a738       ?getSchemaNamespace@XSNamespaceItem@xercesc_3_1@@QBEPB_WXZ 1202b738 f i XSAttributeDeclaration.obj
 0001:0002a738       ?getDoctype@DOMDocumentImpl@xercesc_3_1@@UBEPAVDOMDocumentType@2@XZ 1202b738 f i DOMDocumentImpl.obj
 0001:0002a73f       ??0XSAttributeDeclaration@xercesc_3_1@@QAE@QAVSchemaAttDef@1@QAVXSSimpleTypeDefinition@1@QAVXSAnnotation@1@QAVXSModel@1@W4SCOPE@XSConstants@1@PAVXSComplexTypeDefinition@1@QAVMemoryManager@1@@Z 1202b73f f   XSAttributeDeclaration.obj
 0001:0002a77d       ??1XSAttributeDeclaration@xercesc_3_1@@UAE@XZ 1202b77d f   XSAttributeDeclaration.obj
 0001:0002a77d       ??1XSAttributeUse@xercesc_3_1@@UAE@XZ 1202b77d f   XSAttributeUse.obj
 0001:0002a77d       ??1XSObject@xercesc_3_1@@UAE@XZ 1202b77d f   XSObject.obj
 0001:0002a77d       ??1XSFacet@xercesc_3_1@@UAE@XZ 1202b77d f   XSFacet.obj
 0001:0002a77d       ??1XSNotationDeclaration@xercesc_3_1@@UAE@XZ 1202b77d f   XSNotationDeclaration.obj
 0001:0002a77d       ??1XSTypeDefinition@xercesc_3_1@@UAE@XZ 1202b77d f   XSTypeDefinition.obj
 0001:0002a784       ?getName@XSAttributeDeclaration@xercesc_3_1@@UBEPB_WXZ 1202b784 f   XSAttributeDeclaration.obj
 0001:0002a78e       ?getNamespace@XSAttributeDeclaration@xercesc_3_1@@UAEPB_WXZ 1202b78e f   XSAttributeDeclaration.obj
 0001:0002a7a7       ?getNamespaceItem@XSModelGroupDefinition@xercesc_3_1@@UAEPAVXSNamespaceItem@2@XZ 1202b7a7 f   XSModelGroupDefinition.obj
 0001:0002a7a7       ?getNamespaceItem@XSIDCDefinition@xercesc_3_1@@UAEPAVXSNamespaceItem@2@XZ 1202b7a7 f   XSIDCDefinition.obj
 0001:0002a7a7       ?getNamespaceItem@XSAttributeDeclaration@xercesc_3_1@@UAEPAVXSNamespaceItem@2@XZ 1202b7a7 f   XSAttributeDeclaration.obj
 0001:0002a7a7       ?getNamespaceItem@XSSimpleTypeDefinition@xercesc_3_1@@UAEPAVXSNamespaceItem@2@XZ 1202b7a7 f   XSSimpleTypeDefinition.obj
 0001:0002a7a7       ?getNamespaceItem@XSElementDeclaration@xercesc_3_1@@UAEPAVXSNamespaceItem@2@XZ 1202b7a7 f   XSElementDeclaration.obj
 0001:0002a7a7       ?getNamespaceItem@XSComplexTypeDefinition@xercesc_3_1@@UAEPAVXSNamespaceItem@2@XZ 1202b7a7 f   XSComplexTypeDefinition.obj
 0001:0002a7a7       ?getNamespaceItem@XSAttributeGroupDefinition@xercesc_3_1@@UAEPAVXSNamespaceItem@2@XZ 1202b7a7 f   XSAttributeGroupDefinition.obj
 0001:0002a7a7       ?getNamespaceItem@XSNotationDeclaration@xercesc_3_1@@UAEPAVXSNamespaceItem@2@XZ 1202b7a7 f   XSNotationDeclaration.obj
 0001:0002a7ba       ?getConstraintType@XSAttributeDeclaration@xercesc_3_1@@QBE?AW4VALUE_CONSTRAINT@XSConstants@2@XZ 1202b7ba f   XSAttributeDeclaration.obj
 0001:0002a7df       ?getConstraintValue@XSAttributeDeclaration@xercesc_3_1@@QAEPB_WXZ 1202b7df f   XSAttributeDeclaration.obj
 0001:0002a7ef       ?getRequired@XSAttributeDeclaration@xercesc_3_1@@QBE_NXZ 1202b7ef f   XSAttributeDeclaration.obj
 0001:0002a804       ??_EXSAttributeGroupDefinition@xercesc_3_1@@UAEPAXI@Z 1202b804 f i XSAttributeGroupDefinition.obj
 0001:0002a84f       ??0XSAttributeGroupDefinition@xercesc_3_1@@QAE@QAVXercesAttGroupInfo@1@QAV?$RefVectorOf@VXSAttributeUse@xercesc_3_1@@@1@QAVXSWildcard@1@QAVXSAnnotation@1@QAVXSModel@1@QAVMemoryManager@1@@Z 1202b84f f   XSAttributeGroupDefinition.obj
 0001:0002a887       ??1XSAttributeGroupDefinition@xercesc_3_1@@UAE@XZ 1202b887 f   XSAttributeGroupDefinition.obj
 0001:0002a8bb       ?getName@XSAttributeGroupDefinition@xercesc_3_1@@UBEPB_WXZ 1202b8bb f   XSAttributeGroupDefinition.obj
 0001:0002a8bb       ?getNamespace@XSNotationDeclaration@xercesc_3_1@@UAEPB_WXZ 1202b8bb f   XSNotationDeclaration.obj
 0001:0002a8d1       ?getName@XSModelGroupDefinition@xercesc_3_1@@UBEPB_WXZ 1202b8d1 f   XSModelGroupDefinition.obj
 0001:0002a8d1       ?getNamespace@XSAttributeGroupDefinition@xercesc_3_1@@UAEPB_WXZ 1202b8d1 f   XSAttributeGroupDefinition.obj
 0001:0002a8e7       ??_EXSFacet@xercesc_3_1@@UAEPAXI@Z 1202b8e7 f i XSFacet.obj
 0001:0002a8e7       ??_EXSAttributeUse@xercesc_3_1@@UAEPAXI@Z 1202b8e7 f i XSAttributeUse.obj
 0001:0002a933       ??0XSAttributeUse@xercesc_3_1@@QAE@QAVXSAttributeDeclaration@1@QAVXSModel@1@QAVMemoryManager@1@@Z 1202b933 f   XSAttributeUse.obj
 0001:0002a964       ?set@XSAttributeUse@xercesc_3_1@@AAEX_NW4VALUE_CONSTRAINT@XSConstants@2@QB_W@Z 1202b964 f   XSAttributeUse.obj
 0001:0002a97d       ??_EXSComplexTypeDefinition@xercesc_3_1@@UAEPAXI@Z 1202b97d f i XSComplexTypeDefinition.obj
 0001:0002a9c8       ??_FSchemaAttDefList@xercesc_3_1@@QAEXXZ 1202b9c8 f i XSComplexTypeDefinition.obj
 0001:0002a9d4       ?addAttDef@SchemaAttDefList@xercesc_3_1@@AAEXPAVSchemaAttDef@2@@Z 1202b9d4 f i XSComplexTypeDefinition.obj
 0001:0002a9d4       ?addAttDef@DTDAttDefList@xercesc_3_1@@AAEXPAVDTDAttDef@2@@Z 1202b9d4 f i DTDAttDefList.obj
 0001:0002aa2d       ?findAttDefLocalPart@SchemaAttDefList@xercesc_3_1@@QAEPAVXMLAttDef@2@IQB_W@Z 1202ba2d f i XSComplexTypeDefinition.obj
 0001:0002aa2d       ?findAttDefLocalPart@SchemaAttDefList@xercesc_3_1@@QBEPBVXMLAttDef@2@IQB_W@Z 1202ba2d f i XSComplexTypeDefinition.obj
 0001:0002aa42       ??0XSComplexTypeDefinition@xercesc_3_1@@QAE@QAVComplexTypeInfo@1@QAVXSWildcard@1@QAVXSSimpleTypeDefinition@1@QAV?$RefVectorOf@VXSAttributeUse@xercesc_3_1@@@1@QAVXSTypeDefinition@1@QAVXSParticle@1@QAVXSAnnotation@1@QAVXSModel@1@QAVMemoryManager@1@@Z 1202ba42 f   XSComplexTypeDefinition.obj
 0001:0002ab17       ??1XSComplexTypeDefinition@xercesc_3_1@@UAE@XZ 1202bb17 f   XSComplexTypeDefinition.obj
 0001:0002ab65       ?getDerivationMethod@XSComplexTypeDefinition@xercesc_3_1@@QBE?AW4DERIVATION_TYPE@XSConstants@2@XZ 1202bb65 f   XSComplexTypeDefinition.obj
 0001:0002ab73       ?getAbstract@XSComplexTypeDefinition@xercesc_3_1@@QBE_NXZ 1202bb73 f   XSComplexTypeDefinition.obj
 0001:0002ab7a       ?getContentType@XSComplexTypeDefinition@xercesc_3_1@@QBE?AW4CONTENT_TYPE@12@XZ 1202bb7a f   XSComplexTypeDefinition.obj
 0001:0002ab9f       ?isProhibitedSubstitution@XSComplexTypeDefinition@xercesc_3_1@@QAE_NW4DERIVATION_TYPE@XSConstants@2@@Z 1202bb9f f   XSComplexTypeDefinition.obj
 0001:0002abb0       ?getName@XSComplexTypeDefinition@xercesc_3_1@@UBEPB_WXZ 1202bbb0 f   XSComplexTypeDefinition.obj
 0001:0002abb7       ?getNamespace@XSComplexTypeDefinition@xercesc_3_1@@UAEPB_WXZ 1202bbb7 f   XSComplexTypeDefinition.obj
 0001:0002abbe       ?getAnonymous@XSComplexTypeDefinition@xercesc_3_1@@UBE_NXZ 1202bbbe f   XSComplexTypeDefinition.obj
 0001:0002abc5       ?derivedFromType@XSComplexTypeDefinition@xercesc_3_1@@UAE_NQBVXSTypeDefinition@2@@Z 1202bbc5 f   XSComplexTypeDefinition.obj
 0001:0002ac10       ??1?$BaseRefVectorOf@VXSAnnotation@xercesc_3_1@@@xercesc_3_1@@UAE@XZ 1202bc10 f i XSComplexTypeDefinition.obj
 0001:0002ac17       ??0?$RefVectorOf@VXSAnnotation@xercesc_3_1@@@xercesc_3_1@@QAE@K_NQAVMemoryManager@1@@Z 1202bc17 f i XSComplexTypeDefinition.obj
 0001:0002ac6a       ??_G?$BaseRefVectorOf@VXSAnnotation@xercesc_3_1@@@xercesc_3_1@@UAEPAXI@Z 1202bc6a f i XSComplexTypeDefinition.obj
 0001:0002ac6a       ??_E?$BaseRefVectorOf@VXSAnnotation@xercesc_3_1@@@xercesc_3_1@@UAEPAXI@Z 1202bc6a f i * CIL library *:* CIL module *
 0001:0002ac8a       ??_E?$RefVectorOf@VXSAnnotation@xercesc_3_1@@@xercesc_3_1@@UAEPAXI@Z 1202bc8a f i * CIL library *:* CIL module *
 0001:0002ac8a       ??_G?$RefVectorOf@VXSAnnotation@xercesc_3_1@@@xercesc_3_1@@UAEPAXI@Z 1202bc8a f i XSComplexTypeDefinition.obj
 0001:0002acf3       ??_EXSElementDeclaration@xercesc_3_1@@UAEPAXI@Z 1202bcf3 f i XSElementDeclaration.obj
 0001:0002ad3e       ??0XSElementDeclaration@xercesc_3_1@@QAE@QAVSchemaElementDecl@1@QAVXSTypeDefinition@1@QAV01@QAVXSAnnotation@1@QAV?$XSNamedMap@VXSIDCDefinition@xercesc_3_1@@@1@QAVXSModel@1@W4SCOPE@XSConstants@1@QAVXSComplexTypeDefinition@1@QAVMemoryManager@1@@Z 1202bd3e f   XSElementDeclaration.obj
 0001:0002adcb       ??1XSElementDeclaration@xercesc_3_1@@UAE@XZ 1202bdcb f   XSElementDeclaration.obj
 0001:0002ae1a       ?getName@XSElementDeclaration@xercesc_3_1@@UBEPB_WXZ 1202be1a f   XSElementDeclaration.obj
 0001:0002ae24       ?getNamespace@XSElementDeclaration@xercesc_3_1@@UAEPB_WXZ 1202be24 f   XSElementDeclaration.obj
 0001:0002ae3d       ?getConstraintType@XSElementDeclaration@xercesc_3_1@@QBE?AW4VALUE_CONSTRAINT@XSConstants@2@XZ 1202be3d f   XSElementDeclaration.obj
 0001:0002ae53       ?getConstraintValue@XSElementDeclaration@xercesc_3_1@@QAEPB_WXZ 1202be53 f   XSElementDeclaration.obj
 0001:0002ae5a       ?getNillable@XSElementDeclaration@xercesc_3_1@@QBE_NXZ 1202be5a f   XSElementDeclaration.obj
 0001:0002ae63       ?isSubstitutionGroupExclusion@XSElementDeclaration@xercesc_3_1@@QAE_NW4DERIVATION_TYPE@XSConstants@2@@Z 1202be63 f   XSElementDeclaration.obj
 0001:0002ae74       ?isDisallowedSubstitution@XSElementDeclaration@xercesc_3_1@@QAE_NW4DERIVATION_TYPE@XSConstants@2@@Z 1202be74 f   XSElementDeclaration.obj
 0001:0002ae85       ?getAbstract@XSElementDeclaration@xercesc_3_1@@QBE_NXZ 1202be85 f   XSElementDeclaration.obj
 0001:0002ae90       ??0XSFacet@xercesc_3_1@@QAE@W4FACET@XSSimpleTypeDefinition@1@QB_W_NQAVXSAnnotation@1@QAVXSModel@1@QAVMemoryManager@1@@Z 1202be90 f   XSFacet.obj
 0001:0002aec8       ??_EXSIDCDefinition@xercesc_3_1@@UAEPAXI@Z 1202bec8 f i XSIDCDefinition.obj
 0001:0002af13       ??_FIC_KeyRef@xercesc_3_1@@QAEXXZ 1202bf13 f i XSIDCDefinition.obj
 0001:0002af1f       ??_FIC_Selector@xercesc_3_1@@QAEXXZ 1202bf1f f i XSIDCDefinition.obj
 0001:0002af2e       ??_ESelectorMatcher@xercesc_3_1@@UAEPAXI@Z 1202bf2e f i XSIDCDefinition.obj
 0001:0002af7f       ??0XSIDCDefinition@xercesc_3_1@@QAE@QAVIdentityConstraint@1@QAV01@QAVXSAnnotation@1@QAV?$RefArrayVectorOf@_W@1@QAVXSModel@1@QAVMemoryManager@1@@Z 1202bf7f f   XSIDCDefinition.obj
 0001:0002b00d       ??1XSIDCDefinition@xercesc_3_1@@UAE@XZ 1202c00d f   XSIDCDefinition.obj
 0001:0002b04e       ?getLength@DOMCDATASectionImpl@xercesc_3_1@@UBEKXZ 1202c04e f   DOMCDATASectionImpl.obj
 0001:0002b04e       ?getLength@DOMTextImpl@xercesc_3_1@@UBEKXZ 1202c04e f   DOMTextImpl.obj
 0001:0002b04e       ?getName@XSIDCDefinition@xercesc_3_1@@UBEPB_WXZ 1202c04e f   XSIDCDefinition.obj
 0001:0002b04e       ?getLength@DOMCommentImpl@xercesc_3_1@@UBEKXZ 1202c04e f   DOMCommentImpl.obj
 0001:0002b055       ?getNamespace@XSIDCDefinition@xercesc_3_1@@UAEPB_WXZ 1202c055 f   XSIDCDefinition.obj
 0001:0002b06b       ?getCategory@XSIDCDefinition@xercesc_3_1@@QBE?AW4IC_CATEGORY@12@XZ 1202c06b f   XSIDCDefinition.obj
 0001:0002b08b       ?getSelectorStr@XSIDCDefinition@xercesc_3_1@@QAEPB_WXZ 1202c08b f   XSIDCDefinition.obj
 0001:0002b098       ??_FXSObjectFactory@xercesc_3_1@@QAEXXZ 1202c098 f i XSModel.obj
 0001:0002b0a4       ?getObjectFromMap@XSObjectFactory@xercesc_3_1@@AAEPAVXSObject@2@PAX@Z 1202c0a4 f i XSModel.obj
 0001:0002b0da       ??0XSModel@xercesc_3_1@@QAE@PAVXMLGrammarPool@1@QAVMemoryManager@1@@Z 1202c0da f   XSModel.obj
 0001:0002b467       ??0XSModel@xercesc_3_1@@QAE@PAV01@PAVGrammarResolver@1@QAVMemoryManager@1@@Z 1202c467 f   XSModel.obj
 0001:0002ba65       ??1XSModel@xercesc_3_1@@QAE@XZ 1202ca65 f   XSModel.obj
 0001:0002bb56       ??_G?$XSNamedMap@VXSObject@xercesc_3_1@@@xercesc_3_1@@QAEPAXI@Z 1202cb56 f i XSModel.obj
 0001:0002bb80       ?addComponentToIdVector@XSModel@xercesc_3_1@@AAEXQAVXSObject@2@K@Z 1202cb80 f   XSModel.obj
 0001:0002bba5       ?addComponentToNamespace@XSModel@xercesc_3_1@@AAEXQAVXSNamespaceItem@2@QAVXSObject@2@K_N@Z 1202cba5 f   XSModel.obj
 0001:0002bc0c       ?addS4SToXSModel@XSModel@xercesc_3_1@@AAEXQAVXSNamespaceItem@2@QAV?$RefHashTableOf@VDatatypeValidator@xercesc_3_1@@UStringHasher@2@@2@@Z 1202cc0c f   XSModel.obj
 0001:0002bd14       ?addGrammarToXSModel@XSModel@xercesc_3_1@@AAEXPAVXSNamespaceItem@2@@Z 1202cd14 f   XSModel.obj
 0001:0002c00c       ?getComponents@XSModel@xercesc_3_1@@QAEPAV?$XSNamedMap@VXSObject@xercesc_3_1@@@2@W4COMPONENT_TYPE@XSConstants@2@@Z 1202d00c f   XSModel.obj
 0001:0002c01a       ?getComponentsByNamespace@XSModel@xercesc_3_1@@QAEPAV?$XSNamedMap@VXSObject@xercesc_3_1@@@2@W4COMPONENT_TYPE@XSConstants@2@PB_W@Z 1202d01a f   XSModel.obj
 0001:0002c047       ?getElementDeclaration@XSModel@xercesc_3_1@@QAEPAVXSElementDeclaration@2@PB_W0@Z 1202d047 f   XSModel.obj
 0001:0002c075       ?getAttributeDeclaration@XSModel@xercesc_3_1@@QAEPAVXSAttributeDeclaration@2@PB_W0@Z 1202d075 f   XSModel.obj
 0001:0002c0a3       ?getTypeDefinition@XSModel@xercesc_3_1@@QAEPAVXSTypeDefinition@2@PB_W0@Z 1202d0a3 f   XSModel.obj
 0001:0002c0d1       ?getAttributeGroup@XSModel@xercesc_3_1@@QAEPAVXSAttributeGroupDefinition@2@PB_W0@Z 1202d0d1 f   XSModel.obj
 0001:0002c0ff       ?getModelGroupDefinition@XSModel@xercesc_3_1@@QAEPAVXSModelGroupDefinition@2@PB_W0@Z 1202d0ff f   XSModel.obj
 0001:0002c12d       ?getNotationDeclaration@XSModel@xercesc_3_1@@QAEPAVXSNotationDeclaration@2@PB_W0@Z 1202d12d f   XSModel.obj
 0001:0002c15b       ?getXSObjectById@XSModel@xercesc_3_1@@QAEPAVXSObject@2@KW4COMPONENT_TYPE@XSConstants@2@@Z 1202d15b f   XSModel.obj
 0001:0002c17b       ?getNamespaceItem@XSModel@xercesc_3_1@@QAEPAVXSNamespaceItem@2@QB_W@Z 1202d17b f   XSModel.obj
 0001:0002c1b3       ?getXSObject@XSModel@xercesc_3_1@@QAEPAVXSObject@2@PAX@Z 1202d1b3 f   XSModel.obj
 0001:0002c1e1       ??1?$XMLEnumerator@VDatatypeValidator@xercesc_3_1@@@xercesc_3_1@@UAE@XZ 1202d1e1 f i XSModel.obj
 0001:0002c1e8       ??1?$XMLEnumerator@VXMLAttDef@xercesc_3_1@@@xercesc_3_1@@UAE@XZ 1202d1e8 f i XSModel.obj
 0001:0002c1ef       ??1?$XMLEnumerator@VComplexTypeInfo@xercesc_3_1@@@xercesc_3_1@@UAE@XZ 1202d1ef f i XSModel.obj
 0001:0002c1f6       ??1?$XMLEnumerator@VXercesAttGroupInfo@xercesc_3_1@@@xercesc_3_1@@UAE@XZ 1202d1f6 f i XSModel.obj
 0001:0002c1fd       ??1?$XMLEnumerator@VXercesGroupInfo@xercesc_3_1@@@xercesc_3_1@@UAE@XZ 1202d1fd f i XSModel.obj
 0001:0002c204       ??_G?$XMLEnumerator@VDatatypeValidator@xercesc_3_1@@@xercesc_3_1@@UAEPAXI@Z 1202d204 f i XSModel.obj
 0001:0002c204       ??_E?$XMLEnumerator@VDatatypeValidator@xercesc_3_1@@@xercesc_3_1@@UAEPAXI@Z 1202d204 f i * CIL library *:* CIL module *
 0001:0002c225       ??_E?$XMLEnumerator@VXMLAttDef@xercesc_3_1@@@xercesc_3_1@@UAEPAXI@Z 1202d225 f i * CIL library *:* CIL module *
 0001:0002c225       ??_G?$XMLEnumerator@VXMLAttDef@xercesc_3_1@@@xercesc_3_1@@UAEPAXI@Z 1202d225 f i XSModel.obj
 0001:0002c246       ??_G?$XMLEnumerator@VComplexTypeInfo@xercesc_3_1@@@xercesc_3_1@@UAEPAXI@Z 1202d246 f i XSModel.obj
 0001:0002c246       ??_E?$XMLEnumerator@VComplexTypeInfo@xercesc_3_1@@@xercesc_3_1@@UAEPAXI@Z 1202d246 f i * CIL library *:* CIL module *
 0001:0002c267       ??_E?$XMLEnumerator@VXercesAttGroupInfo@xercesc_3_1@@@xercesc_3_1@@UAEPAXI@Z 1202d267 f i * CIL library *:* CIL module *
 0001:0002c267       ??_G?$XMLEnumerator@VXercesAttGroupInfo@xercesc_3_1@@@xercesc_3_1@@UAEPAXI@Z 1202d267 f i XSModel.obj
 0001:0002c288       ??_G?$XMLEnumerator@VXercesGroupInfo@xercesc_3_1@@@xercesc_3_1@@UAEPAXI@Z 1202d288 f i XSModel.obj
 0001:0002c288       ??_E?$XMLEnumerator@VXercesGroupInfo@xercesc_3_1@@@xercesc_3_1@@UAEPAXI@Z 1202d288 f i * CIL library *:* CIL module *
 0001:0002c2a9       ??0?$XSNamedMap@VXSObject@xercesc_3_1@@@xercesc_3_1@@QAE@KKPAVXMLStringPool@1@_NQAVMemoryManager@1@@Z 1202d2a9 f i XSModel.obj
 0001:0002c34c       ?addElement@?$XSNamedMap@VXSObject@xercesc_3_1@@@xercesc_3_1@@QAEXQAVXSObject@2@PB_W1@Z 1202d34c f i XSModel.obj
 0001:0002c37c       ??1?$BaseRefVectorOf@VXSObject@xercesc_3_1@@@xercesc_3_1@@UAE@XZ 1202d37c f i XSModel.obj
 0001:0002c383       ??0?$RefVectorOf@VXSObject@xercesc_3_1@@@xercesc_3_1@@QAE@K_NQAVMemoryManager@1@@Z 1202d383 f i XSModel.obj
 0001:0002c3d8       ??1?$BaseRefVectorOf@VXSNamespaceItem@xercesc_3_1@@@xercesc_3_1@@UAE@XZ 1202d3d8 f i XSModel.obj
 0001:0002c3df       ?setElementAt@?$BaseRefVectorOf@VXSNamespaceItem@xercesc_3_1@@@xercesc_3_1@@UAEXQAVXSNamespaceItem@2@K@Z 1202d3df f i XSModel.obj
 0001:0002c447       ?removeAllElements@?$BaseRefVectorOf@VXSNamespaceItem@xercesc_3_1@@@xercesc_3_1@@UAEXXZ 1202d447 f i XSModel.obj
 0001:0002c486       ?removeElementAt@?$BaseRefVectorOf@VXSNamespaceItem@xercesc_3_1@@@xercesc_3_1@@UAEXK@Z 1202d486 f i XSModel.obj
 0001:0002c51c       ?removeLastElement@?$BaseRefVectorOf@VXSNamespaceItem@xercesc_3_1@@@xercesc_3_1@@UAEXXZ 1202d51c f i XSModel.obj
 0001:0002c54a       ?cleanup@?$BaseRefVectorOf@VXSNamespaceItem@xercesc_3_1@@@xercesc_3_1@@UAEXXZ 1202d54a f i XSModel.obj
 0001:0002c589       ??0?$RefVectorOf@VXSNamespaceItem@xercesc_3_1@@@xercesc_3_1@@QAE@K_NQAVMemoryManager@1@@Z 1202d589 f i XSModel.obj
 0001:0002c5d8       ??0?$RefHashTableOf@VXSNamespaceItem@xercesc_3_1@@UStringHasher@2@@xercesc_3_1@@QAE@K_NQAVMemoryManager@1@@Z 1202d5d8 f i XSModel.obj
 0001:0002c61f       ?put@?$RefHashTableOf@VXSNamespaceItem@xercesc_3_1@@UStringHasher@2@@xercesc_3_1@@QAEXPAXQAVXSNamespaceItem@2@@Z 1202d61f f i XSModel.obj
 0001:0002c6ae       ?put@?$RefHashTableOf@VXSObject@xercesc_3_1@@UStringHasher@2@@xercesc_3_1@@QAEXPAXQAVXSObject@2@@Z 1202d6ae f i XSModel.obj
 0001:0002c735       ??0?$RefHashTableOfEnumerator@VDatatypeValidator@xercesc_3_1@@UStringHasher@2@@xercesc_3_1@@QAE@QAV?$RefHashTableOf@VDatatypeValidator@xercesc_3_1@@UStringHasher@2@@1@_NQAVMemoryManager@1@@Z 1202d735 f i XSModel.obj
 0001:0002c7a0       ??1?$RefHashTableOfEnumerator@VDatatypeValidator@xercesc_3_1@@UStringHasher@2@@xercesc_3_1@@UAE@XZ 1202d7a0 f i XSModel.obj
 0001:0002c7da       ??0?$RefHashTableOfEnumerator@VXMLAttDef@xercesc_3_1@@UStringHasher@2@@xercesc_3_1@@QAE@QAV?$RefHashTableOf@VXMLAttDef@xercesc_3_1@@UStringHasher@2@@1@_NQAVMemoryManager@1@@Z 1202d7da f i XSModel.obj
 0001:0002c845       ??1?$RefHashTableOfEnumerator@VXMLAttDef@xercesc_3_1@@UStringHasher@2@@xercesc_3_1@@UAE@XZ 1202d845 f i XSModel.obj
 0001:0002c87f       ??0?$RefHashTableOfEnumerator@VComplexTypeInfo@xercesc_3_1@@UStringHasher@2@@xercesc_3_1@@QAE@QAV?$RefHashTableOf@VComplexTypeInfo@xercesc_3_1@@UStringHasher@2@@1@_NQAVMemoryManager@1@@Z 1202d87f f i XSModel.obj
 0001:0002c8ea       ??1?$RefHashTableOfEnumerator@VComplexTypeInfo@xercesc_3_1@@UStringHasher@2@@xercesc_3_1@@UAE@XZ 1202d8ea f i XSModel.obj
 0001:0002c924       ??0?$RefHashTableOfEnumerator@VXercesAttGroupInfo@xercesc_3_1@@UStringHasher@2@@xercesc_3_1@@QAE@QAV?$RefHashTableOf@VXercesAttGroupInfo@xercesc_3_1@@UStringHasher@2@@1@_NQAVMemoryManager@1@@Z 1202d924 f i XSModel.obj
 0001:0002c98f       ??1?$RefHashTableOfEnumerator@VXercesAttGroupInfo@xercesc_3_1@@UStringHasher@2@@xercesc_3_1@@UAE@XZ 1202d98f f i XSModel.obj
 0001:0002c9c9       ??0?$RefHashTableOfEnumerator@VXercesGroupInfo@xercesc_3_1@@UStringHasher@2@@xercesc_3_1@@QAE@QAV?$RefHashTableOf@VXercesGroupInfo@xercesc_3_1@@UStringHasher@2@@1@_NQAVMemoryManager@1@@Z 1202d9c9 f i XSModel.obj
 0001:0002ca34       ??1?$RefHashTableOfEnumerator@VXercesGroupInfo@xercesc_3_1@@UStringHasher@2@@xercesc_3_1@@UAE@XZ 1202da34 f i XSModel.obj
 0001:0002ca6e       ??_G?$BaseRefVectorOf@VXSObject@xercesc_3_1@@@xercesc_3_1@@UAEPAXI@Z 1202da6e f i XSModel.obj
 0001:0002ca6e       ??_E?$BaseRefVectorOf@VXSObject@xercesc_3_1@@@xercesc_3_1@@UAEPAXI@Z 1202da6e f i * CIL library *:* CIL module *
 0001:0002ca8e       ??_G?$RefVectorOf@VXSObject@xercesc_3_1@@@xercesc_3_1@@UAEPAXI@Z 1202da8e f i XSModel.obj
 0001:0002ca8e       ??_E?$RefVectorOf@VXSObject@xercesc_3_1@@@xercesc_3_1@@UAEPAXI@Z 1202da8e f i * CIL library *:* CIL module *
 0001:0002caf7       ??_G?$BaseRefVectorOf@VXSNamespaceItem@xercesc_3_1@@@xercesc_3_1@@UAEPAXI@Z 1202daf7 f i XSModel.obj
 0001:0002caf7       ??_E?$BaseRefVectorOf@VXSNamespaceItem@xercesc_3_1@@@xercesc_3_1@@UAEPAXI@Z 1202daf7 f i * CIL library *:* CIL module *
 0001:0002cb17       ??_E?$RefVectorOf@VXSNamespaceItem@xercesc_3_1@@@xercesc_3_1@@UAEPAXI@Z 1202db17 f i * CIL library *:* CIL module *
 0001:0002cb17       ??_G?$RefVectorOf@VXSNamespaceItem@xercesc_3_1@@@xercesc_3_1@@UAEPAXI@Z 1202db17 f i XSModel.obj
 0001:0002cb88       ??_E?$RefHashTableOfEnumerator@VDatatypeValidator@xercesc_3_1@@UStringHasher@2@@xercesc_3_1@@UAEPAXI@Z 1202db88 f i * CIL library *:* CIL module *
 0001:0002cb88       ??_G?$RefHashTableOfEnumerator@VDatatypeValidator@xercesc_3_1@@UStringHasher@2@@xercesc_3_1@@UAEPAXI@Z 1202db88 f i XSModel.obj
 0001:0002cba7       ??_E?$RefHashTableOfEnumerator@VXMLAttDef@xercesc_3_1@@UStringHasher@2@@xercesc_3_1@@UAEPAXI@Z 1202dba7 f i * CIL library *:* CIL module *
 0001:0002cba7       ??_G?$RefHashTableOfEnumerator@VXMLAttDef@xercesc_3_1@@UStringHasher@2@@xercesc_3_1@@UAEPAXI@Z 1202dba7 f i XSModel.obj
 0001:0002cbc6       ??_G?$RefHashTableOfEnumerator@VComplexTypeInfo@xercesc_3_1@@UStringHasher@2@@xercesc_3_1@@UAEPAXI@Z 1202dbc6 f i XSModel.obj
 0001:0002cbc6       ??_E?$RefHashTableOfEnumerator@VComplexTypeInfo@xercesc_3_1@@UStringHasher@2@@xercesc_3_1@@UAEPAXI@Z 1202dbc6 f i * CIL library *:* CIL module *
 0001:0002cbe5       ??_G?$RefHashTableOfEnumerator@VXercesAttGroupInfo@xercesc_3_1@@UStringHasher@2@@xercesc_3_1@@UAEPAXI@Z 1202dbe5 f i XSModel.obj
 0001:0002cbe5       ??_E?$RefHashTableOfEnumerator@VXercesAttGroupInfo@xercesc_3_1@@UStringHasher@2@@xercesc_3_1@@UAEPAXI@Z 1202dbe5 f i * CIL library *:* CIL module *
 0001:0002cc04       ??_E?$RefHashTableOfEnumerator@VXercesGroupInfo@xercesc_3_1@@UStringHasher@2@@xercesc_3_1@@UAEPAXI@Z 1202dc04 f i * CIL library *:* CIL module *
 0001:0002cc04       ??_G?$RefHashTableOfEnumerator@VXercesGroupInfo@xercesc_3_1@@UStringHasher@2@@xercesc_3_1@@UAEPAXI@Z 1202dc04 f i XSModel.obj
 0001:0002cc23       ?put@?$RefHash2KeysTableOf@VXSObject@xercesc_3_1@@UStringHasher@2@@xercesc_3_1@@QAEXPAXHQAVXSObject@2@@Z 1202dc23 f i XSModel.obj
 0001:0002cc23       ?put@?$RefHash2KeysTableOf@VXSIDCDefinition@xercesc_3_1@@UStringHasher@2@@xercesc_3_1@@QAEXPAXHQAVXSIDCDefinition@2@@Z 1202dc23 f i XSObjectFactory.obj
 0001:0002ccdf       ?cleanup@?$RefHashTableOf@VXSNamespaceItem@xercesc_3_1@@UStringHasher@2@@xercesc_3_1@@QAEXXZ 1202dcdf f i XSModel.obj
 0001:0002cd5c       ?rehash@?$RefHashTableOf@VXSObject@xercesc_3_1@@UStringHasher@2@@xercesc_3_1@@AAEXXZ 1202dd5c f i XSModel.obj
 0001:0002ce17       ?rehash@?$RefHash2KeysTableOf@VXMLAttr@xercesc_3_1@@UStringHasher@2@@xercesc_3_1@@AAEXXZ 1202de17 f i DGXMLScanner.obj
 0001:0002ce17       ?rehash@?$RefHash2KeysTableOf@VIdentityConstraint@xercesc_3_1@@UStringHasher@2@@xercesc_3_1@@AAEXXZ 1202de17 f i TraverseSchema.obj
 0001:0002ce17       ?rehash@?$RefHash2KeysTableOf@VSchemaInfo@xercesc_3_1@@UStringHasher@2@@xercesc_3_1@@AAEXXZ 1202de17 f i TraverseSchema.obj
 0001:0002ce17       ?rehash@?$RefHash2KeysTableOf@VXSObject@xercesc_3_1@@UStringHasher@2@@xercesc_3_1@@AAEXXZ 1202de17 f i XSModel.obj
 0001:0002ce17       ?rehash@?$RefHash2KeysTableOf@VSchemaAttDef@xercesc_3_1@@UStringHasher@2@@xercesc_3_1@@AAEXXZ 1202de17 f i XTemplateSerializer.obj
 0001:0002ce17       ?rehash@?$RefHash2KeysTableOf@_WUStringHasher@xercesc_3_1@@@xercesc_3_1@@AAEXXZ 1202de17 f i TraverseSchema.obj
 0001:0002ce17       ?rehash@?$RefHash2KeysTableOf@VXSIDCDefinition@xercesc_3_1@@UStringHasher@2@@xercesc_3_1@@AAEXXZ 1202de17 f i XSObjectFactory.obj
 0001:0002ce17       ?rehash@?$RefHash2KeysTableOf@V?$ValueVectorOf@PAVSchemaElementDecl@xercesc_3_1@@@xercesc_3_1@@UStringHasher@2@@xercesc_3_1@@AAEXXZ 1202de17 f i XTemplateSerializer.obj
 0001:0002cec6       ??_EXSModelGroup@xercesc_3_1@@UAEPAXI@Z 1202dec6 f i XSModelGroup.obj
 0001:0002cf11       ??0XSModelGroup@xercesc_3_1@@QAE@W4COMPOSITOR_TYPE@01@QAV?$RefVectorOf@VXSParticle@xercesc_3_1@@@1@QAVXSAnnotation@1@QAVXSModel@1@QAVMemoryManager@1@@Z 1202df11 f   XSModelGroup.obj
 0001:0002cf43       ??1XSModelGroup@xercesc_3_1@@UAE@XZ 1202df43 f   XSModelGroup.obj
 0001:0002cf77       ??_EXSModelGroupDefinition@xercesc_3_1@@UAEPAXI@Z 1202df77 f i XSModelGroupDefinition.obj
 0001:0002cfc2       ??0XSModelGroupDefinition@xercesc_3_1@@QAE@QAVXercesGroupInfo@1@QAVXSParticle@1@QAVXSAnnotation@1@QAVXSModel@1@QAVMemoryManager@1@@Z 1202dfc2 f   XSModelGroupDefinition.obj
 0001:0002cff4       ??1XSModelGroupDefinition@xercesc_3_1@@UAE@XZ 1202dff4 f   XSModelGroupDefinition.obj
 0001:0002d028       ?getNamespace@XSModelGroupDefinition@xercesc_3_1@@UAEPB_WXZ 1202e028 f   XSModelGroupDefinition.obj
 0001:0002d03e       ?getModelGroup@XSModelGroupDefinition@xercesc_3_1@@QAEPAVXSModelGroup@2@XZ 1202e03e f   XSModelGroupDefinition.obj
 0001:0002d04c       ??_EXSMultiValueFacet@xercesc_3_1@@UAEPAXI@Z 1202e04c f i XSMultiValueFacet.obj
 0001:0002d097       ??0XSMultiValueFacet@xercesc_3_1@@QAE@W4FACET@XSSimpleTypeDefinition@1@PAV?$RefArrayVectorOf@_W@1@_NQAVXSAnnotation@1@QAVXSModel@1@QAVMemoryManager@1@@Z 1202e097 f   XSMultiValueFacet.obj
 0001:0002d125       ??1XSMultiValueFacet@xercesc_3_1@@UAE@XZ 1202e125 f   XSMultiValueFacet.obj
 0001:0002d159       ??0XSNamespaceItem@xercesc_3_1@@QAE@QAVXSModel@1@QAVSchemaGrammar@1@QAVMemoryManager@1@@Z 1202e159 f   XSNamespaceItem.obj
 0001:0002d270       ??0XSNamespaceItem@xercesc_3_1@@QAE@QAVXSModel@1@QB_WQAVMemoryManager@1@@Z 1202e270 f   XSNamespaceItem.obj
 0001:0002d382       ??1XSNamespaceItem@xercesc_3_1@@QAE@XZ 1202e382 f   XSNamespaceItem.obj
 0001:0002d3ec       ?getComponents@XSNamespaceItem@xercesc_3_1@@QAEPAV?$XSNamedMap@VXSObject@xercesc_3_1@@@2@W4COMPONENT_TYPE@XSConstants@2@@Z 1202e3ec f   XSNamespaceItem.obj
 0001:0002d3fa       ?getElementDeclaration@XSNamespaceItem@xercesc_3_1@@QAEPAVXSElementDeclaration@2@PB_W@Z 1202e3fa f   XSNamespaceItem.obj
 0001:0002d423       ?getAttributeDeclaration@XSNamespaceItem@xercesc_3_1@@QAEPAVXSAttributeDeclaration@2@PB_W@Z 1202e423 f   XSNamespaceItem.obj
 0001:0002d44c       ?getTypeDefinition@XSNamespaceItem@xercesc_3_1@@QAEPAVXSTypeDefinition@2@PB_W@Z 1202e44c f   XSNamespaceItem.obj
 0001:0002d475       ?getAttributeGroup@XSNamespaceItem@xercesc_3_1@@QAEPAVXSAttributeGroupDefinition@2@PB_W@Z 1202e475 f   XSNamespaceItem.obj
 0001:0002d49e       ?getModelGroupDefinition@XSNamespaceItem@xercesc_3_1@@QAEPAVXSModelGroupDefinition@2@PB_W@Z 1202e49e f   XSNamespaceItem.obj
 0001:0002d4c7       ?getNotationDeclaration@XSNamespaceItem@xercesc_3_1@@QAEPAVXSNotationDeclaration@2@PB_W@Z 1202e4c7 f   XSNamespaceItem.obj
 0001:0002d4f0       ?getDocumentLocations@XSNamespaceItem@xercesc_3_1@@QAEPBV?$RefArrayVectorOf@_W@2@XZ 1202e4f0 f   XSNamespaceItem.obj
 0001:0002d506       ??0?$RefHashTableOf@VXSObject@xercesc_3_1@@UStringHasher@2@@xercesc_3_1@@QAE@K_NQAVMemoryManager@1@@Z 1202e506 f i XSNamespaceItem.obj
 0001:0002d54d       ??_EXSNotationDeclaration@xercesc_3_1@@UAEPAXI@Z 1202e54d f i XSNotationDeclaration.obj
